TI ARM Assembler PC v5.1.7 Tue Sep 16 08:38:38 2014

Tools Copyright (c) 1996-2014 Texas Instruments Incorporated
event_groups.asm                                                     PAGE    1

       1                    ;******************************************************************************
       2                    ;* TI ARM C/C++ Codegen                                             PC v5.1.7 *
       3                    ;* Date/Time created: Tue Sep 16 08:38:38 2014                                *
       4                    ;******************************************************************************
       5                            .compiler_opts --abi=eabi --arm_vmrs_si_workaround=off --code_state=16 --disable_dual_state --
       6 00000000                   .thumb
       7                    
       8                    $C$DW$CU        .dwtag  DW_TAG_compile_unit
       9                            .dwattr $C$DW$CU, DW_AT_name("../Source/event_groups.c")
      10                            .dwattr $C$DW$CU, DW_AT_producer("TI TI ARM C/C++ Codegen PC v5.1.7 Copyright (c) 1996-2014 Te
      11                            .dwattr $C$DW$CU, DW_AT_TI_version(0x01)
      12                            .dwattr $C$DW$CU, DW_AT_comp_dir("H:\class\690 Adv. Emb. Sys\FreeRTOS8_EECS_TM4C1294_SensorHub
      13                    
      14                    $C$DW$1 .dwtag  DW_TAG_subprogram, DW_AT_name("vPortYieldFromISR")
      15                            .dwattr $C$DW$1, DW_AT_TI_symbol_name("vPortYieldFromISR")
      16                            .dwattr $C$DW$1, DW_AT_declaration
      17                            .dwattr $C$DW$1, DW_AT_external
      18                            .dwattr $C$DW$1, DW_AT_decl_file("H:\class\690 Adv. Emb. Sys\FreeRTOS8_EECS_TM4C1294_SensorHub
      19                            .dwattr $C$DW$1, DW_AT_decl_line(0x7e)
      20                            .dwattr $C$DW$1, DW_AT_decl_column(0x0d)
      21                    
      22                    $C$DW$2 .dwtag  DW_TAG_subprogram, DW_AT_name("vPortEnterCritical")
      23                            .dwattr $C$DW$2, DW_AT_TI_symbol_name("vPortEnterCritical")
      24                            .dwattr $C$DW$2, DW_AT_declaration
      25                            .dwattr $C$DW$2, DW_AT_external
      26                            .dwattr $C$DW$2, DW_AT_decl_file("H:\class\690 Adv. Emb. Sys\FreeRTOS8_EECS_TM4C1294_SensorHub
      27                            .dwattr $C$DW$2, DW_AT_decl_line(0x98)
      28                            .dwattr $C$DW$2, DW_AT_decl_column(0x0d)
      29                    
      30                    $C$DW$3 .dwtag  DW_TAG_subprogram, DW_AT_name("vPortExitCritical")
      31                            .dwattr $C$DW$3, DW_AT_TI_symbol_name("vPortExitCritical")
      32                            .dwattr $C$DW$3, DW_AT_declaration
      33                            .dwattr $C$DW$3, DW_AT_external
      34                            .dwattr $C$DW$3, DW_AT_decl_file("H:\class\690 Adv. Emb. Sys\FreeRTOS8_EECS_TM4C1294_SensorHub
      35                            .dwattr $C$DW$3, DW_AT_decl_line(0x99)
      36                            .dwattr $C$DW$3, DW_AT_decl_column(0x0d)
      37                    
      38                    $C$DW$4 .dwtag  DW_TAG_subprogram, DW_AT_name("ulPortSetInterruptMask")
      39                            .dwattr $C$DW$4, DW_AT_TI_symbol_name("ulPortSetInterruptMask")
      40                            .dwattr $C$DW$4, DW_AT_type(*$C$DW$T$13)
      41                            .dwattr $C$DW$4, DW_AT_declaration
      42                            .dwattr $C$DW$4, DW_AT_external
      43                            .dwattr $C$DW$4, DW_AT_decl_file("H:\class\690 Adv. Emb. Sys\FreeRTOS8_EECS_TM4C1294_SensorHub
      44                            .dwattr $C$DW$4, DW_AT_decl_line(0x9a)
      45                            .dwattr $C$DW$4, DW_AT_decl_column(0x16)
      46                    
      47                    $C$DW$5 .dwtag  DW_TAG_subprogram, DW_AT_name("vPortClearInterruptMask")
      48                            .dwattr $C$DW$5, DW_AT_TI_symbol_name("vPortClearInterruptMask")
      49                            .dwattr $C$DW$5, DW_AT_declaration
      50                            .dwattr $C$DW$5, DW_AT_external
      51                            .dwattr $C$DW$5, DW_AT_decl_file("H:\class\690 Adv. Emb. Sys\FreeRTOS8_EECS_TM4C1294_SensorHub
      52                            .dwattr $C$DW$5, DW_AT_decl_line(0x9b)
      53                            .dwattr $C$DW$5, DW_AT_decl_column(0x0d)
      54                    $C$DW$6 .dwtag  DW_TAG_formal_parameter
      55                            .dwattr $C$DW$6, DW_AT_type(*$C$DW$T$13)
TI ARM Assembler PC v5.1.7 Tue Sep 16 08:38:38 2014

Tools Copyright (c) 1996-2014 Texas Instruments Incorporated
event_groups.asm                                                     PAGE    2

      56                            .dwendtag $C$DW$5
      57                    
      58                    
      59                    $C$DW$7 .dwtag  DW_TAG_subprogram, DW_AT_name("pvPortMalloc")
      60                            .dwattr $C$DW$7, DW_AT_TI_symbol_name("pvPortMalloc")
      61                            .dwattr $C$DW$7, DW_AT_type(*$C$DW$T$3)
      62                            .dwattr $C$DW$7, DW_AT_declaration
      63                            .dwattr $C$DW$7, DW_AT_external
      64                            .dwattr $C$DW$7, DW_AT_decl_file("H:\class\690 Adv. Emb. Sys\FreeRTOS8_EECS_TM4C1294_SensorHub
      65                            .dwattr $C$DW$7, DW_AT_decl_line(0x175)
      66                            .dwattr $C$DW$7, DW_AT_decl_column(0x07)
      67                    $C$DW$8 .dwtag  DW_TAG_formal_parameter
      68                            .dwattr $C$DW$8, DW_AT_type(*$C$DW$T$65)
      69                            .dwendtag $C$DW$7
      70                    
      71                    
      72                    $C$DW$9 .dwtag  DW_TAG_subprogram, DW_AT_name("vPortFree")
      73                            .dwattr $C$DW$9, DW_AT_TI_symbol_name("vPortFree")
      74                            .dwattr $C$DW$9, DW_AT_declaration
      75                            .dwattr $C$DW$9, DW_AT_external
      76                            .dwattr $C$DW$9, DW_AT_decl_file("H:\class\690 Adv. Emb. Sys\FreeRTOS8_EECS_TM4C1294_SensorHub
      77                            .dwattr $C$DW$9, DW_AT_decl_line(0x176)
      78                            .dwattr $C$DW$9, DW_AT_decl_column(0x06)
      79                    $C$DW$10        .dwtag  DW_TAG_formal_parameter
      80                            .dwattr $C$DW$10, DW_AT_type(*$C$DW$T$3)
      81                            .dwendtag $C$DW$9
      82                    
      83                    
      84                    $C$DW$11        .dwtag  DW_TAG_subprogram, DW_AT_name("vListInitialise")
      85                            .dwattr $C$DW$11, DW_AT_TI_symbol_name("vListInitialise")
      86                            .dwattr $C$DW$11, DW_AT_declaration
      87                            .dwattr $C$DW$11, DW_AT_external
      88                            .dwattr $C$DW$11, DW_AT_decl_file("H:\class\690 Adv. Emb. Sys\FreeRTOS8_EECS_TM4C1294_SensorHu
      89                            .dwattr $C$DW$11, DW_AT_decl_line(0x150)
      90                            .dwattr $C$DW$11, DW_AT_decl_column(0x06)
      91                    $C$DW$12        .dwtag  DW_TAG_formal_parameter
      92                            .dwattr $C$DW$12, DW_AT_type(*$C$DW$T$74)
      93                            .dwendtag $C$DW$11
      94                    
      95                    
      96                    $C$DW$13        .dwtag  DW_TAG_subprogram, DW_AT_name("vTaskSuspendAll")
      97                            .dwattr $C$DW$13, DW_AT_TI_symbol_name("vTaskSuspendAll")
      98                            .dwattr $C$DW$13, DW_AT_declaration
      99                            .dwattr $C$DW$13, DW_AT_external
     100                            .dwattr $C$DW$13, DW_AT_decl_file("H:/class/690 Adv. Emb. Sys/FreeRTOS8_EECS_TM4C1294_SensorHu
     101                            .dwattr $C$DW$13, DW_AT_decl_line(0x3cf)
     102                            .dwattr $C$DW$13, DW_AT_decl_column(0x06)
     103                    
     104                    $C$DW$14        .dwtag  DW_TAG_subprogram, DW_AT_name("xTaskResumeAll")
     105                            .dwattr $C$DW$14, DW_AT_TI_symbol_name("xTaskResumeAll")
     106                            .dwattr $C$DW$14, DW_AT_type(*$C$DW$T$55)
     107                            .dwattr $C$DW$14, DW_AT_declaration
     108                            .dwattr $C$DW$14, DW_AT_external
     109                            .dwattr $C$DW$14, DW_AT_decl_file("H:/class/690 Adv. Emb. Sys/FreeRTOS8_EECS_TM4C1294_SensorHu
     110                            .dwattr $C$DW$14, DW_AT_decl_line(0x405)
TI ARM Assembler PC v5.1.7 Tue Sep 16 08:38:38 2014

Tools Copyright (c) 1996-2014 Texas Instruments Incorporated
event_groups.asm                                                     PAGE    3

     111                            .dwattr $C$DW$14, DW_AT_decl_column(0x0c)
     112                    
     113                    $C$DW$15        .dwtag  DW_TAG_subprogram, DW_AT_name("vTaskPlaceOnUnorderedEventList")
     114                            .dwattr $C$DW$15, DW_AT_TI_symbol_name("vTaskPlaceOnUnorderedEventList")
     115                            .dwattr $C$DW$15, DW_AT_declaration
     116                            .dwattr $C$DW$15, DW_AT_external
     117                            .dwattr $C$DW$15, DW_AT_decl_file("H:/class/690 Adv. Emb. Sys/FreeRTOS8_EECS_TM4C1294_SensorHu
     118                            .dwattr $C$DW$15, DW_AT_decl_line(0x586)
     119                            .dwattr $C$DW$15, DW_AT_decl_column(0x06)
     120                    $C$DW$16        .dwtag  DW_TAG_formal_parameter
     121                            .dwattr $C$DW$16, DW_AT_type(*$C$DW$T$73)
     122                    $C$DW$17        .dwtag  DW_TAG_formal_parameter
     123                            .dwattr $C$DW$17, DW_AT_type(*$C$DW$T$77)
     124                    $C$DW$18        .dwtag  DW_TAG_formal_parameter
     125                            .dwattr $C$DW$18, DW_AT_type(*$C$DW$T$77)
     126                            .dwendtag $C$DW$15
     127                    
     128                    
     129                    $C$DW$19        .dwtag  DW_TAG_subprogram, DW_AT_name("xTaskRemoveFromUnorderedEventList")
     130                            .dwattr $C$DW$19, DW_AT_TI_symbol_name("xTaskRemoveFromUnorderedEventList")
     131                            .dwattr $C$DW$19, DW_AT_type(*$C$DW$T$55)
     132                            .dwattr $C$DW$19, DW_AT_declaration
     133                            .dwattr $C$DW$19, DW_AT_external
     134                            .dwattr $C$DW$19, DW_AT_decl_file("H:/class/690 Adv. Emb. Sys/FreeRTOS8_EECS_TM4C1294_SensorHu
     135                            .dwattr $C$DW$19, DW_AT_decl_line(0x5ae)
     136                            .dwattr $C$DW$19, DW_AT_decl_column(0x0c)
     137                    $C$DW$20        .dwtag  DW_TAG_formal_parameter
     138                            .dwattr $C$DW$20, DW_AT_type(*$C$DW$T$30)
     139                    $C$DW$21        .dwtag  DW_TAG_formal_parameter
     140                            .dwattr $C$DW$21, DW_AT_type(*$C$DW$T$77)
     141                            .dwendtag $C$DW$19
     142                    
     143                    
     144                    $C$DW$22        .dwtag  DW_TAG_subprogram, DW_AT_name("uxTaskResetEventItemValue")
     145                            .dwattr $C$DW$22, DW_AT_TI_symbol_name("uxTaskResetEventItemValue")
     146                            .dwattr $C$DW$22, DW_AT_type(*$C$DW$T$24)
     147                            .dwattr $C$DW$22, DW_AT_declaration
     148                            .dwattr $C$DW$22, DW_AT_external
     149                            .dwattr $C$DW$22, DW_AT_decl_file("H:/class/690 Adv. Emb. Sys/FreeRTOS8_EECS_TM4C1294_SensorHu
     150                            .dwattr $C$DW$22, DW_AT_decl_line(0x5be)
     151                            .dwattr $C$DW$22, DW_AT_decl_column(0x0c)
     152                    ;       C:\TI_CodeComposer\ccsv6\tools\compiler\arm_5.1.7\bin\armacpia.exe -@C:\\Users\\zflies\\AppDat
     153 00000000                   .sect   ".text"
     154                            .clink
     155                            .thumbfunc xEventGroupCreate
     156 00000000                   .thumb
     157                            .global xEventGroupCreate
     158                    
     159                    $C$DW$23        .dwtag  DW_TAG_subprogram, DW_AT_name("xEventGroupCreate")
     160                            .dwattr $C$DW$23, DW_AT_low_pc(xEventGroupCreate)
     161                            .dwattr $C$DW$23, DW_AT_high_pc(0x00)
     162                            .dwattr $C$DW$23, DW_AT_TI_symbol_name("xEventGroupCreate")
     163                            .dwattr $C$DW$23, DW_AT_external
     164                            .dwattr $C$DW$23, DW_AT_type(*$C$DW$T$62)
     165                            .dwattr $C$DW$23, DW_AT_TI_begin_file("../Source/event_groups.c")
TI ARM Assembler PC v5.1.7 Tue Sep 16 08:38:38 2014

Tools Copyright (c) 1996-2014 Texas Instruments Incorporated
event_groups.asm                                                     PAGE    4

     166                            .dwattr $C$DW$23, DW_AT_TI_begin_line(0x86)
     167                            .dwattr $C$DW$23, DW_AT_TI_begin_column(0x14)
     168                            .dwattr $C$DW$23, DW_AT_decl_file("../Source/event_groups.c")
     169                            .dwattr $C$DW$23, DW_AT_decl_line(0x86)
     170                            .dwattr $C$DW$23, DW_AT_decl_column(0x14)
     171                            .dwattr $C$DW$23, DW_AT_TI_max_frame_size(0x08)
     172                            .dwpsn  file "../Source/event_groups.c",line 135,column 1,is_stmt,address xEventGroupCreate,is
     173                    
     174                            .dwfde $C$DW$CIE, xEventGroupCreate
     175                    
     176                    ;*****************************************************************************
     177                    ;* FUNCTION NAME: xEventGroupCreate                                          *
     178                    ;*                                                                           *
     179                    ;*   Regs Modified     : A1,A2,A3,A4,V9,SP,LR,SR,D0,D0_hi,D1,D1_hi,D2,D2_hi, *
     180                    ;*                           D3,D3_hi,D4,D4_hi,D5,D5_hi,D6,D6_hi,D7,D7_hi,   *
     181                    ;*                           FPEXC,FPSCR                                     *
     182                    ;*   Regs Used         : A1,A2,A3,A4,V9,SP,LR,SR,D0,D0_hi,D1,D1_hi,D2,D2_hi, *
     183                    ;*                           D3,D3_hi,D4,D4_hi,D5,D5_hi,D6,D6_hi,D7,D7_hi,   *
     184                    ;*                           FPEXC,FPSCR                                     *
     185                    ;*   Local Frame Size  : 0 Args + 4 Auto + 4 Save = 8 byte                   *
     186                    ;*****************************************************************************
     187 00000000           xEventGroupCreate:
     188                    ;* --------------------------------------------------------------------------*
     189                            .dwcfi  cfa_offset, 0
     190 00000000 B508              PUSH      {A4, LR}              ; [DPU_3_PIPE]  ; [ORIG 16-BIT INS]
     191                            .dwcfi  cfa_offset, 8
     192                            .dwcfi  save_reg_to_mem, 14, -4
     193                            .dwcfi  save_reg_to_mem, 3, -8
     194                    $C$DW$24        .dwtag  DW_TAG_variable, DW_AT_name("pxEventBits")
     195                            .dwattr $C$DW$24, DW_AT_TI_symbol_name("pxEventBits")
     196                            .dwattr $C$DW$24, DW_AT_type(*$C$DW$T$163)
     197                            .dwattr $C$DW$24, DW_AT_location[DW_OP_breg13 0]
     198                            .dwpsn  file "../Source/event_groups.c",line 138,column 2,is_stmt,isa 1
     199 00000002 2018              MOVS      A1, #24               ; [DPU_3_PIPE] |138|  ; [ORIG 16-BIT INS]
     200                    $C$DW$25        .dwtag  DW_TAG_TI_branch
     201                            .dwattr $C$DW$25, DW_AT_low_pc(0x00)
     202                            .dwattr $C$DW$25, DW_AT_name("pvPortMalloc")
     203                            .dwattr $C$DW$25, DW_AT_TI_call
     204 00000004 FFFEF7FF!         BL        pvPortMalloc          ; [DPU_3_PIPE] |138|  ; [KEEP 32-BIT INS]
     205                            ; CALL OCCURS {pvPortMalloc }    ; [] |138| 
     206 00000008 9000              STR       A1, [SP, #0]          ; [DPU_3_PIPE] |138|  ; [ORIG 16-BIT INS]
     207                            .dwpsn  file "../Source/event_groups.c",line 139,column 2,is_stmt,isa 1
     208 0000000a 9800              LDR       A1, [SP, #0]          ; [DPU_3_PIPE] |139|  ; [ORIG 16-BIT INS]
     209 0000000c B130              CBZ       A1, ||$C$L1||         ; []  ; [ORIG 16-BIT INS]
     210                            ; BRANCHCC OCCURS {||$C$L1||}    ; [] |139| 
     211                    ;* --------------------------------------------------------------------------*
     212                            .dwpsn  file "../Source/event_groups.c",line 141,column 3,is_stmt,isa 1
     213 0000000e 9800              LDR       A1, [SP, #0]          ; [DPU_3_PIPE] |141|  ; [ORIG 16-BIT INS]
     214 00000010 2100              MOVS      A2, #0                ; [DPU_3_PIPE] |141|  ; [ORIG 16-BIT INS]
     215 00000012 6001              STR       A2, [A1, #0]          ; [DPU_3_PIPE] |141|  ; [ORIG 16-BIT INS]
     216                            .dwpsn  file "../Source/event_groups.c",line 142,column 3,is_stmt,isa 1
     217 00000014 9800              LDR       A1, [SP, #0]          ; [DPU_3_PIPE] |142|  ; [ORIG 16-BIT INS]
     218 00000016 1D00              ADDS      A1, A1, #4            ; [DPU_3_PIPE] |142|  ; [ORIG 16-BIT INS]
     219                    $C$DW$26        .dwtag  DW_TAG_TI_branch
     220                            .dwattr $C$DW$26, DW_AT_low_pc(0x00)
TI ARM Assembler PC v5.1.7 Tue Sep 16 08:38:38 2014

Tools Copyright (c) 1996-2014 Texas Instruments Incorporated
event_groups.asm                                                     PAGE    5

     221                            .dwattr $C$DW$26, DW_AT_name("vListInitialise")
     222                            .dwattr $C$DW$26, DW_AT_TI_call
     223 00000018 FFFEF7FF!         BL        vListInitialise       ; [DPU_3_PIPE] |142|  ; [KEEP 32-BIT INS]
     224                            ; CALL OCCURS {vListInitialise }  ; [] |142| 
     225                            .dwpsn  file "../Source/event_groups.c",line 144,column 2,is_stmt,isa 1
     226                    ;* --------------------------------------------------------------------------*
     227 0000001c           ||$C$L1||:    
     228                            .dwpsn  file "../Source/event_groups.c",line 150,column 2,is_stmt,isa 1
     229 0000001c 9800              LDR       A1, [SP, #0]          ; [DPU_3_PIPE] |150|  ; [ORIG 16-BIT INS]
     230                            .dwpsn  file "../Source/event_groups.c",line 151,column 1,is_stmt,isa 1
     231                    $C$DW$27        .dwtag  DW_TAG_TI_branch
     232                            .dwattr $C$DW$27, DW_AT_low_pc(0x00)
     233                            .dwattr $C$DW$27, DW_AT_TI_return
     234 0000001e BD08              POP       {A4, PC}              ; [DPU_3_PIPE]  ; [ORIG 16-BIT INS]
     235                            .dwcfi  cfa_offset, 0
     236                            ; BRANCH OCCURS                  ; [] 
     237                            .dwattr $C$DW$23, DW_AT_TI_end_file("../Source/event_groups.c")
     238                            .dwattr $C$DW$23, DW_AT_TI_end_line(0x97)
     239                            .dwattr $C$DW$23, DW_AT_TI_end_column(0x01)
     240                            .dwendentry
     241                            .dwendtag $C$DW$23
     242                    
     243 00000020                   .sect   ".text"
     244                            .clink
     245                            .thumbfunc xEventGroupSync
     246 00000020                   .thumb
     247                            .global xEventGroupSync
     248                    
     249                    $C$DW$28        .dwtag  DW_TAG_subprogram, DW_AT_name("xEventGroupSync")
     250                            .dwattr $C$DW$28, DW_AT_low_pc(xEventGroupSync)
     251                            .dwattr $C$DW$28, DW_AT_high_pc(0x00)
     252                            .dwattr $C$DW$28, DW_AT_TI_symbol_name("xEventGroupSync")
     253                            .dwattr $C$DW$28, DW_AT_external
     254                            .dwattr $C$DW$28, DW_AT_type(*$C$DW$T$25)
     255                            .dwattr $C$DW$28, DW_AT_TI_begin_file("../Source/event_groups.c")
     256                            .dwattr $C$DW$28, DW_AT_TI_begin_line(0x9a)
     257                            .dwattr $C$DW$28, DW_AT_TI_begin_column(0x0d)
     258                            .dwattr $C$DW$28, DW_AT_decl_file("../Source/event_groups.c")
     259                            .dwattr $C$DW$28, DW_AT_decl_line(0x9a)
     260                            .dwattr $C$DW$28, DW_AT_decl_column(0x0d)
     261                            .dwattr $C$DW$28, DW_AT_TI_max_frame_size(0x28)
     262                            .dwpsn  file "../Source/event_groups.c",line 155,column 1,is_stmt,address xEventGroupSync,isa 
     263                    
     264                            .dwfde $C$DW$CIE, xEventGroupSync
     265                    $C$DW$29        .dwtag  DW_TAG_formal_parameter, DW_AT_name("xEventGroup")
     266                            .dwattr $C$DW$29, DW_AT_TI_symbol_name("xEventGroup")
     267                            .dwattr $C$DW$29, DW_AT_type(*$C$DW$T$62)
     268                            .dwattr $C$DW$29, DW_AT_location[DW_OP_reg0]
     269                    $C$DW$30        .dwtag  DW_TAG_formal_parameter, DW_AT_name("uxBitsToSet")
     270                            .dwattr $C$DW$30, DW_AT_TI_symbol_name("uxBitsToSet")
     271                            .dwattr $C$DW$30, DW_AT_type(*$C$DW$T$112)
     272                            .dwattr $C$DW$30, DW_AT_location[DW_OP_reg1]
     273                    $C$DW$31        .dwtag  DW_TAG_formal_parameter, DW_AT_name("uxBitsToWaitFor")
     274                            .dwattr $C$DW$31, DW_AT_TI_symbol_name("uxBitsToWaitFor")
     275                            .dwattr $C$DW$31, DW_AT_type(*$C$DW$T$112)
TI ARM Assembler PC v5.1.7 Tue Sep 16 08:38:38 2014

Tools Copyright (c) 1996-2014 Texas Instruments Incorporated
event_groups.asm                                                     PAGE    6

     276                            .dwattr $C$DW$31, DW_AT_location[DW_OP_reg2]
     277                    $C$DW$32        .dwtag  DW_TAG_formal_parameter, DW_AT_name("xTicksToWait")
     278                            .dwattr $C$DW$32, DW_AT_TI_symbol_name("xTicksToWait")
     279                            .dwattr $C$DW$32, DW_AT_type(*$C$DW$T$24)
     280                            .dwattr $C$DW$32, DW_AT_location[DW_OP_reg3]
     281                    
     282                    ;*****************************************************************************
     283                    ;* FUNCTION NAME: xEventGroupSync                                            *
     284                    ;*                                                                           *
     285                    ;*   Regs Modified     : A1,A2,A3,A4,V9,SP,LR,SR,D0,D0_hi,D1,D1_hi,D2,D2_hi, *
     286                    ;*                           D3,D3_hi,D4,D4_hi,D5,D5_hi,D6,D6_hi,D7,D7_hi,   *
     287                    ;*                           FPEXC,FPSCR                                     *
     288                    ;*   Regs Used         : A1,A2,A3,A4,V9,SP,LR,SR,D0,D0_hi,D1,D1_hi,D2,D2_hi, *
     289                    ;*                           D3,D3_hi,D4,D4_hi,D5,D5_hi,D6,D6_hi,D7,D7_hi,   *
     290                    ;*                           FPEXC,FPSCR                                     *
     291                    ;*   Local Frame Size  : 0 Args + 36 Auto + 4 Save = 40 byte                 *
     292                    ;*****************************************************************************
     293 00000020           xEventGroupSync:
     294                    ;* --------------------------------------------------------------------------*
     295                            .dwcfi  cfa_offset, 0
     296 00000020 B500              PUSH      {LR}                  ; [DPU_3_PIPE]  ; [ORIG 16-BIT INS]
     297                            .dwcfi  cfa_offset, 4
     298                            .dwcfi  save_reg_to_mem, 14, -4
     299 00000022 0D24F1AD          SUB       SP, SP, #36           ; [DPU_3_PIPE]  ; [KEEP 32-BIT INS]
     300                            .dwcfi  cfa_offset, 40
     301                    $C$DW$33        .dwtag  DW_TAG_variable, DW_AT_name("xEventGroup")
     302                            .dwattr $C$DW$33, DW_AT_TI_symbol_name("xEventGroup")
     303                            .dwattr $C$DW$33, DW_AT_type(*$C$DW$T$62)
     304                            .dwattr $C$DW$33, DW_AT_location[DW_OP_breg13 0]
     305                    $C$DW$34        .dwtag  DW_TAG_variable, DW_AT_name("uxBitsToSet")
     306                            .dwattr $C$DW$34, DW_AT_TI_symbol_name("uxBitsToSet")
     307                            .dwattr $C$DW$34, DW_AT_type(*$C$DW$T$112)
     308                            .dwattr $C$DW$34, DW_AT_location[DW_OP_breg13 4]
     309                    $C$DW$35        .dwtag  DW_TAG_variable, DW_AT_name("uxBitsToWaitFor")
     310                            .dwattr $C$DW$35, DW_AT_TI_symbol_name("uxBitsToWaitFor")
     311                            .dwattr $C$DW$35, DW_AT_type(*$C$DW$T$112)
     312                            .dwattr $C$DW$35, DW_AT_location[DW_OP_breg13 8]
     313                    $C$DW$36        .dwtag  DW_TAG_variable, DW_AT_name("xTicksToWait")
     314                            .dwattr $C$DW$36, DW_AT_TI_symbol_name("xTicksToWait")
     315                            .dwattr $C$DW$36, DW_AT_type(*$C$DW$T$24)
     316                            .dwattr $C$DW$36, DW_AT_location[DW_OP_breg13 12]
     317                    $C$DW$37        .dwtag  DW_TAG_variable, DW_AT_name("uxOriginalBitValue")
     318                            .dwattr $C$DW$37, DW_AT_TI_symbol_name("uxOriginalBitValue")
     319                            .dwattr $C$DW$37, DW_AT_type(*$C$DW$T$25)
     320                            .dwattr $C$DW$37, DW_AT_location[DW_OP_breg13 16]
     321                    $C$DW$38        .dwtag  DW_TAG_variable, DW_AT_name("uxReturn")
     322                            .dwattr $C$DW$38, DW_AT_TI_symbol_name("uxReturn")
     323                            .dwattr $C$DW$38, DW_AT_type(*$C$DW$T$25)
     324                            .dwattr $C$DW$38, DW_AT_location[DW_OP_breg13 20]
     325                    $C$DW$39        .dwtag  DW_TAG_variable, DW_AT_name("pxEventBits")
     326                            .dwattr $C$DW$39, DW_AT_TI_symbol_name("pxEventBits")
     327                            .dwattr $C$DW$39, DW_AT_type(*$C$DW$T$163)
     328                            .dwattr $C$DW$39, DW_AT_location[DW_OP_breg13 24]
     329                    $C$DW$40        .dwtag  DW_TAG_variable, DW_AT_name("xAlreadyYielded")
     330                            .dwattr $C$DW$40, DW_AT_TI_symbol_name("xAlreadyYielded")
TI ARM Assembler PC v5.1.7 Tue Sep 16 08:38:38 2014

Tools Copyright (c) 1996-2014 Texas Instruments Incorporated
event_groups.asm                                                     PAGE    7

     331                            .dwattr $C$DW$40, DW_AT_type(*$C$DW$T$55)
     332                            .dwattr $C$DW$40, DW_AT_location[DW_OP_breg13 28]
     333                    $C$DW$41        .dwtag  DW_TAG_variable, DW_AT_name("xTimeoutOccurred")
     334                            .dwattr $C$DW$41, DW_AT_TI_symbol_name("xTimeoutOccurred")
     335                            .dwattr $C$DW$41, DW_AT_type(*$C$DW$T$55)
     336                            .dwattr $C$DW$41, DW_AT_location[DW_OP_breg13 32]
     337 00000026 9303              STR       A4, [SP, #12]         ; [DPU_3_PIPE] |155|  ; [ORIG 16-BIT INS]
     338 00000028 9202              STR       A3, [SP, #8]          ; [DPU_3_PIPE] |155|  ; [ORIG 16-BIT INS]
     339 0000002a 9101              STR       A2, [SP, #4]          ; [DPU_3_PIPE] |155|  ; [ORIG 16-BIT INS]
     340 0000002c 9000              STR       A1, [SP, #0]          ; [DPU_3_PIPE] |155|  ; [ORIG 16-BIT INS]
     341                            .dwpsn  file "../Source/event_groups.c",line 157,column 27,is_stmt,isa 1
     342 0000002e 9800              LDR       A1, [SP, #0]          ; [DPU_3_PIPE] |157|  ; [ORIG 16-BIT INS]
     343 00000030 9006              STR       A1, [SP, #24]         ; [DPU_3_PIPE] |157|  ; [ORIG 16-BIT INS]
     344                            .dwpsn  file "../Source/event_groups.c",line 159,column 29,is_stmt,isa 1
     345 00000032 2000              MOVS      A1, #0                ; [DPU_3_PIPE] |159|  ; [ORIG 16-BIT INS]
     346 00000034 9008              STR       A1, [SP, #32]         ; [DPU_3_PIPE] |159|  ; [ORIG 16-BIT INS]
     347                            .dwpsn  file "../Source/event_groups.c",line 169,column 2,is_stmt,isa 1
     348                    $C$DW$42        .dwtag  DW_TAG_TI_branch
     349                            .dwattr $C$DW$42, DW_AT_low_pc(0x00)
     350                            .dwattr $C$DW$42, DW_AT_name("vTaskSuspendAll")
     351                            .dwattr $C$DW$42, DW_AT_TI_call
     352 00000036 FFFEF7FF!         BL        vTaskSuspendAll       ; [DPU_3_PIPE] |169|  ; [KEEP 32-BIT INS]
     353                            ; CALL OCCURS {vTaskSuspendAll }  ; [] |169| 
     354                            .dwpsn  file "../Source/event_groups.c",line 171,column 3,is_stmt,isa 1
     355 0000003a 9806              LDR       A1, [SP, #24]         ; [DPU_3_PIPE] |171|  ; [ORIG 16-BIT INS]
     356 0000003c 6800              LDR       A1, [A1, #0]          ; [DPU_3_PIPE] |171|  ; [ORIG 16-BIT INS]
     357 0000003e 9004              STR       A1, [SP, #16]         ; [DPU_3_PIPE] |171|  ; [ORIG 16-BIT INS]
     358                            .dwpsn  file "../Source/event_groups.c",line 173,column 3,is_stmt,isa 1
     359 00000040 9901              LDR       A2, [SP, #4]          ; [DPU_3_PIPE] |173|  ; [ORIG 16-BIT INS]
     360 00000042 9800              LDR       A1, [SP, #0]          ; [DPU_3_PIPE] |173|  ; [ORIG 16-BIT INS]
     361                    $C$DW$43        .dwtag  DW_TAG_TI_branch
     362                            .dwattr $C$DW$43, DW_AT_low_pc(0x00)
     363                            .dwattr $C$DW$43, DW_AT_name("xEventGroupSetBits")
     364                            .dwattr $C$DW$43, DW_AT_TI_call
     365 00000044 F8E5F000          BL        xEventGroupSetBits    ; [DPU_3_PIPE] |173|  ; [KEEP 32-BIT INS]
     366                            ; CALL OCCURS {xEventGroupSetBits }  ; [] |173| 
     367                            .dwpsn  file "../Source/event_groups.c",line 175,column 3,is_stmt,isa 1
     368 00000048 9B04              LDR       A4, [SP, #16]         ; [DPU_3_PIPE] |175|  ; [ORIG 16-BIT INS]
     369 0000004a 9801              LDR       A1, [SP, #4]          ; [DPU_3_PIPE] |175|  ; [ORIG 16-BIT INS]
     370 0000004c 9902              LDR       A2, [SP, #8]          ; [DPU_3_PIPE] |175|  ; [ORIG 16-BIT INS]
     371 0000004e 9A02              LDR       A3, [SP, #8]          ; [DPU_3_PIPE] |175|  ; [ORIG 16-BIT INS]
     372 00000050 4318              ORRS      A1, A1, A4            ; [DPU_3_PIPE] |175|  ; [ORIG 16-BIT INS]
     373 00000052 4001              ANDS      A2, A2, A1            ; [DPU_3_PIPE] |175|  ; [ORIG 16-BIT INS]
     374 00000054 428A              CMP       A3, A2                ; [DPU_3_PIPE] |175|  ; [ORIG 16-BIT INS]
     375 00000056 D10B              BNE       ||$C$L2||             ; [DPU_3_PIPE] |175|  ; [ORIG 16-BIT INS]
     376                            ; BRANCHCC OCCURS {||$C$L2||}    ; [] |175| 
     377                    ;* --------------------------------------------------------------------------*
     378                            .dwpsn  file "../Source/event_groups.c",line 178,column 4,is_stmt,isa 1
     379 00000058 9904              LDR       A2, [SP, #16]         ; [DPU_3_PIPE] |178|  ; [ORIG 16-BIT INS]
     380 0000005a 9801              LDR       A1, [SP, #4]          ; [DPU_3_PIPE] |178|  ; [ORIG 16-BIT INS]
     381 0000005c 4308              ORRS      A1, A1, A2            ; [DPU_3_PIPE] |178|  ; [ORIG 16-BIT INS]
     382 0000005e 9005              STR       A1, [SP, #20]         ; [DPU_3_PIPE] |178|  ; [ORIG 16-BIT INS]
     383                            .dwpsn  file "../Source/event_groups.c",line 182,column 4,is_stmt,isa 1
     384 00000060 9A02              LDR       A3, [SP, #8]          ; [DPU_3_PIPE] |182|  ; [ORIG 16-BIT INS]
     385 00000062 9906              LDR       A2, [SP, #24]         ; [DPU_3_PIPE] |182|  ; [ORIG 16-BIT INS]
TI ARM Assembler PC v5.1.7 Tue Sep 16 08:38:38 2014

Tools Copyright (c) 1996-2014 Texas Instruments Incorporated
event_groups.asm                                                     PAGE    8

     386 00000064 6808              LDR       A1, [A2, #0]          ; [DPU_3_PIPE] |182|  ; [ORIG 16-BIT INS]
     387 00000066 4390              BICS      A1, A1, A3            ; [DPU_3_PIPE] |182|  ; [ORIG 16-BIT INS]
     388 00000068 6008              STR       A1, [A2, #0]          ; [DPU_3_PIPE] |182|  ; [ORIG 16-BIT INS]
     389                            .dwpsn  file "../Source/event_groups.c",line 184,column 4,is_stmt,isa 1
     390 0000006a 2000              MOVS      A1, #0                ; [DPU_3_PIPE] |184|  ; [ORIG 16-BIT INS]
     391 0000006c 9003              STR       A1, [SP, #12]         ; [DPU_3_PIPE] |184|  ; [ORIG 16-BIT INS]
     392                            .dwpsn  file "../Source/event_groups.c",line 185,column 3,is_stmt,isa 1
     393 0000006e E00F              B         ||$C$L4||             ; [DPU_3_PIPE] |185|  ; [ORIG 16-BIT INS]
     394                            ; BRANCH OCCURS {||$C$L4||}      ; [] |185| 
     395                    ;* --------------------------------------------------------------------------*
     396 00000070           ||$C$L2||:    
     397                            .dwpsn  file "../Source/event_groups.c",line 188,column 4,is_stmt,isa 1
     398 00000070 9803              LDR       A1, [SP, #12]         ; [DPU_3_PIPE] |188|  ; [ORIG 16-BIT INS]
     399 00000072 B150              CBZ       A1, ||$C$L3||         ; []  ; [ORIG 16-BIT INS]
     400                            ; BRANCHCC OCCURS {||$C$L3||}    ; [] |188| 
     401                    ;* --------------------------------------------------------------------------*
     402                            .dwpsn  file "../Source/event_groups.c",line 195,column 5,is_stmt,isa 1
     403 00000074 9806              LDR       A1, [SP, #24]         ; [DPU_3_PIPE] |195|  ; [ORIG 16-BIT INS]
     404 00000076 9902              LDR       A2, [SP, #8]          ; [DPU_3_PIPE] |195|  ; [ORIG 16-BIT INS]
     405 00000078 9A03              LDR       A3, [SP, #12]         ; [DPU_3_PIPE] |195|  ; [ORIG 16-BIT INS]
     406 0000007a 1D00              ADDS      A1, A1, #4            ; [DPU_3_PIPE] |195|  ; [ORIG 16-BIT INS]
     407 0000007c 61A0F041          ORR       A2, A2, #83886080     ; [DPU_3_PIPE] |195|  ; [KEEP 32-BIT INS]
     408                    $C$DW$44        .dwtag  DW_TAG_TI_branch
     409                            .dwattr $C$DW$44, DW_AT_low_pc(0x00)
     410                            .dwattr $C$DW$44, DW_AT_name("vTaskPlaceOnUnorderedEventList")
     411                            .dwattr $C$DW$44, DW_AT_TI_call
     412 00000080 FFFEF7FF!         BL        vTaskPlaceOnUnorderedEventList ; [DPU_3_PIPE] |195|  ; [KEEP 32-BIT INS]
     413                            ; CALL OCCURS {vTaskPlaceOnUnorderedEventList }  ; [] |195| 
     414                            .dwpsn  file "../Source/event_groups.c",line 201,column 5,is_stmt,isa 1
     415 00000084 2000              MOVS      A1, #0                ; [DPU_3_PIPE] |201|  ; [ORIG 16-BIT INS]
     416 00000086 9005              STR       A1, [SP, #20]         ; [DPU_3_PIPE] |201|  ; [ORIG 16-BIT INS]
     417                            .dwpsn  file "../Source/event_groups.c",line 202,column 4,is_stmt,isa 1
     418 00000088 E002              B         ||$C$L4||             ; [DPU_3_PIPE] |202|  ; [ORIG 16-BIT INS]
     419                            ; BRANCH OCCURS {||$C$L4||}      ; [] |202| 
     420                    ;* --------------------------------------------------------------------------*
     421 0000008a           ||$C$L3||:    
     422                            .dwpsn  file "../Source/event_groups.c",line 207,column 5,is_stmt,isa 1
     423 0000008a 9806              LDR       A1, [SP, #24]         ; [DPU_3_PIPE] |207|  ; [ORIG 16-BIT INS]
     424 0000008c 6800              LDR       A1, [A1, #0]          ; [DPU_3_PIPE] |207|  ; [ORIG 16-BIT INS]
     425 0000008e 9005              STR       A1, [SP, #20]         ; [DPU_3_PIPE] |207|  ; [ORIG 16-BIT INS]
     426                    ;* --------------------------------------------------------------------------*
     427 00000090           ||$C$L4||:    
     428                            .dwpsn  file "../Source/event_groups.c",line 211,column 2,is_stmt,isa 1
     429                    $C$DW$45        .dwtag  DW_TAG_TI_branch
     430                            .dwattr $C$DW$45, DW_AT_low_pc(0x00)
     431                            .dwattr $C$DW$45, DW_AT_name("xTaskResumeAll")
     432                            .dwattr $C$DW$45, DW_AT_TI_call
     433 00000090 FFFEF7FF!         BL        xTaskResumeAll        ; [DPU_3_PIPE] |211|  ; [KEEP 32-BIT INS]
     434                            ; CALL OCCURS {xTaskResumeAll }  ; [] |211| 
     435 00000094 9007              STR       A1, [SP, #28]         ; [DPU_3_PIPE] |211|  ; [ORIG 16-BIT INS]
     436                            .dwpsn  file "../Source/event_groups.c",line 213,column 2,is_stmt,isa 1
     437 00000096 9803              LDR       A1, [SP, #12]         ; [DPU_3_PIPE] |213|  ; [ORIG 16-BIT INS]
     438 00000098 B308              CBZ       A1, ||$C$L8||         ; []  ; [ORIG 16-BIT INS]
     439                            ; BRANCHCC OCCURS {||$C$L8||}    ; [] |213| 
     440                    ;* --------------------------------------------------------------------------*
TI ARM Assembler PC v5.1.7 Tue Sep 16 08:38:38 2014

Tools Copyright (c) 1996-2014 Texas Instruments Incorporated
event_groups.asm                                                     PAGE    9

     441                            .dwpsn  file "../Source/event_groups.c",line 215,column 3,is_stmt,isa 1
     442 0000009a 9807              LDR       A1, [SP, #28]         ; [DPU_3_PIPE] |215|  ; [ORIG 16-BIT INS]
     443 0000009c B908              CBNZ      A1, ||$C$L5||         ; []  ; [ORIG 16-BIT INS]
     444                            ; BRANCHCC OCCURS {||$C$L5||}    ; [] |215| 
     445                    ;* --------------------------------------------------------------------------*
     446                            .dwpsn  file "../Source/event_groups.c",line 217,column 4,is_stmt,isa 1
     447                    $C$DW$46        .dwtag  DW_TAG_TI_branch
     448                            .dwattr $C$DW$46, DW_AT_low_pc(0x00)
     449                            .dwattr $C$DW$46, DW_AT_name("vPortYieldFromISR")
     450                            .dwattr $C$DW$46, DW_AT_TI_call
     451 0000009e FFFEF7FF!         BL        vPortYieldFromISR     ; [DPU_3_PIPE] |217|  ; [KEEP 32-BIT INS]
     452                            ; CALL OCCURS {vPortYieldFromISR }  ; [] |217| 
     453                            .dwpsn  file "../Source/event_groups.c",line 218,column 3,is_stmt,isa 1
     454                    ;* --------------------------------------------------------------------------*
     455 000000a2           ||$C$L5||:    
     456                            .dwpsn  file "../Source/event_groups.c",line 228,column 3,is_stmt,isa 1
     457                    $C$DW$47        .dwtag  DW_TAG_TI_branch
     458                            .dwattr $C$DW$47, DW_AT_low_pc(0x00)
     459                            .dwattr $C$DW$47, DW_AT_name("uxTaskResetEventItemValue")
     460                            .dwattr $C$DW$47, DW_AT_TI_call
     461 000000a2 FFFEF7FF!         BL        uxTaskResetEventItemValue ; [DPU_3_PIPE] |228|  ; [KEEP 32-BIT INS]
     462                            ; CALL OCCURS {uxTaskResetEventItemValue }  ; [] |228| 
     463 000000a6 9005              STR       A1, [SP, #20]         ; [DPU_3_PIPE] |228|  ; [ORIG 16-BIT INS]
     464                            .dwpsn  file "../Source/event_groups.c",line 230,column 3,is_stmt,isa 1
     465 000000a8 9805              LDR       A1, [SP, #20]         ; [DPU_3_PIPE] |230|  ; [ORIG 16-BIT INS]
     466 000000aa 0E80              LSRS      A1, A1, #26           ; [DPU_3_PIPE] |230|  ; [ORIG 16-BIT INS]
     467 000000ac D213              BCS       ||$C$L7||             ; [DPU_3_PIPE] |230|  ; [ORIG 16-BIT INS]
     468                            ; BRANCHCC OCCURS {||$C$L7||}    ; [] |230| 
     469                    ;* --------------------------------------------------------------------------*
     470                            .dwpsn  file "../Source/event_groups.c",line 233,column 4,is_stmt,isa 1
     471                    $C$DW$48        .dwtag  DW_TAG_TI_branch
     472                            .dwattr $C$DW$48, DW_AT_low_pc(0x00)
     473                            .dwattr $C$DW$48, DW_AT_name("vPortEnterCritical")
     474                            .dwattr $C$DW$48, DW_AT_TI_call
     475 000000ae FFFEF7FF!         BL        vPortEnterCritical    ; [DPU_3_PIPE] |233|  ; [KEEP 32-BIT INS]
     476                            ; CALL OCCURS {vPortEnterCritical }  ; [] |233| 
     477                            .dwpsn  file "../Source/event_groups.c",line 235,column 5,is_stmt,isa 1
     478 000000b2 9806              LDR       A1, [SP, #24]         ; [DPU_3_PIPE] |235|  ; [ORIG 16-BIT INS]
     479 000000b4 6800              LDR       A1, [A1, #0]          ; [DPU_3_PIPE] |235|  ; [ORIG 16-BIT INS]
     480 000000b6 9005              STR       A1, [SP, #20]         ; [DPU_3_PIPE] |235|  ; [ORIG 16-BIT INS]
     481                            .dwpsn  file "../Source/event_groups.c",line 241,column 5,is_stmt,isa 1
     482 000000b8 9802              LDR       A1, [SP, #8]          ; [DPU_3_PIPE] |241|  ; [ORIG 16-BIT INS]
     483 000000ba 9902              LDR       A2, [SP, #8]          ; [DPU_3_PIPE] |241|  ; [ORIG 16-BIT INS]
     484 000000bc 9A05              LDR       A3, [SP, #20]         ; [DPU_3_PIPE] |241|  ; [ORIG 16-BIT INS]
     485 000000be 4010              ANDS      A1, A1, A3            ; [DPU_3_PIPE] |241|  ; [ORIG 16-BIT INS]
     486 000000c0 4281              CMP       A2, A1                ; [DPU_3_PIPE] |241|  ; [ORIG 16-BIT INS]
     487 000000c2 D104              BNE       ||$C$L6||             ; [DPU_3_PIPE] |241|  ; [ORIG 16-BIT INS]
     488                            ; BRANCHCC OCCURS {||$C$L6||}    ; [] |241| 
     489                    ;* --------------------------------------------------------------------------*
     490                            .dwpsn  file "../Source/event_groups.c",line 243,column 6,is_stmt,isa 1
     491 000000c4 9906              LDR       A2, [SP, #24]         ; [DPU_3_PIPE] |243|  ; [ORIG 16-BIT INS]
     492 000000c6 9A02              LDR       A3, [SP, #8]          ; [DPU_3_PIPE] |243|  ; [ORIG 16-BIT INS]
     493 000000c8 6808              LDR       A1, [A2, #0]          ; [DPU_3_PIPE] |243|  ; [ORIG 16-BIT INS]
     494 000000ca 4390              BICS      A1, A1, A3            ; [DPU_3_PIPE] |243|  ; [ORIG 16-BIT INS]
     495 000000cc 6008              STR       A1, [A2, #0]          ; [DPU_3_PIPE] |243|  ; [ORIG 16-BIT INS]
TI ARM Assembler PC v5.1.7 Tue Sep 16 08:38:38 2014

Tools Copyright (c) 1996-2014 Texas Instruments Incorporated
event_groups.asm                                                     PAGE   10

     496                            .dwpsn  file "../Source/event_groups.c",line 244,column 5,is_stmt,isa 1
     497                    ;* --------------------------------------------------------------------------*
     498 000000ce           ||$C$L6||:    
     499                            .dwpsn  file "../Source/event_groups.c",line 250,column 4,is_stmt,isa 1
     500                    $C$DW$49        .dwtag  DW_TAG_TI_branch
     501                            .dwattr $C$DW$49, DW_AT_low_pc(0x00)
     502                            .dwattr $C$DW$49, DW_AT_name("vPortExitCritical")
     503                            .dwattr $C$DW$49, DW_AT_TI_call
     504 000000ce FFFEF7FF!         BL        vPortExitCritical     ; [DPU_3_PIPE] |250|  ; [KEEP 32-BIT INS]
     505                            ; CALL OCCURS {vPortExitCritical }  ; [] |250| 
     506                            .dwpsn  file "../Source/event_groups.c",line 252,column 4,is_stmt,isa 1
     507 000000d2 2001              MOVS      A1, #1                ; [DPU_3_PIPE] |252|  ; [ORIG 16-BIT INS]
     508 000000d4 9008              STR       A1, [SP, #32]         ; [DPU_3_PIPE] |252|  ; [ORIG 16-BIT INS]
     509                            .dwpsn  file "../Source/event_groups.c",line 253,column 3,is_stmt,isa 1
     510                    ;* --------------------------------------------------------------------------*
     511 000000d6           ||$C$L7||:    
     512                            .dwpsn  file "../Source/event_groups.c",line 261,column 3,is_stmt,isa 1
     513 000000d6 9805              LDR       A1, [SP, #20]         ; [DPU_3_PIPE] |261|  ; [ORIG 16-BIT INS]
     514 000000d8 407FF020          BIC       A1, A1, #-16777216    ; [DPU_3_PIPE] |261|  ; [KEEP 32-BIT INS]
     515 000000dc 9005              STR       A1, [SP, #20]         ; [DPU_3_PIPE] |261|  ; [ORIG 16-BIT INS]
     516                    ;* --------------------------------------------------------------------------*
     517 000000de           ||$C$L8||:    
     518                            .dwpsn  file "../Source/event_groups.c",line 264,column 2,is_stmt,isa 1
     519                            .dwpsn  file "../Source/event_groups.c",line 266,column 2,is_stmt,isa 1
     520 000000de 9805              LDR       A1, [SP, #20]         ; [DPU_3_PIPE] |266|  ; [ORIG 16-BIT INS]
     521                            .dwpsn  file "../Source/event_groups.c",line 267,column 1,is_stmt,isa 1
     522 000000e0 B009              ADD       SP, SP, #36           ; [DPU_3_PIPE]  ; [ORIG 16-BIT INS]
     523                            .dwcfi  cfa_offset, 4
     524                    $C$DW$50        .dwtag  DW_TAG_TI_branch
     525                            .dwattr $C$DW$50, DW_AT_low_pc(0x00)
     526                            .dwattr $C$DW$50, DW_AT_TI_return
     527 000000e2 BD00              POP       {PC}                  ; [DPU_3_PIPE]  ; [ORIG 16-BIT INS]
     528                            .dwcfi  cfa_offset, 0
     529                            ; BRANCH OCCURS                  ; [] 
     530                            .dwattr $C$DW$28, DW_AT_TI_end_file("../Source/event_groups.c")
     531                            .dwattr $C$DW$28, DW_AT_TI_end_line(0x10b)
     532                            .dwattr $C$DW$28, DW_AT_TI_end_column(0x01)
     533                            .dwendentry
     534                            .dwendtag $C$DW$28
     535                    
     536 000000e4                   .sect   ".text"
     537                            .clink
     538                            .thumbfunc xEventGroupWaitBits
     539 000000e4                   .thumb
     540                            .global xEventGroupWaitBits
     541                    
     542                    $C$DW$51        .dwtag  DW_TAG_subprogram, DW_AT_name("xEventGroupWaitBits")
     543                            .dwattr $C$DW$51, DW_AT_low_pc(xEventGroupWaitBits)
     544                            .dwattr $C$DW$51, DW_AT_high_pc(0x00)
     545                            .dwattr $C$DW$51, DW_AT_TI_symbol_name("xEventGroupWaitBits")
     546                            .dwattr $C$DW$51, DW_AT_external
     547                            .dwattr $C$DW$51, DW_AT_type(*$C$DW$T$25)
     548                            .dwattr $C$DW$51, DW_AT_TI_begin_file("../Source/event_groups.c")
     549                            .dwattr $C$DW$51, DW_AT_TI_begin_line(0x10e)
     550                            .dwattr $C$DW$51, DW_AT_TI_begin_column(0x0d)
TI ARM Assembler PC v5.1.7 Tue Sep 16 08:38:38 2014

Tools Copyright (c) 1996-2014 Texas Instruments Incorporated
event_groups.asm                                                     PAGE   11

     551                            .dwattr $C$DW$51, DW_AT_decl_file("../Source/event_groups.c")
     552                            .dwattr $C$DW$51, DW_AT_decl_line(0x10e)
     553                            .dwattr $C$DW$51, DW_AT_decl_column(0x0d)
     554                            .dwattr $C$DW$51, DW_AT_TI_max_frame_size(0x30)
     555                            .dwpsn  file "../Source/event_groups.c",line 271,column 1,is_stmt,address xEventGroupWaitBits,
     556                    
     557                            .dwfde $C$DW$CIE, xEventGroupWaitBits
     558                    $C$DW$52        .dwtag  DW_TAG_formal_parameter, DW_AT_name("xEventGroup")
     559                            .dwattr $C$DW$52, DW_AT_TI_symbol_name("xEventGroup")
     560                            .dwattr $C$DW$52, DW_AT_type(*$C$DW$T$62)
     561                            .dwattr $C$DW$52, DW_AT_location[DW_OP_reg0]
     562                    $C$DW$53        .dwtag  DW_TAG_formal_parameter, DW_AT_name("uxBitsToWaitFor")
     563                            .dwattr $C$DW$53, DW_AT_TI_symbol_name("uxBitsToWaitFor")
     564                            .dwattr $C$DW$53, DW_AT_type(*$C$DW$T$112)
     565                            .dwattr $C$DW$53, DW_AT_location[DW_OP_reg1]
     566                    $C$DW$54        .dwtag  DW_TAG_formal_parameter, DW_AT_name("xClearOnExit")
     567                            .dwattr $C$DW$54, DW_AT_TI_symbol_name("xClearOnExit")
     568                            .dwattr $C$DW$54, DW_AT_type(*$C$DW$T$107)
     569                            .dwattr $C$DW$54, DW_AT_location[DW_OP_reg2]
     570                    $C$DW$55        .dwtag  DW_TAG_formal_parameter, DW_AT_name("xWaitForAllBits")
     571                            .dwattr $C$DW$55, DW_AT_TI_symbol_name("xWaitForAllBits")
     572                            .dwattr $C$DW$55, DW_AT_type(*$C$DW$T$107)
     573                            .dwattr $C$DW$55, DW_AT_location[DW_OP_reg3]
     574                    $C$DW$56        .dwtag  DW_TAG_formal_parameter, DW_AT_name("xTicksToWait")
     575                            .dwattr $C$DW$56, DW_AT_TI_symbol_name("xTicksToWait")
     576                            .dwattr $C$DW$56, DW_AT_type(*$C$DW$T$24)
     577                            .dwattr $C$DW$56, DW_AT_location[DW_OP_breg13 48]
     578                    
     579                    ;*****************************************************************************
     580                    ;* FUNCTION NAME: xEventGroupWaitBits                                        *
     581                    ;*                                                                           *
     582                    ;*   Regs Modified     : A1,A2,A3,A4,V9,SP,LR,SR,D0,D0_hi,D1,D1_hi,D2,D2_hi, *
     583                    ;*                           D3,D3_hi,D4,D4_hi,D5,D5_hi,D6,D6_hi,D7,D7_hi,   *
     584                    ;*                           FPEXC,FPSCR                                     *
     585                    ;*   Regs Used         : A1,A2,A3,A4,V9,SP,LR,SR,D0,D0_hi,D1,D1_hi,D2,D2_hi, *
     586                    ;*                           D3,D3_hi,D4,D4_hi,D5,D5_hi,D6,D6_hi,D7,D7_hi,   *
     587                    ;*                           FPEXC,FPSCR                                     *
     588                    ;*   Local Frame Size  : 0 Args + 44 Auto + 4 Save = 48 byte                 *
     589                    ;*****************************************************************************
     590 000000e4           xEventGroupWaitBits:
     591                    ;* --------------------------------------------------------------------------*
     592                            .dwcfi  cfa_offset, 0
     593 000000e4 B500              PUSH      {LR}                  ; [DPU_3_PIPE]  ; [ORIG 16-BIT INS]
     594                            .dwcfi  cfa_offset, 4
     595                            .dwcfi  save_reg_to_mem, 14, -4
     596 000000e6 0D2CF1AD          SUB       SP, SP, #44           ; [DPU_3_PIPE]  ; [KEEP 32-BIT INS]
     597                            .dwcfi  cfa_offset, 48
     598                    $C$DW$57        .dwtag  DW_TAG_variable, DW_AT_name("xEventGroup")
     599                            .dwattr $C$DW$57, DW_AT_TI_symbol_name("xEventGroup")
     600                            .dwattr $C$DW$57, DW_AT_type(*$C$DW$T$62)
     601                            .dwattr $C$DW$57, DW_AT_location[DW_OP_breg13 0]
     602                    $C$DW$58        .dwtag  DW_TAG_variable, DW_AT_name("uxBitsToWaitFor")
     603                            .dwattr $C$DW$58, DW_AT_TI_symbol_name("uxBitsToWaitFor")
     604                            .dwattr $C$DW$58, DW_AT_type(*$C$DW$T$112)
     605                            .dwattr $C$DW$58, DW_AT_location[DW_OP_breg13 4]
TI ARM Assembler PC v5.1.7 Tue Sep 16 08:38:38 2014

Tools Copyright (c) 1996-2014 Texas Instruments Incorporated
event_groups.asm                                                     PAGE   12

     606                    $C$DW$59        .dwtag  DW_TAG_variable, DW_AT_name("xClearOnExit")
     607                            .dwattr $C$DW$59, DW_AT_TI_symbol_name("xClearOnExit")
     608                            .dwattr $C$DW$59, DW_AT_type(*$C$DW$T$107)
     609                            .dwattr $C$DW$59, DW_AT_location[DW_OP_breg13 8]
     610                    $C$DW$60        .dwtag  DW_TAG_variable, DW_AT_name("xWaitForAllBits")
     611                            .dwattr $C$DW$60, DW_AT_TI_symbol_name("xWaitForAllBits")
     612                            .dwattr $C$DW$60, DW_AT_type(*$C$DW$T$107)
     613                            .dwattr $C$DW$60, DW_AT_location[DW_OP_breg13 12]
     614                    $C$DW$61        .dwtag  DW_TAG_variable, DW_AT_name("pxEventBits")
     615                            .dwattr $C$DW$61, DW_AT_TI_symbol_name("pxEventBits")
     616                            .dwattr $C$DW$61, DW_AT_type(*$C$DW$T$163)
     617                            .dwattr $C$DW$61, DW_AT_location[DW_OP_breg13 16]
     618                    $C$DW$62        .dwtag  DW_TAG_variable, DW_AT_name("uxReturn")
     619                            .dwattr $C$DW$62, DW_AT_TI_symbol_name("uxReturn")
     620                            .dwattr $C$DW$62, DW_AT_type(*$C$DW$T$25)
     621                            .dwattr $C$DW$62, DW_AT_location[DW_OP_breg13 20]
     622                    $C$DW$63        .dwtag  DW_TAG_variable, DW_AT_name("uxControlBits")
     623                            .dwattr $C$DW$63, DW_AT_TI_symbol_name("uxControlBits")
     624                            .dwattr $C$DW$63, DW_AT_type(*$C$DW$T$25)
     625                            .dwattr $C$DW$63, DW_AT_location[DW_OP_breg13 24]
     626                    $C$DW$64        .dwtag  DW_TAG_variable, DW_AT_name("xWaitConditionMet")
     627                            .dwattr $C$DW$64, DW_AT_TI_symbol_name("xWaitConditionMet")
     628                            .dwattr $C$DW$64, DW_AT_type(*$C$DW$T$55)
     629                            .dwattr $C$DW$64, DW_AT_location[DW_OP_breg13 28]
     630                    $C$DW$65        .dwtag  DW_TAG_variable, DW_AT_name("xAlreadyYielded")
     631                            .dwattr $C$DW$65, DW_AT_TI_symbol_name("xAlreadyYielded")
     632                            .dwattr $C$DW$65, DW_AT_type(*$C$DW$T$55)
     633                            .dwattr $C$DW$65, DW_AT_location[DW_OP_breg13 32]
     634                    $C$DW$66        .dwtag  DW_TAG_variable, DW_AT_name("xTimeoutOccurred")
     635                            .dwattr $C$DW$66, DW_AT_TI_symbol_name("xTimeoutOccurred")
     636                            .dwattr $C$DW$66, DW_AT_type(*$C$DW$T$55)
     637                            .dwattr $C$DW$66, DW_AT_location[DW_OP_breg13 36]
     638 000000ea 9303              STR       A4, [SP, #12]         ; [DPU_3_PIPE] |271|  ; [ORIG 16-BIT INS]
     639 000000ec 9202              STR       A3, [SP, #8]          ; [DPU_3_PIPE] |271|  ; [ORIG 16-BIT INS]
     640 000000ee 9101              STR       A2, [SP, #4]          ; [DPU_3_PIPE] |271|  ; [ORIG 16-BIT INS]
     641 000000f0 9000              STR       A1, [SP, #0]          ; [DPU_3_PIPE] |271|  ; [ORIG 16-BIT INS]
     642                            .dwpsn  file "../Source/event_groups.c",line 272,column 27,is_stmt,isa 1
     643 000000f2 9800              LDR       A1, [SP, #0]          ; [DPU_3_PIPE] |272|  ; [ORIG 16-BIT INS]
     644 000000f4 9004              STR       A1, [SP, #16]         ; [DPU_3_PIPE] |272|  ; [ORIG 16-BIT INS]
     645                            .dwpsn  file "../Source/event_groups.c",line 273,column 37,is_stmt,isa 1
     646 000000f6 2000              MOVS      A1, #0                ; [DPU_3_PIPE] |273|  ; [ORIG 16-BIT INS]
     647 000000f8 9006              STR       A1, [SP, #24]         ; [DPU_3_PIPE] |273|  ; [ORIG 16-BIT INS]
     648                            .dwpsn  file "../Source/event_groups.c",line 275,column 29,is_stmt,isa 1
     649 000000fa 2000              MOVS      A1, #0                ; [DPU_3_PIPE] |275|  ; [ORIG 16-BIT INS]
     650 000000fc 9009              STR       A1, [SP, #36]         ; [DPU_3_PIPE] |275|  ; [ORIG 16-BIT INS]
     651                            .dwpsn  file "../Source/event_groups.c",line 287,column 2,is_stmt,isa 1
     652                    $C$DW$67        .dwtag  DW_TAG_TI_branch
     653                            .dwattr $C$DW$67, DW_AT_low_pc(0x00)
     654                            .dwattr $C$DW$67, DW_AT_name("vTaskSuspendAll")
     655                            .dwattr $C$DW$67, DW_AT_TI_call
     656 000000fe FFFEF7FF!         BL        vTaskSuspendAll       ; [DPU_3_PIPE] |287|  ; [KEEP 32-BIT INS]
     657                            ; CALL OCCURS {vTaskSuspendAll }  ; [] |287| 
     658                    
     659                    $C$DW$68        .dwtag  DW_TAG_lexical_block, DW_AT_low_pc(0x00), DW_AT_high_pc(0x00)
     660                    $C$DW$69        .dwtag  DW_TAG_variable, DW_AT_name("uxCurrentEventBits")
TI ARM Assembler PC v5.1.7 Tue Sep 16 08:38:38 2014

Tools Copyright (c) 1996-2014 Texas Instruments Incorporated
event_groups.asm                                                     PAGE   13

     661                            .dwattr $C$DW$69, DW_AT_TI_symbol_name("uxCurrentEventBits")
     662                            .dwattr $C$DW$69, DW_AT_type(*$C$DW$T$112)
     663                            .dwattr $C$DW$69, DW_AT_location[DW_OP_breg13 40]
     664                            .dwpsn  file "../Source/event_groups.c",line 289,column 40,is_stmt,isa 1
     665 00000102 9804              LDR       A1, [SP, #16]         ; [DPU_3_PIPE] |289|  ; [ORIG 16-BIT INS]
     666 00000104 6800              LDR       A1, [A1, #0]          ; [DPU_3_PIPE] |289|  ; [ORIG 16-BIT INS]
     667 00000106 900A              STR       A1, [SP, #40]         ; [DPU_3_PIPE] |289|  ; [ORIG 16-BIT INS]
     668                            .dwpsn  file "../Source/event_groups.c",line 292,column 3,is_stmt,isa 1
     669 00000108 9901              LDR       A2, [SP, #4]          ; [DPU_3_PIPE] |292|  ; [ORIG 16-BIT INS]
     670 0000010a 9A03              LDR       A3, [SP, #12]         ; [DPU_3_PIPE] |292|  ; [ORIG 16-BIT INS]
     671 0000010c 980A              LDR       A1, [SP, #40]         ; [DPU_3_PIPE] |292|  ; [ORIG 16-BIT INS]
     672                    $C$DW$70        .dwtag  DW_TAG_TI_branch
     673                            .dwattr $C$DW$70, DW_AT_low_pc(0x00)
     674                            .dwattr $C$DW$70, DW_AT_name("prvTestWaitCondition")
     675                            .dwattr $C$DW$70, DW_AT_TI_call
     676 0000010e F90EF000          BL        prvTestWaitCondition  ; [DPU_3_PIPE] |292|  ; [KEEP 32-BIT INS]
     677                            ; CALL OCCURS {prvTestWaitCondition }  ; [] |292| 
     678 00000112 9007              STR       A1, [SP, #28]         ; [DPU_3_PIPE] |292|  ; [ORIG 16-BIT INS]
     679                            .dwpsn  file "../Source/event_groups.c",line 294,column 3,is_stmt,isa 1
     680 00000114 9807              LDR       A1, [SP, #28]         ; [DPU_3_PIPE] |294|  ; [ORIG 16-BIT INS]
     681 00000116 B158              CBZ       A1, ||$C$L9||         ; []  ; [ORIG 16-BIT INS]
     682                            ; BRANCHCC OCCURS {||$C$L9||}    ; [] |294| 
     683                    ;* --------------------------------------------------------------------------*
     684                            .dwpsn  file "../Source/event_groups.c",line 298,column 4,is_stmt,isa 1
     685 00000118 980A              LDR       A1, [SP, #40]         ; [DPU_3_PIPE] |298|  ; [ORIG 16-BIT INS]
     686 0000011a 9005              STR       A1, [SP, #20]         ; [DPU_3_PIPE] |298|  ; [ORIG 16-BIT INS]
     687                            .dwpsn  file "../Source/event_groups.c",line 299,column 4,is_stmt,isa 1
     688 0000011c 2000              MOVS      A1, #0                ; [DPU_3_PIPE] |299|  ; [ORIG 16-BIT INS]
     689 0000011e 900C              STR       A1, [SP, #48]         ; [DPU_3_PIPE] |299|  ; [ORIG 16-BIT INS]
     690                            .dwpsn  file "../Source/event_groups.c",line 302,column 4,is_stmt,isa 1
     691 00000120 9802              LDR       A1, [SP, #8]          ; [DPU_3_PIPE] |302|  ; [ORIG 16-BIT INS]
     692 00000122 B300              CBZ       A1, ||$C$L13||        ; []  ; [ORIG 16-BIT INS]
     693                            ; BRANCHCC OCCURS {||$C$L13||}   ; [] |302| 
     694                    ;* --------------------------------------------------------------------------*
     695                            .dwpsn  file "../Source/event_groups.c",line 304,column 5,is_stmt,isa 1
     696 00000124 9904              LDR       A2, [SP, #16]         ; [DPU_3_PIPE] |304|  ; [ORIG 16-BIT INS]
     697 00000126 9A01              LDR       A3, [SP, #4]          ; [DPU_3_PIPE] |304|  ; [ORIG 16-BIT INS]
     698 00000128 6808              LDR       A1, [A2, #0]          ; [DPU_3_PIPE] |304|  ; [ORIG 16-BIT INS]
     699 0000012a 4390              BICS      A1, A1, A3            ; [DPU_3_PIPE] |304|  ; [ORIG 16-BIT INS]
     700 0000012c 6008              STR       A1, [A2, #0]          ; [DPU_3_PIPE] |304|  ; [ORIG 16-BIT INS]
     701                            .dwpsn  file "../Source/event_groups.c",line 305,column 4,is_stmt,isa 1
     702 0000012e E01A              B         ||$C$L13||            ; [DPU_3_PIPE] |305|  ; [ORIG 16-BIT INS]
     703                            ; BRANCH OCCURS {||$C$L13||}     ; [] |305| 
     704                    ;* --------------------------------------------------------------------------*
     705                    ;* --------------------------------------------------------------------------*
     706 00000130           ||$C$L9||:    
     707                            .dwpsn  file "../Source/event_groups.c",line 311,column 8,is_stmt,isa 1
     708 00000130 980C              LDR       A1, [SP, #48]         ; [DPU_3_PIPE] |311|  ; [ORIG 16-BIT INS]
     709 00000132 B910              CBNZ      A1, ||$C$L10||        ; []  ; [ORIG 16-BIT INS]
     710                            ; BRANCHCC OCCURS {||$C$L10||}   ; [] |311| 
     711                    ;* --------------------------------------------------------------------------*
     712                            .dwpsn  file "../Source/event_groups.c",line 315,column 4,is_stmt,isa 1
     713 00000134 980A              LDR       A1, [SP, #40]         ; [DPU_3_PIPE] |315|  ; [ORIG 16-BIT INS]
     714 00000136 9005              STR       A1, [SP, #20]         ; [DPU_3_PIPE] |315|  ; [ORIG 16-BIT INS]
     715                            .dwpsn  file "../Source/event_groups.c",line 316,column 3,is_stmt,isa 1
TI ARM Assembler PC v5.1.7 Tue Sep 16 08:38:38 2014

Tools Copyright (c) 1996-2014 Texas Instruments Incorporated
event_groups.asm                                                     PAGE   14

     716 00000138 E015              B         ||$C$L13||            ; [DPU_3_PIPE] |316|  ; [ORIG 16-BIT INS]
     717                            ; BRANCH OCCURS {||$C$L13||}     ; [] |316| 
     718                    ;* --------------------------------------------------------------------------*
     719 0000013a           ||$C$L10||:    
     720                            .dwpsn  file "../Source/event_groups.c",line 323,column 4,is_stmt,isa 1
     721 0000013a 9802              LDR       A1, [SP, #8]          ; [DPU_3_PIPE] |323|  ; [ORIG 16-BIT INS]
     722 0000013c B118              CBZ       A1, ||$C$L11||        ; []  ; [ORIG 16-BIT INS]
     723                            ; BRANCHCC OCCURS {||$C$L11||}   ; [] |323| 
     724                    ;* --------------------------------------------------------------------------*
     725                            .dwpsn  file "../Source/event_groups.c",line 325,column 5,is_stmt,isa 1
     726 0000013e 9806              LDR       A1, [SP, #24]         ; [DPU_3_PIPE] |325|  ; [ORIG 16-BIT INS]
     727 00000140 7080F040          ORR       A1, A1, #16777216     ; [DPU_3_PIPE] |325|  ; [KEEP 32-BIT INS]
     728 00000144 9006              STR       A1, [SP, #24]         ; [DPU_3_PIPE] |325|  ; [ORIG 16-BIT INS]
     729                            .dwpsn  file "../Source/event_groups.c",line 326,column 4,is_stmt,isa 1
     730                    ;* --------------------------------------------------------------------------*
     731 00000146           ||$C$L11||:    
     732                            .dwpsn  file "../Source/event_groups.c",line 332,column 4,is_stmt,isa 1
     733 00000146 9803              LDR       A1, [SP, #12]         ; [DPU_3_PIPE] |332|  ; [ORIG 16-BIT INS]
     734 00000148 B118              CBZ       A1, ||$C$L12||        ; []  ; [ORIG 16-BIT INS]
     735                            ; BRANCHCC OCCURS {||$C$L12||}   ; [] |332| 
     736                    ;* --------------------------------------------------------------------------*
     737                            .dwpsn  file "../Source/event_groups.c",line 334,column 5,is_stmt,isa 1
     738 0000014a 9806              LDR       A1, [SP, #24]         ; [DPU_3_PIPE] |334|  ; [ORIG 16-BIT INS]
     739 0000014c 6080F040          ORR       A1, A1, #67108864     ; [DPU_3_PIPE] |334|  ; [KEEP 32-BIT INS]
     740 00000150 9006              STR       A1, [SP, #24]         ; [DPU_3_PIPE] |334|  ; [ORIG 16-BIT INS]
     741                            .dwpsn  file "../Source/event_groups.c",line 335,column 4,is_stmt,isa 1
     742                    ;* --------------------------------------------------------------------------*
     743 00000152           ||$C$L12||:    
     744                            .dwpsn  file "../Source/event_groups.c",line 344,column 4,is_stmt,isa 1
     745 00000152 9A01              LDR       A3, [SP, #4]          ; [DPU_3_PIPE] |344|  ; [ORIG 16-BIT INS]
     746 00000154 9906              LDR       A2, [SP, #24]         ; [DPU_3_PIPE] |344|  ; [ORIG 16-BIT INS]
     747 00000156 9804              LDR       A1, [SP, #16]         ; [DPU_3_PIPE] |344|  ; [ORIG 16-BIT INS]
     748 00000158 4311              ORRS      A2, A2, A3            ; [DPU_3_PIPE] |344|  ; [ORIG 16-BIT INS]
     749 0000015a 9A0C              LDR       A3, [SP, #48]         ; [DPU_3_PIPE] |344|  ; [ORIG 16-BIT INS]
     750 0000015c 1D00              ADDS      A1, A1, #4            ; [DPU_3_PIPE] |344|  ; [ORIG 16-BIT INS]
     751                    $C$DW$71        .dwtag  DW_TAG_TI_branch
     752                            .dwattr $C$DW$71, DW_AT_low_pc(0x00)
     753                            .dwattr $C$DW$71, DW_AT_name("vTaskPlaceOnUnorderedEventList")
     754                            .dwattr $C$DW$71, DW_AT_TI_call
     755 0000015e FFFEF7FF!         BL        vTaskPlaceOnUnorderedEventList ; [DPU_3_PIPE] |344|  ; [KEEP 32-BIT INS]
     756                            ; CALL OCCURS {vTaskPlaceOnUnorderedEventList }  ; [] |344| 
     757                            .dwpsn  file "../Source/event_groups.c",line 349,column 4,is_stmt,isa 1
     758 00000162 2000              MOVS      A1, #0                ; [DPU_3_PIPE] |349|  ; [ORIG 16-BIT INS]
     759 00000164 9005              STR       A1, [SP, #20]         ; [DPU_3_PIPE] |349|  ; [ORIG 16-BIT INS]
     760                    ;* --------------------------------------------------------------------------*
     761                    ||$C$L13||:    
     762                            .dwendtag $C$DW$68
     763                    
     764                            .dwpsn  file "../Source/event_groups.c",line 354,column 2,is_stmt,isa 1
     765                    $C$DW$72        .dwtag  DW_TAG_TI_branch
     766                            .dwattr $C$DW$72, DW_AT_low_pc(0x00)
     767                            .dwattr $C$DW$72, DW_AT_name("xTaskResumeAll")
     768                            .dwattr $C$DW$72, DW_AT_TI_call
     769 00000166 FFFEF7FF!         BL        xTaskResumeAll        ; [DPU_3_PIPE] |354|  ; [KEEP 32-BIT INS]
     770                            ; CALL OCCURS {xTaskResumeAll }  ; [] |354| 
TI ARM Assembler PC v5.1.7 Tue Sep 16 08:38:38 2014

Tools Copyright (c) 1996-2014 Texas Instruments Incorporated
event_groups.asm                                                     PAGE   15

     771 0000016a 9008              STR       A1, [SP, #32]         ; [DPU_3_PIPE] |354|  ; [ORIG 16-BIT INS]
     772                            .dwpsn  file "../Source/event_groups.c",line 356,column 2,is_stmt,isa 1
     773 0000016c 980C              LDR       A1, [SP, #48]         ; [DPU_3_PIPE] |356|  ; [ORIG 16-BIT INS]
     774 0000016e 2800              CMP       A1, #0                ; [DPU_3_PIPE] |356|  ; [ORIG 16-BIT INS]
     775 00000170 D024              BEQ       ||$C$L17||            ; [DPU_3_PIPE] |356|  ; [ORIG 16-BIT INS]
     776                            ; BRANCHCC OCCURS {||$C$L17||}   ; [] |356| 
     777                    ;* --------------------------------------------------------------------------*
     778                            .dwpsn  file "../Source/event_groups.c",line 358,column 3,is_stmt,isa 1
     779 00000172 9808              LDR       A1, [SP, #32]         ; [DPU_3_PIPE] |358|  ; [ORIG 16-BIT INS]
     780 00000174 B908              CBNZ      A1, ||$C$L14||        ; []  ; [ORIG 16-BIT INS]
     781                            ; BRANCHCC OCCURS {||$C$L14||}   ; [] |358| 
     782                    ;* --------------------------------------------------------------------------*
     783                            .dwpsn  file "../Source/event_groups.c",line 360,column 4,is_stmt,isa 1
     784                    $C$DW$73        .dwtag  DW_TAG_TI_branch
     785                            .dwattr $C$DW$73, DW_AT_low_pc(0x00)
     786                            .dwattr $C$DW$73, DW_AT_name("vPortYieldFromISR")
     787                            .dwattr $C$DW$73, DW_AT_TI_call
     788 00000176 FFFEF7FF!         BL        vPortYieldFromISR     ; [DPU_3_PIPE] |360|  ; [KEEP 32-BIT INS]
     789                            ; CALL OCCURS {vPortYieldFromISR }  ; [] |360| 
     790                            .dwpsn  file "../Source/event_groups.c",line 361,column 3,is_stmt,isa 1
     791                    ;* --------------------------------------------------------------------------*
     792 0000017a           ||$C$L14||:    
     793                            .dwpsn  file "../Source/event_groups.c",line 371,column 3,is_stmt,isa 1
     794                    $C$DW$74        .dwtag  DW_TAG_TI_branch
     795                            .dwattr $C$DW$74, DW_AT_low_pc(0x00)
     796                            .dwattr $C$DW$74, DW_AT_name("uxTaskResetEventItemValue")
     797                            .dwattr $C$DW$74, DW_AT_TI_call
     798 0000017a FFFEF7FF!         BL        uxTaskResetEventItemValue ; [DPU_3_PIPE] |371|  ; [KEEP 32-BIT INS]
     799                            ; CALL OCCURS {uxTaskResetEventItemValue }  ; [] |371| 
     800 0000017e 9005              STR       A1, [SP, #20]         ; [DPU_3_PIPE] |371|  ; [ORIG 16-BIT INS]
     801                            .dwpsn  file "../Source/event_groups.c",line 373,column 3,is_stmt,isa 1
     802 00000180 9805              LDR       A1, [SP, #20]         ; [DPU_3_PIPE] |373|  ; [ORIG 16-BIT INS]
     803 00000182 0E80              LSRS      A1, A1, #26           ; [DPU_3_PIPE] |373|  ; [ORIG 16-BIT INS]
     804 00000184 D216              BCS       ||$C$L16||            ; [DPU_3_PIPE] |373|  ; [ORIG 16-BIT INS]
     805                            ; BRANCHCC OCCURS {||$C$L16||}   ; [] |373| 
     806                    ;* --------------------------------------------------------------------------*
     807                            .dwpsn  file "../Source/event_groups.c",line 375,column 4,is_stmt,isa 1
     808                    $C$DW$75        .dwtag  DW_TAG_TI_branch
     809                            .dwattr $C$DW$75, DW_AT_low_pc(0x00)
     810                            .dwattr $C$DW$75, DW_AT_name("vPortEnterCritical")
     811                            .dwattr $C$DW$75, DW_AT_TI_call
     812 00000186 FFFEF7FF!         BL        vPortEnterCritical    ; [DPU_3_PIPE] |375|  ; [KEEP 32-BIT INS]
     813                            ; CALL OCCURS {vPortEnterCritical }  ; [] |375| 
     814                            .dwpsn  file "../Source/event_groups.c",line 378,column 5,is_stmt,isa 1
     815 0000018a 9804              LDR       A1, [SP, #16]         ; [DPU_3_PIPE] |378|  ; [ORIG 16-BIT INS]
     816 0000018c 6800              LDR       A1, [A1, #0]          ; [DPU_3_PIPE] |378|  ; [ORIG 16-BIT INS]
     817 0000018e 9005              STR       A1, [SP, #20]         ; [DPU_3_PIPE] |378|  ; [ORIG 16-BIT INS]
     818                            .dwpsn  file "../Source/event_groups.c",line 382,column 5,is_stmt,isa 1
     819 00000190 9901              LDR       A2, [SP, #4]          ; [DPU_3_PIPE] |382|  ; [ORIG 16-BIT INS]
     820 00000192 9A03              LDR       A3, [SP, #12]         ; [DPU_3_PIPE] |382|  ; [ORIG 16-BIT INS]
     821 00000194 9805              LDR       A1, [SP, #20]         ; [DPU_3_PIPE] |382|  ; [ORIG 16-BIT INS]
     822                    $C$DW$76        .dwtag  DW_TAG_TI_branch
     823                            .dwattr $C$DW$76, DW_AT_low_pc(0x00)
     824                            .dwattr $C$DW$76, DW_AT_name("prvTestWaitCondition")
     825                            .dwattr $C$DW$76, DW_AT_TI_call
TI ARM Assembler PC v5.1.7 Tue Sep 16 08:38:38 2014

Tools Copyright (c) 1996-2014 Texas Instruments Incorporated
event_groups.asm                                                     PAGE   16

     826 00000196 F8CAF000          BL        prvTestWaitCondition  ; [DPU_3_PIPE] |382|  ; [KEEP 32-BIT INS]
     827                            ; CALL OCCURS {prvTestWaitCondition }  ; [] |382| 
     828 0000019a B138              CBZ       A1, ||$C$L15||        ; []  ; [ORIG 16-BIT INS]
     829                            ; BRANCHCC OCCURS {||$C$L15||}   ; [] |382| 
     830                    ;* --------------------------------------------------------------------------*
     831                            .dwpsn  file "../Source/event_groups.c",line 384,column 6,is_stmt,isa 1
     832 0000019c 9802              LDR       A1, [SP, #8]          ; [DPU_3_PIPE] |384|  ; [ORIG 16-BIT INS]
     833 0000019e B128              CBZ       A1, ||$C$L15||        ; []  ; [ORIG 16-BIT INS]
     834                            ; BRANCHCC OCCURS {||$C$L15||}   ; [] |384| 
     835                    ;* --------------------------------------------------------------------------*
     836                            .dwpsn  file "../Source/event_groups.c",line 386,column 7,is_stmt,isa 1
     837 000001a0 9904              LDR       A2, [SP, #16]         ; [DPU_3_PIPE] |386|  ; [ORIG 16-BIT INS]
     838 000001a2 9A01              LDR       A3, [SP, #4]          ; [DPU_3_PIPE] |386|  ; [ORIG 16-BIT INS]
     839 000001a4 6808              LDR       A1, [A2, #0]          ; [DPU_3_PIPE] |386|  ; [ORIG 16-BIT INS]
     840 000001a6 4390              BICS      A1, A1, A3            ; [DPU_3_PIPE] |386|  ; [ORIG 16-BIT INS]
     841 000001a8 6008              STR       A1, [A2, #0]          ; [DPU_3_PIPE] |386|  ; [ORIG 16-BIT INS]
     842                            .dwpsn  file "../Source/event_groups.c",line 387,column 6,is_stmt,isa 1
     843 000001aa E7FF              B         ||$C$L15||            ; [DPU_3_PIPE] |387|  ; [ORIG 16-BIT INS]
     844                            ; BRANCH OCCURS {||$C$L15||}     ; [] |387| 
     845                    ;* --------------------------------------------------------------------------*
     846                    ;* --------------------------------------------------------------------------*
     847 000001ac           ||$C$L15||:    
     848                            .dwpsn  file "../Source/event_groups.c",line 398,column 4,is_stmt,isa 1
     849                    $C$DW$77        .dwtag  DW_TAG_TI_branch
     850                            .dwattr $C$DW$77, DW_AT_low_pc(0x00)
     851                            .dwattr $C$DW$77, DW_AT_name("vPortExitCritical")
     852                            .dwattr $C$DW$77, DW_AT_TI_call
     853 000001ac FFFEF7FF!         BL        vPortExitCritical     ; [DPU_3_PIPE] |398|  ; [KEEP 32-BIT INS]
     854                            ; CALL OCCURS {vPortExitCritical }  ; [] |398| 
     855                            .dwpsn  file "../Source/event_groups.c",line 401,column 4,is_stmt,isa 1
     856 000001b0 2000              MOVS      A1, #0                ; [DPU_3_PIPE] |401|  ; [ORIG 16-BIT INS]
     857 000001b2 9009              STR       A1, [SP, #36]         ; [DPU_3_PIPE] |401|  ; [ORIG 16-BIT INS]
     858                            .dwpsn  file "../Source/event_groups.c",line 402,column 3,is_stmt,isa 1
     859                    ;* --------------------------------------------------------------------------*
     860 000001b4           ||$C$L16||:    
     861                            .dwpsn  file "../Source/event_groups.c",line 409,column 3,is_stmt,isa 1
     862 000001b4 9805              LDR       A1, [SP, #20]         ; [DPU_3_PIPE] |409|  ; [ORIG 16-BIT INS]
     863 000001b6 407FF020          BIC       A1, A1, #-16777216    ; [DPU_3_PIPE] |409|  ; [KEEP 32-BIT INS]
     864 000001ba 9005              STR       A1, [SP, #20]         ; [DPU_3_PIPE] |409|  ; [ORIG 16-BIT INS]
     865                    ;* --------------------------------------------------------------------------*
     866 000001bc           ||$C$L17||:    
     867                            .dwpsn  file "../Source/event_groups.c",line 411,column 2,is_stmt,isa 1
     868                            .dwpsn  file "../Source/event_groups.c",line 413,column 2,is_stmt,isa 1
     869 000001bc 9805              LDR       A1, [SP, #20]         ; [DPU_3_PIPE] |413|  ; [ORIG 16-BIT INS]
     870                            .dwpsn  file "../Source/event_groups.c",line 414,column 1,is_stmt,isa 1
     871 000001be B00B              ADD       SP, SP, #44           ; [DPU_3_PIPE]  ; [ORIG 16-BIT INS]
     872                            .dwcfi  cfa_offset, 4
     873                    $C$DW$78        .dwtag  DW_TAG_TI_branch
     874                            .dwattr $C$DW$78, DW_AT_low_pc(0x00)
     875                            .dwattr $C$DW$78, DW_AT_TI_return
     876 000001c0 BD00              POP       {PC}                  ; [DPU_3_PIPE]  ; [ORIG 16-BIT INS]
     877                            .dwcfi  cfa_offset, 0
     878                            ; BRANCH OCCURS                  ; [] 
     879                            .dwattr $C$DW$51, DW_AT_TI_end_file("../Source/event_groups.c")
     880                            .dwattr $C$DW$51, DW_AT_TI_end_line(0x19e)
TI ARM Assembler PC v5.1.7 Tue Sep 16 08:38:38 2014

Tools Copyright (c) 1996-2014 Texas Instruments Incorporated
event_groups.asm                                                     PAGE   17

     881                            .dwattr $C$DW$51, DW_AT_TI_end_column(0x01)
     882                            .dwendentry
     883                            .dwendtag $C$DW$51
     884                    
     885 000001c2                   .sect   ".text"
     886                            .clink
     887                            .thumbfunc xEventGroupClearBits
     888 000001c2                   .thumb
     889                            .global xEventGroupClearBits
     890                    
     891                    $C$DW$79        .dwtag  DW_TAG_subprogram, DW_AT_name("xEventGroupClearBits")
     892                            .dwattr $C$DW$79, DW_AT_low_pc(xEventGroupClearBits)
     893                            .dwattr $C$DW$79, DW_AT_high_pc(0x00)
     894                            .dwattr $C$DW$79, DW_AT_TI_symbol_name("xEventGroupClearBits")
     895                            .dwattr $C$DW$79, DW_AT_external
     896                            .dwattr $C$DW$79, DW_AT_type(*$C$DW$T$25)
     897                            .dwattr $C$DW$79, DW_AT_TI_begin_file("../Source/event_groups.c")
     898                            .dwattr $C$DW$79, DW_AT_TI_begin_line(0x1a1)
     899                            .dwattr $C$DW$79, DW_AT_TI_begin_column(0x0d)
     900                            .dwattr $C$DW$79, DW_AT_decl_file("../Source/event_groups.c")
     901                            .dwattr $C$DW$79, DW_AT_decl_line(0x1a1)
     902                            .dwattr $C$DW$79, DW_AT_decl_column(0x0d)
     903                            .dwattr $C$DW$79, DW_AT_TI_max_frame_size(0x18)
     904                            .dwpsn  file "../Source/event_groups.c",line 418,column 1,is_stmt,address xEventGroupClearBits
     905                    
     906                            .dwfde $C$DW$CIE, xEventGroupClearBits
     907                    $C$DW$80        .dwtag  DW_TAG_formal_parameter, DW_AT_name("xEventGroup")
     908                            .dwattr $C$DW$80, DW_AT_TI_symbol_name("xEventGroup")
     909                            .dwattr $C$DW$80, DW_AT_type(*$C$DW$T$62)
     910                            .dwattr $C$DW$80, DW_AT_location[DW_OP_reg0]
     911                    $C$DW$81        .dwtag  DW_TAG_formal_parameter, DW_AT_name("uxBitsToClear")
     912                            .dwattr $C$DW$81, DW_AT_TI_symbol_name("uxBitsToClear")
     913                            .dwattr $C$DW$81, DW_AT_type(*$C$DW$T$112)
     914                            .dwattr $C$DW$81, DW_AT_location[DW_OP_reg1]
     915                    
     916                    ;*****************************************************************************
     917                    ;* FUNCTION NAME: xEventGroupClearBits                                       *
     918                    ;*                                                                           *
     919                    ;*   Regs Modified     : A1,A2,A3,A4,V9,SP,LR,SR,D0,D0_hi,D1,D1_hi,D2,D2_hi, *
     920                    ;*                           D3,D3_hi,D4,D4_hi,D5,D5_hi,D6,D6_hi,D7,D7_hi,   *
     921                    ;*                           FPEXC,FPSCR                                     *
     922                    ;*   Regs Used         : A1,A2,A3,A4,V9,SP,LR,SR,D0,D0_hi,D1,D1_hi,D2,D2_hi, *
     923                    ;*                           D3,D3_hi,D4,D4_hi,D5,D5_hi,D6,D6_hi,D7,D7_hi,   *
     924                    ;*                           FPEXC,FPSCR                                     *
     925                    ;*   Local Frame Size  : 0 Args + 16 Auto + 4 Save = 20 byte                 *
     926                    ;*****************************************************************************
     927 000001c2           xEventGroupClearBits:
     928                    ;* --------------------------------------------------------------------------*
     929                            .dwcfi  cfa_offset, 0
     930 000001c2 B500              PUSH      {LR}                  ; [DPU_3_PIPE]  ; [ORIG 16-BIT INS]
     931                            .dwcfi  cfa_offset, 4
     932                            .dwcfi  save_reg_to_mem, 14, -4
     933 000001c4 0D14F1AD          SUB       SP, SP, #20           ; [DPU_3_PIPE]  ; [KEEP 32-BIT INS]
     934                            .dwcfi  cfa_offset, 24
     935                    $C$DW$82        .dwtag  DW_TAG_variable, DW_AT_name("xEventGroup")
TI ARM Assembler PC v5.1.7 Tue Sep 16 08:38:38 2014

Tools Copyright (c) 1996-2014 Texas Instruments Incorporated
event_groups.asm                                                     PAGE   18

     936                            .dwattr $C$DW$82, DW_AT_TI_symbol_name("xEventGroup")
     937                            .dwattr $C$DW$82, DW_AT_type(*$C$DW$T$62)
     938                            .dwattr $C$DW$82, DW_AT_location[DW_OP_breg13 0]
     939                    $C$DW$83        .dwtag  DW_TAG_variable, DW_AT_name("uxBitsToClear")
     940                            .dwattr $C$DW$83, DW_AT_TI_symbol_name("uxBitsToClear")
     941                            .dwattr $C$DW$83, DW_AT_type(*$C$DW$T$112)
     942                            .dwattr $C$DW$83, DW_AT_location[DW_OP_breg13 4]
     943                    $C$DW$84        .dwtag  DW_TAG_variable, DW_AT_name("pxEventBits")
     944                            .dwattr $C$DW$84, DW_AT_TI_symbol_name("pxEventBits")
     945                            .dwattr $C$DW$84, DW_AT_type(*$C$DW$T$163)
     946                            .dwattr $C$DW$84, DW_AT_location[DW_OP_breg13 8]
     947                    $C$DW$85        .dwtag  DW_TAG_variable, DW_AT_name("uxReturn")
     948                            .dwattr $C$DW$85, DW_AT_TI_symbol_name("uxReturn")
     949                            .dwattr $C$DW$85, DW_AT_type(*$C$DW$T$25)
     950                            .dwattr $C$DW$85, DW_AT_location[DW_OP_breg13 12]
     951 000001c8 9101              STR       A2, [SP, #4]          ; [DPU_3_PIPE] |418|  ; [ORIG 16-BIT INS]
     952 000001ca 9000              STR       A1, [SP, #0]          ; [DPU_3_PIPE] |418|  ; [ORIG 16-BIT INS]
     953                            .dwpsn  file "../Source/event_groups.c",line 419,column 27,is_stmt,isa 1
     954 000001cc 9800              LDR       A1, [SP, #0]          ; [DPU_3_PIPE] |419|  ; [ORIG 16-BIT INS]
     955 000001ce 9002              STR       A1, [SP, #8]          ; [DPU_3_PIPE] |419|  ; [ORIG 16-BIT INS]
     956                            .dwpsn  file "../Source/event_groups.c",line 426,column 2,is_stmt,isa 1
     957                    $C$DW$86        .dwtag  DW_TAG_TI_branch
     958                            .dwattr $C$DW$86, DW_AT_low_pc(0x00)
     959                            .dwattr $C$DW$86, DW_AT_name("vPortEnterCritical")
     960                            .dwattr $C$DW$86, DW_AT_TI_call
     961 000001d0 FFFEF7FF!         BL        vPortEnterCritical    ; [DPU_3_PIPE] |426|  ; [KEEP 32-BIT INS]
     962                            ; CALL OCCURS {vPortEnterCritical }  ; [] |426| 
     963                            .dwpsn  file "../Source/event_groups.c",line 432,column 3,is_stmt,isa 1
     964 000001d4 9802              LDR       A1, [SP, #8]          ; [DPU_3_PIPE] |432|  ; [ORIG 16-BIT INS]
     965 000001d6 6800              LDR       A1, [A1, #0]          ; [DPU_3_PIPE] |432|  ; [ORIG 16-BIT INS]
     966 000001d8 9003              STR       A1, [SP, #12]         ; [DPU_3_PIPE] |432|  ; [ORIG 16-BIT INS]
     967                            .dwpsn  file "../Source/event_groups.c",line 435,column 3,is_stmt,isa 1
     968 000001da 9902              LDR       A2, [SP, #8]          ; [DPU_3_PIPE] |435|  ; [ORIG 16-BIT INS]
     969 000001dc 9A01              LDR       A3, [SP, #4]          ; [DPU_3_PIPE] |435|  ; [ORIG 16-BIT INS]
     970 000001de 6808              LDR       A1, [A2, #0]          ; [DPU_3_PIPE] |435|  ; [ORIG 16-BIT INS]
     971 000001e0 4390              BICS      A1, A1, A3            ; [DPU_3_PIPE] |435|  ; [ORIG 16-BIT INS]
     972 000001e2 6008              STR       A1, [A2, #0]          ; [DPU_3_PIPE] |435|  ; [ORIG 16-BIT INS]
     973                            .dwpsn  file "../Source/event_groups.c",line 437,column 2,is_stmt,isa 1
     974                    $C$DW$87        .dwtag  DW_TAG_TI_branch
     975                            .dwattr $C$DW$87, DW_AT_low_pc(0x00)
     976                            .dwattr $C$DW$87, DW_AT_name("vPortExitCritical")
     977                            .dwattr $C$DW$87, DW_AT_TI_call
     978 000001e4 FFFEF7FF!         BL        vPortExitCritical     ; [DPU_3_PIPE] |437|  ; [KEEP 32-BIT INS]
     979                            ; CALL OCCURS {vPortExitCritical }  ; [] |437| 
     980                            .dwpsn  file "../Source/event_groups.c",line 439,column 2,is_stmt,isa 1
     981 000001e8 9803              LDR       A1, [SP, #12]         ; [DPU_3_PIPE] |439|  ; [ORIG 16-BIT INS]
     982                            .dwpsn  file "../Source/event_groups.c",line 440,column 1,is_stmt,isa 1
     983 000001ea B005              ADD       SP, SP, #20           ; [DPU_3_PIPE]  ; [ORIG 16-BIT INS]
     984                            .dwcfi  cfa_offset, 4
     985                    $C$DW$88        .dwtag  DW_TAG_TI_branch
     986                            .dwattr $C$DW$88, DW_AT_low_pc(0x00)
     987                            .dwattr $C$DW$88, DW_AT_TI_return
     988 000001ec BD00              POP       {PC}                  ; [DPU_3_PIPE]  ; [ORIG 16-BIT INS]
     989                            .dwcfi  cfa_offset, 0
     990                            ; BRANCH OCCURS                  ; [] 
TI ARM Assembler PC v5.1.7 Tue Sep 16 08:38:38 2014

Tools Copyright (c) 1996-2014 Texas Instruments Incorporated
event_groups.asm                                                     PAGE   19

     991                            .dwattr $C$DW$79, DW_AT_TI_end_file("../Source/event_groups.c")
     992                            .dwattr $C$DW$79, DW_AT_TI_end_line(0x1b8)
     993                            .dwattr $C$DW$79, DW_AT_TI_end_column(0x01)
     994                            .dwendentry
     995                            .dwendtag $C$DW$79
     996                    
     997 000001ee                   .sect   ".text"
     998                            .clink
     999                            .thumbfunc xEventGroupGetBitsFromISR
    1000 000001ee                   .thumb
    1001                            .global xEventGroupGetBitsFromISR
    1002                    
    1003                    $C$DW$89        .dwtag  DW_TAG_subprogram, DW_AT_name("xEventGroupGetBitsFromISR")
    1004                            .dwattr $C$DW$89, DW_AT_low_pc(xEventGroupGetBitsFromISR)
    1005                            .dwattr $C$DW$89, DW_AT_high_pc(0x00)
    1006                            .dwattr $C$DW$89, DW_AT_TI_symbol_name("xEventGroupGetBitsFromISR")
    1007                            .dwattr $C$DW$89, DW_AT_external
    1008                            .dwattr $C$DW$89, DW_AT_type(*$C$DW$T$25)
    1009                            .dwattr $C$DW$89, DW_AT_TI_begin_file("../Source/event_groups.c")
    1010                            .dwattr $C$DW$89, DW_AT_TI_begin_line(0x1ca)
    1011                            .dwattr $C$DW$89, DW_AT_TI_begin_column(0x0d)
    1012                            .dwattr $C$DW$89, DW_AT_decl_file("../Source/event_groups.c")
    1013                            .dwattr $C$DW$89, DW_AT_decl_line(0x1ca)
    1014                            .dwattr $C$DW$89, DW_AT_decl_column(0x0d)
    1015                            .dwattr $C$DW$89, DW_AT_TI_max_frame_size(0x18)
    1016                            .dwpsn  file "../Source/event_groups.c",line 459,column 1,is_stmt,address xEventGroupGetBitsFr
    1017                    
    1018                            .dwfde $C$DW$CIE, xEventGroupGetBitsFromISR
    1019                    $C$DW$90        .dwtag  DW_TAG_formal_parameter, DW_AT_name("xEventGroup")
    1020                            .dwattr $C$DW$90, DW_AT_TI_symbol_name("xEventGroup")
    1021                            .dwattr $C$DW$90, DW_AT_type(*$C$DW$T$62)
    1022                            .dwattr $C$DW$90, DW_AT_location[DW_OP_reg0]
    1023                    
    1024                    ;*****************************************************************************
    1025                    ;* FUNCTION NAME: xEventGroupGetBitsFromISR                                  *
    1026                    ;*                                                                           *
    1027                    ;*   Regs Modified     : A1,A2,A3,A4,V9,SP,LR,SR,D0,D0_hi,D1,D1_hi,D2,D2_hi, *
    1028                    ;*                           D3,D3_hi,D4,D4_hi,D5,D5_hi,D6,D6_hi,D7,D7_hi,   *
    1029                    ;*                           FPEXC,FPSCR                                     *
    1030                    ;*   Regs Used         : A1,A2,A3,A4,V9,SP,LR,SR,D0,D0_hi,D1,D1_hi,D2,D2_hi, *
    1031                    ;*                           D3,D3_hi,D4,D4_hi,D5,D5_hi,D6,D6_hi,D7,D7_hi,   *
    1032                    ;*                           FPEXC,FPSCR                                     *
    1033                    ;*   Local Frame Size  : 0 Args + 16 Auto + 4 Save = 20 byte                 *
    1034                    ;*****************************************************************************
    1035 000001ee           xEventGroupGetBitsFromISR:
    1036                    ;* --------------------------------------------------------------------------*
    1037                            .dwcfi  cfa_offset, 0
    1038 000001ee B500              PUSH      {LR}                  ; [DPU_3_PIPE]  ; [ORIG 16-BIT INS]
    1039                            .dwcfi  cfa_offset, 4
    1040                            .dwcfi  save_reg_to_mem, 14, -4
    1041 000001f0 0D14F1AD          SUB       SP, SP, #20           ; [DPU_3_PIPE]  ; [KEEP 32-BIT INS]
    1042                            .dwcfi  cfa_offset, 24
    1043                    $C$DW$91        .dwtag  DW_TAG_variable, DW_AT_name("xEventGroup")
    1044                            .dwattr $C$DW$91, DW_AT_TI_symbol_name("xEventGroup")
    1045                            .dwattr $C$DW$91, DW_AT_type(*$C$DW$T$62)
TI ARM Assembler PC v5.1.7 Tue Sep 16 08:38:38 2014

Tools Copyright (c) 1996-2014 Texas Instruments Incorporated
event_groups.asm                                                     PAGE   20

    1046                            .dwattr $C$DW$91, DW_AT_location[DW_OP_breg13 0]
    1047                    $C$DW$92        .dwtag  DW_TAG_variable, DW_AT_name("uxSavedInterruptStatus")
    1048                            .dwattr $C$DW$92, DW_AT_TI_symbol_name("uxSavedInterruptStatus")
    1049                            .dwattr $C$DW$92, DW_AT_type(*$C$DW$T$28)
    1050                            .dwattr $C$DW$92, DW_AT_location[DW_OP_breg13 4]
    1051                    $C$DW$93        .dwtag  DW_TAG_variable, DW_AT_name("pxEventBits")
    1052                            .dwattr $C$DW$93, DW_AT_TI_symbol_name("pxEventBits")
    1053                            .dwattr $C$DW$93, DW_AT_type(*$C$DW$T$163)
    1054                            .dwattr $C$DW$93, DW_AT_location[DW_OP_breg13 8]
    1055                    $C$DW$94        .dwtag  DW_TAG_variable, DW_AT_name("uxReturn")
    1056                            .dwattr $C$DW$94, DW_AT_TI_symbol_name("uxReturn")
    1057                            .dwattr $C$DW$94, DW_AT_type(*$C$DW$T$25)
    1058                            .dwattr $C$DW$94, DW_AT_location[DW_OP_breg13 12]
    1059 000001f4 9000              STR       A1, [SP, #0]          ; [DPU_3_PIPE] |459|  ; [ORIG 16-BIT INS]
    1060                            .dwpsn  file "../Source/event_groups.c",line 461,column 27,is_stmt,isa 1
    1061 000001f6 9800              LDR       A1, [SP, #0]          ; [DPU_3_PIPE] |461|  ; [ORIG 16-BIT INS]
    1062 000001f8 9002              STR       A1, [SP, #8]          ; [DPU_3_PIPE] |461|  ; [ORIG 16-BIT INS]
    1063                            .dwpsn  file "../Source/event_groups.c",line 464,column 2,is_stmt,isa 1
    1064                    $C$DW$95        .dwtag  DW_TAG_TI_branch
    1065                            .dwattr $C$DW$95, DW_AT_low_pc(0x00)
    1066                            .dwattr $C$DW$95, DW_AT_name("ulPortSetInterruptMask")
    1067                            .dwattr $C$DW$95, DW_AT_TI_call
    1068 000001fa FFFEF7FF!         BL        ulPortSetInterruptMask ; [DPU_3_PIPE] |464|  ; [KEEP 32-BIT INS]
    1069                            ; CALL OCCURS {ulPortSetInterruptMask }  ; [] |464| 
    1070 000001fe 9001              STR       A1, [SP, #4]          ; [DPU_3_PIPE] |464|  ; [ORIG 16-BIT INS]
    1071                            .dwpsn  file "../Source/event_groups.c",line 466,column 3,is_stmt,isa 1
    1072 00000200 9802              LDR       A1, [SP, #8]          ; [DPU_3_PIPE] |466|  ; [ORIG 16-BIT INS]
    1073 00000202 6800              LDR       A1, [A1, #0]          ; [DPU_3_PIPE] |466|  ; [ORIG 16-BIT INS]
    1074 00000204 9003              STR       A1, [SP, #12]         ; [DPU_3_PIPE] |466|  ; [ORIG 16-BIT INS]
    1075                            .dwpsn  file "../Source/event_groups.c",line 468,column 2,is_stmt,isa 1
    1076 00000206 9801              LDR       A1, [SP, #4]          ; [DPU_3_PIPE] |468|  ; [ORIG 16-BIT INS]
    1077                    $C$DW$96        .dwtag  DW_TAG_TI_branch
    1078                            .dwattr $C$DW$96, DW_AT_low_pc(0x00)
    1079                            .dwattr $C$DW$96, DW_AT_name("vPortClearInterruptMask")
    1080                            .dwattr $C$DW$96, DW_AT_TI_call
    1081 00000208 FFFEF7FF!         BL        vPortClearInterruptMask ; [DPU_3_PIPE] |468|  ; [KEEP 32-BIT INS]
    1082                            ; CALL OCCURS {vPortClearInterruptMask }  ; [] |468| 
    1083                            .dwpsn  file "../Source/event_groups.c",line 470,column 2,is_stmt,isa 1
    1084 0000020c 9803              LDR       A1, [SP, #12]         ; [DPU_3_PIPE] |470|  ; [ORIG 16-BIT INS]
    1085                            .dwpsn  file "../Source/event_groups.c",line 471,column 1,is_stmt,isa 1
    1086 0000020e B005              ADD       SP, SP, #20           ; [DPU_3_PIPE]  ; [ORIG 16-BIT INS]
    1087                            .dwcfi  cfa_offset, 4
    1088                    $C$DW$97        .dwtag  DW_TAG_TI_branch
    1089                            .dwattr $C$DW$97, DW_AT_low_pc(0x00)
    1090                            .dwattr $C$DW$97, DW_AT_TI_return
    1091 00000210 BD00              POP       {PC}                  ; [DPU_3_PIPE]  ; [ORIG 16-BIT INS]
    1092                            .dwcfi  cfa_offset, 0
    1093                            ; BRANCH OCCURS                  ; [] 
    1094                            .dwattr $C$DW$89, DW_AT_TI_end_file("../Source/event_groups.c")
    1095                            .dwattr $C$DW$89, DW_AT_TI_end_line(0x1d7)
    1096                            .dwattr $C$DW$89, DW_AT_TI_end_column(0x01)
    1097                            .dwendentry
    1098                            .dwendtag $C$DW$89
    1099                    
    1100 00000212                   .sect   ".text"
TI ARM Assembler PC v5.1.7 Tue Sep 16 08:38:38 2014

Tools Copyright (c) 1996-2014 Texas Instruments Incorporated
event_groups.asm                                                     PAGE   21

    1101                            .clink
    1102                            .thumbfunc xEventGroupSetBits
    1103 00000212                   .thumb
    1104                            .global xEventGroupSetBits
    1105                    
    1106                    $C$DW$98        .dwtag  DW_TAG_subprogram, DW_AT_name("xEventGroupSetBits")
    1107                            .dwattr $C$DW$98, DW_AT_low_pc(xEventGroupSetBits)
    1108                            .dwattr $C$DW$98, DW_AT_high_pc(0x00)
    1109                            .dwattr $C$DW$98, DW_AT_TI_symbol_name("xEventGroupSetBits")
    1110                            .dwattr $C$DW$98, DW_AT_external
    1111                            .dwattr $C$DW$98, DW_AT_type(*$C$DW$T$25)
    1112                            .dwattr $C$DW$98, DW_AT_TI_begin_file("../Source/event_groups.c")
    1113                            .dwattr $C$DW$98, DW_AT_TI_begin_line(0x1da)
    1114                            .dwattr $C$DW$98, DW_AT_TI_begin_column(0x0d)
    1115                            .dwattr $C$DW$98, DW_AT_decl_file("../Source/event_groups.c")
    1116                            .dwattr $C$DW$98, DW_AT_decl_line(0x1da)
    1117                            .dwattr $C$DW$98, DW_AT_decl_column(0x0d)
    1118                            .dwattr $C$DW$98, DW_AT_TI_max_frame_size(0x30)
    1119                            .dwpsn  file "../Source/event_groups.c",line 475,column 1,is_stmt,address xEventGroupSetBits,i
    1120                    
    1121                            .dwfde $C$DW$CIE, xEventGroupSetBits
    1122                    $C$DW$99        .dwtag  DW_TAG_formal_parameter, DW_AT_name("xEventGroup")
    1123                            .dwattr $C$DW$99, DW_AT_TI_symbol_name("xEventGroup")
    1124                            .dwattr $C$DW$99, DW_AT_type(*$C$DW$T$62)
    1125                            .dwattr $C$DW$99, DW_AT_location[DW_OP_reg0]
    1126                    $C$DW$100       .dwtag  DW_TAG_formal_parameter, DW_AT_name("uxBitsToSet")
    1127                            .dwattr $C$DW$100, DW_AT_TI_symbol_name("uxBitsToSet")
    1128                            .dwattr $C$DW$100, DW_AT_type(*$C$DW$T$112)
    1129                            .dwattr $C$DW$100, DW_AT_location[DW_OP_reg1]
    1130                    
    1131                    ;*****************************************************************************
    1132                    ;* FUNCTION NAME: xEventGroupSetBits                                         *
    1133                    ;*                                                                           *
    1134                    ;*   Regs Modified     : A1,A2,A3,A4,V9,SP,LR,SR,D0,D0_hi,D1,D1_hi,D2,D2_hi, *
    1135                    ;*                           D3,D3_hi,D4,D4_hi,D5,D5_hi,D6,D6_hi,D7,D7_hi,   *
    1136                    ;*                           FPEXC,FPSCR                                     *
    1137                    ;*   Regs Used         : A1,A2,A3,A4,V9,SP,LR,SR,D0,D0_hi,D1,D1_hi,D2,D2_hi, *
    1138                    ;*                           D3,D3_hi,D4,D4_hi,D5,D5_hi,D6,D6_hi,D7,D7_hi,   *
    1139                    ;*                           FPEXC,FPSCR                                     *
    1140                    ;*   Local Frame Size  : 0 Args + 44 Auto + 4 Save = 48 byte                 *
    1141                    ;*****************************************************************************
    1142 00000212           xEventGroupSetBits:
    1143                    ;* --------------------------------------------------------------------------*
    1144                            .dwcfi  cfa_offset, 0
    1145 00000212 B500              PUSH      {LR}                  ; [DPU_3_PIPE]  ; [ORIG 16-BIT INS]
    1146                            .dwcfi  cfa_offset, 4
    1147                            .dwcfi  save_reg_to_mem, 14, -4
    1148 00000214 0D2CF1AD          SUB       SP, SP, #44           ; [DPU_3_PIPE]  ; [KEEP 32-BIT INS]
    1149                            .dwcfi  cfa_offset, 48
    1150                    $C$DW$101       .dwtag  DW_TAG_variable, DW_AT_name("xEventGroup")
    1151                            .dwattr $C$DW$101, DW_AT_TI_symbol_name("xEventGroup")
    1152                            .dwattr $C$DW$101, DW_AT_type(*$C$DW$T$62)
    1153                            .dwattr $C$DW$101, DW_AT_location[DW_OP_breg13 0]
    1154                    $C$DW$102       .dwtag  DW_TAG_variable, DW_AT_name("uxBitsToSet")
    1155                            .dwattr $C$DW$102, DW_AT_TI_symbol_name("uxBitsToSet")
TI ARM Assembler PC v5.1.7 Tue Sep 16 08:38:38 2014

Tools Copyright (c) 1996-2014 Texas Instruments Incorporated
event_groups.asm                                                     PAGE   22

    1156                            .dwattr $C$DW$102, DW_AT_type(*$C$DW$T$112)
    1157                            .dwattr $C$DW$102, DW_AT_location[DW_OP_breg13 4]
    1158                    $C$DW$103       .dwtag  DW_TAG_variable, DW_AT_name("pxListItem")
    1159                            .dwattr $C$DW$103, DW_AT_TI_symbol_name("pxListItem")
    1160                            .dwattr $C$DW$103, DW_AT_type(*$C$DW$T$30)
    1161                            .dwattr $C$DW$103, DW_AT_location[DW_OP_breg13 8]
    1162                    $C$DW$104       .dwtag  DW_TAG_variable, DW_AT_name("pxNext")
    1163                            .dwattr $C$DW$104, DW_AT_TI_symbol_name("pxNext")
    1164                            .dwattr $C$DW$104, DW_AT_type(*$C$DW$T$30)
    1165                            .dwattr $C$DW$104, DW_AT_location[DW_OP_breg13 12]
    1166                    $C$DW$105       .dwtag  DW_TAG_variable, DW_AT_name("pxListEnd")
    1167                            .dwattr $C$DW$105, DW_AT_TI_symbol_name("pxListEnd")
    1168                            .dwattr $C$DW$105, DW_AT_type(*$C$DW$T$167)
    1169                            .dwattr $C$DW$105, DW_AT_location[DW_OP_breg13 16]
    1170                    $C$DW$106       .dwtag  DW_TAG_variable, DW_AT_name("pxList")
    1171                            .dwattr $C$DW$106, DW_AT_TI_symbol_name("pxList")
    1172                            .dwattr $C$DW$106, DW_AT_type(*$C$DW$T$73)
    1173                            .dwattr $C$DW$106, DW_AT_location[DW_OP_breg13 20]
    1174                    $C$DW$107       .dwtag  DW_TAG_variable, DW_AT_name("uxBitsToClear")
    1175                            .dwattr $C$DW$107, DW_AT_TI_symbol_name("uxBitsToClear")
    1176                            .dwattr $C$DW$107, DW_AT_type(*$C$DW$T$25)
    1177                            .dwattr $C$DW$107, DW_AT_location[DW_OP_breg13 24]
    1178                    $C$DW$108       .dwtag  DW_TAG_variable, DW_AT_name("uxBitsWaitedFor")
    1179                            .dwattr $C$DW$108, DW_AT_TI_symbol_name("uxBitsWaitedFor")
    1180                            .dwattr $C$DW$108, DW_AT_type(*$C$DW$T$25)
    1181                            .dwattr $C$DW$108, DW_AT_location[DW_OP_breg13 28]
    1182                    $C$DW$109       .dwtag  DW_TAG_variable, DW_AT_name("uxControlBits")
    1183                            .dwattr $C$DW$109, DW_AT_TI_symbol_name("uxControlBits")
    1184                            .dwattr $C$DW$109, DW_AT_type(*$C$DW$T$25)
    1185                            .dwattr $C$DW$109, DW_AT_location[DW_OP_breg13 32]
    1186                    $C$DW$110       .dwtag  DW_TAG_variable, DW_AT_name("pxEventBits")
    1187                            .dwattr $C$DW$110, DW_AT_TI_symbol_name("pxEventBits")
    1188                            .dwattr $C$DW$110, DW_AT_type(*$C$DW$T$163)
    1189                            .dwattr $C$DW$110, DW_AT_location[DW_OP_breg13 36]
    1190                    $C$DW$111       .dwtag  DW_TAG_variable, DW_AT_name("xMatchFound")
    1191                            .dwattr $C$DW$111, DW_AT_TI_symbol_name("xMatchFound")
    1192                            .dwattr $C$DW$111, DW_AT_type(*$C$DW$T$55)
    1193                            .dwattr $C$DW$111, DW_AT_location[DW_OP_breg13 40]
    1194 00000218 9101              STR       A2, [SP, #4]          ; [DPU_3_PIPE] |475|  ; [ORIG 16-BIT INS]
    1195 0000021a 9000              STR       A1, [SP, #0]          ; [DPU_3_PIPE] |475|  ; [ORIG 16-BIT INS]
    1196                            .dwpsn  file "../Source/event_groups.c",line 479,column 27,is_stmt,isa 1
    1197 0000021c 2000              MOVS      A1, #0                ; [DPU_3_PIPE] |479|  ; [ORIG 16-BIT INS]
    1198 0000021e 9006              STR       A1, [SP, #24]         ; [DPU_3_PIPE] |479|  ; [ORIG 16-BIT INS]
    1199                            .dwpsn  file "../Source/event_groups.c",line 480,column 27,is_stmt,isa 1
    1200 00000220 9800              LDR       A1, [SP, #0]          ; [DPU_3_PIPE] |480|  ; [ORIG 16-BIT INS]
    1201 00000222 9009              STR       A1, [SP, #36]         ; [DPU_3_PIPE] |480|  ; [ORIG 16-BIT INS]
    1202                            .dwpsn  file "../Source/event_groups.c",line 481,column 24,is_stmt,isa 1
    1203 00000224 2000              MOVS      A1, #0                ; [DPU_3_PIPE] |481|  ; [ORIG 16-BIT INS]
    1204 00000226 900A              STR       A1, [SP, #40]         ; [DPU_3_PIPE] |481|  ; [ORIG 16-BIT INS]
    1205                            .dwpsn  file "../Source/event_groups.c",line 487,column 2,is_stmt,isa 1
    1206 00000228 9809              LDR       A1, [SP, #36]         ; [DPU_3_PIPE] |487|  ; [ORIG 16-BIT INS]
    1207 0000022a 1D00              ADDS      A1, A1, #4            ; [DPU_3_PIPE] |487|  ; [ORIG 16-BIT INS]
    1208 0000022c 9005              STR       A1, [SP, #20]         ; [DPU_3_PIPE] |487|  ; [ORIG 16-BIT INS]
    1209                            .dwpsn  file "../Source/event_groups.c",line 488,column 2,is_stmt,isa 1
    1210 0000022e 9805              LDR       A1, [SP, #20]         ; [DPU_3_PIPE] |488|  ; [ORIG 16-BIT INS]
TI ARM Assembler PC v5.1.7 Tue Sep 16 08:38:38 2014

Tools Copyright (c) 1996-2014 Texas Instruments Incorporated
event_groups.asm                                                     PAGE   23

    1211 00000230 3008              ADDS      A1, A1, #8            ; [DPU_3_PIPE] |488|  ; [ORIG 16-BIT INS]
    1212 00000232 9004              STR       A1, [SP, #16]         ; [DPU_3_PIPE] |488|  ; [ORIG 16-BIT INS]
    1213                            .dwpsn  file "../Source/event_groups.c",line 489,column 2,is_stmt,isa 1
    1214                    $C$DW$112       .dwtag  DW_TAG_TI_branch
    1215                            .dwattr $C$DW$112, DW_AT_low_pc(0x00)
    1216                            .dwattr $C$DW$112, DW_AT_name("vTaskSuspendAll")
    1217                            .dwattr $C$DW$112, DW_AT_TI_call
    1218 00000234 FFFEF7FF!         BL        vTaskSuspendAll       ; [DPU_3_PIPE] |489|  ; [KEEP 32-BIT INS]
    1219                            ; CALL OCCURS {vTaskSuspendAll }  ; [] |489| 
    1220                            .dwpsn  file "../Source/event_groups.c",line 493,column 3,is_stmt,isa 1
    1221 00000238 9805              LDR       A1, [SP, #20]         ; [DPU_3_PIPE] |493|  ; [ORIG 16-BIT INS]
    1222 0000023a 68C0              LDR       A1, [A1, #12]         ; [DPU_3_PIPE] |493|  ; [ORIG 16-BIT INS]
    1223 0000023c 9002              STR       A1, [SP, #8]          ; [DPU_3_PIPE] |493|  ; [ORIG 16-BIT INS]
    1224                            .dwpsn  file "../Source/event_groups.c",line 496,column 3,is_stmt,isa 1
    1225 0000023e 9909              LDR       A2, [SP, #36]         ; [DPU_3_PIPE] |496|  ; [ORIG 16-BIT INS]
    1226 00000240 9801              LDR       A1, [SP, #4]          ; [DPU_3_PIPE] |496|  ; [ORIG 16-BIT INS]
    1227 00000242 680A              LDR       A3, [A2, #0]          ; [DPU_3_PIPE] |496|  ; [ORIG 16-BIT INS]
    1228 00000244 4310              ORRS      A1, A1, A3            ; [DPU_3_PIPE] |496|  ; [ORIG 16-BIT INS]
    1229 00000246 6008              STR       A1, [A2, #0]          ; [DPU_3_PIPE] |496|  ; [ORIG 16-BIT INS]
    1230                            .dwpsn  file "../Source/event_groups.c",line 499,column 10,is_stmt,isa 1
    1231 00000248 9804              LDR       A1, [SP, #16]         ; [DPU_3_PIPE] |499|  ; [ORIG 16-BIT INS]
    1232 0000024a 9902              LDR       A2, [SP, #8]          ; [DPU_3_PIPE] |499|  ; [ORIG 16-BIT INS]
    1233 0000024c 4288              CMP       A1, A2                ; [DPU_3_PIPE] |499|  ; [ORIG 16-BIT INS]
    1234 0000024e D039              BEQ       ||$C$L23||            ; [DPU_3_PIPE] |499|  ; [ORIG 16-BIT INS]
    1235                            ; BRANCHCC OCCURS {||$C$L23||}   ; [] |499| 
    1236                    ;* --------------------------------------------------------------------------*
    1237                    ;*   BEGIN LOOP ||$C$L18||
    1238                    ;*
    1239                    ;*   Loop source line                : 499
    1240                    ;*   Loop closing brace source line  : 555
    1241                    ;*   Known Minimum Trip Count        : 1
    1242                    ;*   Known Maximum Trip Count        : 4294967295
    1243                    ;*   Known Max Trip Count Factor     : 1
    1244                    ;* --------------------------------------------------------------------------*
    1245 00000250           ||$C$L18||:    
    1246                            .dwpsn  file "../Source/event_groups.c",line 501,column 4,is_stmt,isa 1
    1247 00000250 9802              LDR       A1, [SP, #8]          ; [DPU_3_PIPE] |501|  ; [ORIG 16-BIT INS]
    1248 00000252 6840              LDR       A1, [A1, #4]          ; [DPU_3_PIPE] |501|  ; [ORIG 16-BIT INS]
    1249 00000254 9003              STR       A1, [SP, #12]         ; [DPU_3_PIPE] |501|  ; [ORIG 16-BIT INS]
    1250                            .dwpsn  file "../Source/event_groups.c",line 502,column 4,is_stmt,isa 1
    1251 00000256 9802              LDR       A1, [SP, #8]          ; [DPU_3_PIPE] |502|  ; [ORIG 16-BIT INS]
    1252 00000258 6800              LDR       A1, [A1, #0]          ; [DPU_3_PIPE] |502|  ; [ORIG 16-BIT INS]
    1253 0000025a 9007              STR       A1, [SP, #28]         ; [DPU_3_PIPE] |502|  ; [ORIG 16-BIT INS]
    1254                            .dwpsn  file "../Source/event_groups.c",line 503,column 4,is_stmt,isa 1
    1255 0000025c 2000              MOVS      A1, #0                ; [DPU_3_PIPE] |503|  ; [ORIG 16-BIT INS]
    1256 0000025e 900A              STR       A1, [SP, #40]         ; [DPU_3_PIPE] |503|  ; [ORIG 16-BIT INS]
    1257                            .dwpsn  file "../Source/event_groups.c",line 506,column 4,is_stmt,isa 1
    1258 00000260 9807              LDR       A1, [SP, #28]         ; [DPU_3_PIPE] |506|  ; [ORIG 16-BIT INS]
    1259 00000262 407FF000          AND       A1, A1, #-16777216    ; [DPU_3_PIPE] |506|  ; [KEEP 32-BIT INS]
    1260 00000266 9008              STR       A1, [SP, #32]         ; [DPU_3_PIPE] |506|  ; [ORIG 16-BIT INS]
    1261                            .dwpsn  file "../Source/event_groups.c",line 507,column 4,is_stmt,isa 1
    1262 00000268 9807              LDR       A1, [SP, #28]         ; [DPU_3_PIPE] |507|  ; [ORIG 16-BIT INS]
    1263 0000026a 407FF020          BIC       A1, A1, #-16777216    ; [DPU_3_PIPE] |507|  ; [KEEP 32-BIT INS]
    1264 0000026e 9007              STR       A1, [SP, #28]         ; [DPU_3_PIPE] |507|  ; [ORIG 16-BIT INS]
    1265                            .dwpsn  file "../Source/event_groups.c",line 509,column 4,is_stmt,isa 1
TI ARM Assembler PC v5.1.7 Tue Sep 16 08:38:38 2014

Tools Copyright (c) 1996-2014 Texas Instruments Incorporated
event_groups.asm                                                     PAGE   24

    1266 00000270 9808              LDR       A1, [SP, #32]         ; [DPU_3_PIPE] |509|  ; [ORIG 16-BIT INS]
    1267 00000272 0EC0              LSRS      A1, A1, #27           ; [DPU_3_PIPE] |509|  ; [ORIG 16-BIT INS]
    1268 00000274 D207              BCS       ||$C$L19||            ; [DPU_3_PIPE] |509|  ; [ORIG 16-BIT INS]
    1269                            ; BRANCHCC OCCURS {||$C$L19||}   ; [] |509| 
    1270                    ;* --------------------------------------------------------------------------*
    1271                            .dwpsn  file "../Source/event_groups.c",line 512,column 5,is_stmt,isa 1
    1272 00000276 9809              LDR       A1, [SP, #36]         ; [DPU_3_PIPE] |512|  ; [ORIG 16-BIT INS]
    1273 00000278 9907              LDR       A2, [SP, #28]         ; [DPU_3_PIPE] |512|  ; [ORIG 16-BIT INS]
    1274 0000027a 6800              LDR       A1, [A1, #0]          ; [DPU_3_PIPE] |512|  ; [ORIG 16-BIT INS]
    1275 0000027c 4208              TST       A1, A2                ; [DPU_3_PIPE] |512|  ; [ORIG 16-BIT INS]
    1276 0000027e D00B              BEQ       ||$C$L20||            ; [DPU_3_PIPE] |512|  ; [ORIG 16-BIT INS]
    1277                            ; BRANCHCC OCCURS {||$C$L20||}   ; [] |512| 
    1278                    ;* --------------------------------------------------------------------------*
    1279                            .dwpsn  file "../Source/event_groups.c",line 514,column 6,is_stmt,isa 1
    1280 00000280 2001              MOVS      A1, #1                ; [DPU_3_PIPE] |514|  ; [ORIG 16-BIT INS]
    1281 00000282 900A              STR       A1, [SP, #40]         ; [DPU_3_PIPE] |514|  ; [ORIG 16-BIT INS]
    1282                            .dwpsn  file "../Source/event_groups.c",line 515,column 5,is_stmt,isa 1
    1283 00000284 E008              B         ||$C$L20||            ; [DPU_3_PIPE] |515|  ; [ORIG 16-BIT INS]
    1284                            ; BRANCH OCCURS {||$C$L20||}     ; [] |515| 
    1285                    ;* --------------------------------------------------------------------------*
    1286                    ;* --------------------------------------------------------------------------*
    1287 00000286           ||$C$L19||:    
    1288                            .dwpsn  file "../Source/event_groups.c",line 521,column 9,is_stmt,isa 1
    1289 00000286 9809              LDR       A1, [SP, #36]         ; [DPU_3_PIPE] |521|  ; [ORIG 16-BIT INS]
    1290 00000288 9A07              LDR       A3, [SP, #28]         ; [DPU_3_PIPE] |521|  ; [ORIG 16-BIT INS]
    1291 0000028a 9907              LDR       A2, [SP, #28]         ; [DPU_3_PIPE] |521|  ; [ORIG 16-BIT INS]
    1292 0000028c 6800              LDR       A1, [A1, #0]          ; [DPU_3_PIPE] |521|  ; [ORIG 16-BIT INS]
    1293 0000028e 4010              ANDS      A1, A1, A3            ; [DPU_3_PIPE] |521|  ; [ORIG 16-BIT INS]
    1294 00000290 4281              CMP       A2, A1                ; [DPU_3_PIPE] |521|  ; [ORIG 16-BIT INS]
    1295 00000292 D101              BNE       ||$C$L20||            ; [DPU_3_PIPE] |521|  ; [ORIG 16-BIT INS]
    1296                            ; BRANCHCC OCCURS {||$C$L20||}   ; [] |521| 
    1297                    ;* --------------------------------------------------------------------------*
    1298                            .dwpsn  file "../Source/event_groups.c",line 524,column 5,is_stmt,isa 1
    1299 00000294 2001              MOVS      A1, #1                ; [DPU_3_PIPE] |524|  ; [ORIG 16-BIT INS]
    1300 00000296 900A              STR       A1, [SP, #40]         ; [DPU_3_PIPE] |524|  ; [ORIG 16-BIT INS]
    1301                            .dwpsn  file "../Source/event_groups.c",line 525,column 4,is_stmt,isa 1
    1302                    ;* --------------------------------------------------------------------------*
    1303 00000298           ||$C$L20||:    
    1304                            .dwpsn  file "../Source/event_groups.c",line 531,column 4,is_stmt,isa 1
    1305 00000298 980A              LDR       A1, [SP, #40]         ; [DPU_3_PIPE] |531|  ; [ORIG 16-BIT INS]
    1306 0000029a B168              CBZ       A1, ||$C$L22||        ; []  ; [ORIG 16-BIT INS]
    1307                            ; BRANCHCC OCCURS {||$C$L22||}   ; [] |531| 
    1308                    ;* --------------------------------------------------------------------------*
    1309                            .dwpsn  file "../Source/event_groups.c",line 534,column 5,is_stmt,isa 1
    1310 0000029c 9808              LDR       A1, [SP, #32]         ; [DPU_3_PIPE] |534|  ; [ORIG 16-BIT INS]
    1311 0000029e 0E40              LSRS      A1, A1, #25           ; [DPU_3_PIPE] |534|  ; [ORIG 16-BIT INS]
    1312 000002a0 D303              BCC       ||$C$L21||            ; [DPU_3_PIPE] |534|  ; [ORIG 16-BIT INS]
    1313                            ; BRANCHCC OCCURS {||$C$L21||}   ; [] |534| 
    1314                    ;* --------------------------------------------------------------------------*
    1315                            .dwpsn  file "../Source/event_groups.c",line 536,column 6,is_stmt,isa 1
    1316 000002a2 9906              LDR       A2, [SP, #24]         ; [DPU_3_PIPE] |536|  ; [ORIG 16-BIT INS]
    1317 000002a4 9807              LDR       A1, [SP, #28]         ; [DPU_3_PIPE] |536|  ; [ORIG 16-BIT INS]
    1318 000002a6 4308              ORRS      A1, A1, A2            ; [DPU_3_PIPE] |536|  ; [ORIG 16-BIT INS]
    1319 000002a8 9006              STR       A1, [SP, #24]         ; [DPU_3_PIPE] |536|  ; [ORIG 16-BIT INS]
    1320                            .dwpsn  file "../Source/event_groups.c",line 537,column 5,is_stmt,isa 1
TI ARM Assembler PC v5.1.7 Tue Sep 16 08:38:38 2014

Tools Copyright (c) 1996-2014 Texas Instruments Incorporated
event_groups.asm                                                     PAGE   25

    1321                    ;* --------------------------------------------------------------------------*
    1322 000002aa           ||$C$L21||:    
    1323                            .dwpsn  file "../Source/event_groups.c",line 548,column 5,is_stmt,isa 1
    1324 000002aa 9809              LDR       A1, [SP, #36]         ; [DPU_3_PIPE] |548|  ; [ORIG 16-BIT INS]
    1325 000002ac 6801              LDR       A2, [A1, #0]          ; [DPU_3_PIPE] |548|  ; [ORIG 16-BIT INS]
    1326 000002ae 9802              LDR       A1, [SP, #8]          ; [DPU_3_PIPE] |548|  ; [ORIG 16-BIT INS]
    1327 000002b0 7100F041          ORR       A2, A2, #33554432     ; [DPU_3_PIPE] |548|  ; [KEEP 32-BIT INS]
    1328                    $C$DW$113       .dwtag  DW_TAG_TI_branch
    1329                            .dwattr $C$DW$113, DW_AT_low_pc(0x00)
    1330                            .dwattr $C$DW$113, DW_AT_name("xTaskRemoveFromUnorderedEventList")
    1331                            .dwattr $C$DW$113, DW_AT_TI_call
    1332 000002b4 FFFEF7FF!         BL        xTaskRemoveFromUnorderedEventList ; [DPU_3_PIPE] |548|  ; [KEEP 32-BIT INS]
    1333                            ; CALL OCCURS {xTaskRemoveFromUnorderedEventList }  ; [] |548| 
    1334                    ;* --------------------------------------------------------------------------*
    1335 000002b8           ||$C$L22||:    
    1336                            .dwpsn  file "../Source/event_groups.c",line 554,column 4,is_stmt,isa 1
    1337 000002b8 9803              LDR       A1, [SP, #12]         ; [DPU_3_PIPE] |554|  ; [ORIG 16-BIT INS]
    1338 000002ba 9002              STR       A1, [SP, #8]          ; [DPU_3_PIPE] |554|  ; [ORIG 16-BIT INS]
    1339                            .dwpsn  file "../Source/event_groups.c",line 499,column 10,is_stmt,isa 1
    1340 000002bc 9902              LDR       A2, [SP, #8]          ; [DPU_3_PIPE] |499|  ; [ORIG 16-BIT INS]
    1341 000002be 9804              LDR       A1, [SP, #16]         ; [DPU_3_PIPE] |499|  ; [ORIG 16-BIT INS]
    1342 000002c0 4288              CMP       A1, A2                ; [DPU_3_PIPE] |499|  ; [ORIG 16-BIT INS]
    1343 000002c2 D1C5              BNE       ||$C$L18||            ; [DPU_3_PIPE] |499|  ; [ORIG 16-BIT INS]
    1344                            ; BRANCHCC OCCURS {||$C$L18||}   ; [] |499| 
    1345                    ;* --------------------------------------------------------------------------*
    1346 000002c4           ||$C$L23||:    
    1347                            .dwpsn  file "../Source/event_groups.c",line 559,column 3,is_stmt,isa 1
    1348 000002c4 9909              LDR       A2, [SP, #36]         ; [DPU_3_PIPE] |559|  ; [ORIG 16-BIT INS]
    1349 000002c6 9A06              LDR       A3, [SP, #24]         ; [DPU_3_PIPE] |559|  ; [ORIG 16-BIT INS]
    1350 000002c8 6808              LDR       A1, [A2, #0]          ; [DPU_3_PIPE] |559|  ; [ORIG 16-BIT INS]
    1351 000002ca 4390              BICS      A1, A1, A3            ; [DPU_3_PIPE] |559|  ; [ORIG 16-BIT INS]
    1352 000002cc 6008              STR       A1, [A2, #0]          ; [DPU_3_PIPE] |559|  ; [ORIG 16-BIT INS]
    1353                            .dwpsn  file "../Source/event_groups.c",line 561,column 2,is_stmt,isa 1
    1354                    $C$DW$114       .dwtag  DW_TAG_TI_branch
    1355                            .dwattr $C$DW$114, DW_AT_low_pc(0x00)
    1356                            .dwattr $C$DW$114, DW_AT_name("xTaskResumeAll")
    1357                            .dwattr $C$DW$114, DW_AT_TI_call
    1358 000002ce FFFEF7FF!         BL        xTaskResumeAll        ; [DPU_3_PIPE] |561|  ; [KEEP 32-BIT INS]
    1359                            ; CALL OCCURS {xTaskResumeAll }  ; [] |561| 
    1360                            .dwpsn  file "../Source/event_groups.c",line 563,column 2,is_stmt,isa 1
    1361 000002d2 9809              LDR       A1, [SP, #36]         ; [DPU_3_PIPE] |563|  ; [ORIG 16-BIT INS]
    1362 000002d4 6800              LDR       A1, [A1, #0]          ; [DPU_3_PIPE] |563|  ; [ORIG 16-BIT INS]
    1363                            .dwpsn  file "../Source/event_groups.c",line 564,column 1,is_stmt,isa 1
    1364 000002d6 B00B              ADD       SP, SP, #44           ; [DPU_3_PIPE]  ; [ORIG 16-BIT INS]
    1365                            .dwcfi  cfa_offset, 4
    1366                    $C$DW$115       .dwtag  DW_TAG_TI_branch
    1367                            .dwattr $C$DW$115, DW_AT_low_pc(0x00)
    1368                            .dwattr $C$DW$115, DW_AT_TI_return
    1369 000002d8 BD00              POP       {PC}                  ; [DPU_3_PIPE]  ; [ORIG 16-BIT INS]
    1370                            .dwcfi  cfa_offset, 0
    1371                            ; BRANCH OCCURS                  ; [] 
    1372                            .dwattr $C$DW$98, DW_AT_TI_end_file("../Source/event_groups.c")
    1373                            .dwattr $C$DW$98, DW_AT_TI_end_line(0x234)
    1374                            .dwattr $C$DW$98, DW_AT_TI_end_column(0x01)
    1375                            .dwendentry
TI ARM Assembler PC v5.1.7 Tue Sep 16 08:38:38 2014

Tools Copyright (c) 1996-2014 Texas Instruments Incorporated
event_groups.asm                                                     PAGE   26

    1376                            .dwendtag $C$DW$98
    1377                    
    1378 000002da                   .sect   ".text"
    1379                            .clink
    1380                            .thumbfunc vEventGroupDelete
    1381 000002da                   .thumb
    1382                            .global vEventGroupDelete
    1383                    
    1384                    $C$DW$116       .dwtag  DW_TAG_subprogram, DW_AT_name("vEventGroupDelete")
    1385                            .dwattr $C$DW$116, DW_AT_low_pc(vEventGroupDelete)
    1386                            .dwattr $C$DW$116, DW_AT_high_pc(0x00)
    1387                            .dwattr $C$DW$116, DW_AT_TI_symbol_name("vEventGroupDelete")
    1388                            .dwattr $C$DW$116, DW_AT_external
    1389                            .dwattr $C$DW$116, DW_AT_TI_begin_file("../Source/event_groups.c")
    1390                            .dwattr $C$DW$116, DW_AT_TI_begin_line(0x237)
    1391                            .dwattr $C$DW$116, DW_AT_TI_begin_column(0x06)
    1392                            .dwattr $C$DW$116, DW_AT_decl_file("../Source/event_groups.c")
    1393                            .dwattr $C$DW$116, DW_AT_decl_line(0x237)
    1394                            .dwattr $C$DW$116, DW_AT_decl_column(0x06)
    1395                            .dwattr $C$DW$116, DW_AT_TI_max_frame_size(0x10)
    1396                            .dwpsn  file "../Source/event_groups.c",line 568,column 1,is_stmt,address vEventGroupDelete,is
    1397                    
    1398                            .dwfde $C$DW$CIE, vEventGroupDelete
    1399                    $C$DW$117       .dwtag  DW_TAG_formal_parameter, DW_AT_name("xEventGroup")
    1400                            .dwattr $C$DW$117, DW_AT_TI_symbol_name("xEventGroup")
    1401                            .dwattr $C$DW$117, DW_AT_type(*$C$DW$T$62)
    1402                            .dwattr $C$DW$117, DW_AT_location[DW_OP_reg0]
    1403                    
    1404                    ;*****************************************************************************
    1405                    ;* FUNCTION NAME: vEventGroupDelete                                          *
    1406                    ;*                                                                           *
    1407                    ;*   Regs Modified     : A1,A2,A3,A4,V9,SP,LR,SR,D0,D0_hi,D1,D1_hi,D2,D2_hi, *
    1408                    ;*                           D3,D3_hi,D4,D4_hi,D5,D5_hi,D6,D6_hi,D7,D7_hi,   *
    1409                    ;*                           FPEXC,FPSCR                                     *
    1410                    ;*   Regs Used         : A1,A2,A3,A4,V9,SP,LR,SR,D0,D0_hi,D1,D1_hi,D2,D2_hi, *
    1411                    ;*                           D3,D3_hi,D4,D4_hi,D5,D5_hi,D6,D6_hi,D7,D7_hi,   *
    1412                    ;*                           FPEXC,FPSCR                                     *
    1413                    ;*   Local Frame Size  : 0 Args + 12 Auto + 4 Save = 16 byte                 *
    1414                    ;*****************************************************************************
    1415 000002da           vEventGroupDelete:
    1416                    ;* --------------------------------------------------------------------------*
    1417                            .dwcfi  cfa_offset, 0
    1418 000002da B50E              PUSH      {A2, A3, A4, LR}      ; [DPU_3_PIPE]  ; [ORIG 16-BIT INS]
    1419                            .dwcfi  cfa_offset, 16
    1420                            .dwcfi  save_reg_to_mem, 14, -4
    1421                            .dwcfi  save_reg_to_mem, 3, -8
    1422                            .dwcfi  save_reg_to_mem, 2, -12
    1423                            .dwcfi  save_reg_to_mem, 1, -16
    1424                    $C$DW$118       .dwtag  DW_TAG_variable, DW_AT_name("xEventGroup")
    1425                            .dwattr $C$DW$118, DW_AT_TI_symbol_name("xEventGroup")
    1426                            .dwattr $C$DW$118, DW_AT_type(*$C$DW$T$62)
    1427                            .dwattr $C$DW$118, DW_AT_location[DW_OP_breg13 0]
    1428                    $C$DW$119       .dwtag  DW_TAG_variable, DW_AT_name("pxEventBits")
    1429                            .dwattr $C$DW$119, DW_AT_TI_symbol_name("pxEventBits")
    1430                            .dwattr $C$DW$119, DW_AT_type(*$C$DW$T$163)
TI ARM Assembler PC v5.1.7 Tue Sep 16 08:38:38 2014

Tools Copyright (c) 1996-2014 Texas Instruments Incorporated
event_groups.asm                                                     PAGE   27

    1431                            .dwattr $C$DW$119, DW_AT_location[DW_OP_breg13 4]
    1432                    $C$DW$120       .dwtag  DW_TAG_variable, DW_AT_name("pxTasksWaitingForBits")
    1433                            .dwattr $C$DW$120, DW_AT_TI_symbol_name("pxTasksWaitingForBits")
    1434                            .dwattr $C$DW$120, DW_AT_type(*$C$DW$T$165)
    1435                            .dwattr $C$DW$120, DW_AT_location[DW_OP_breg13 8]
    1436 000002dc 9000              STR       A1, [SP, #0]          ; [DPU_3_PIPE] |568|  ; [ORIG 16-BIT INS]
    1437                            .dwpsn  file "../Source/event_groups.c",line 569,column 27,is_stmt,isa 1
    1438 000002de 9800              LDR       A1, [SP, #0]          ; [DPU_3_PIPE] |569|  ; [ORIG 16-BIT INS]
    1439 000002e0 9001              STR       A1, [SP, #4]          ; [DPU_3_PIPE] |569|  ; [ORIG 16-BIT INS]
    1440                            .dwpsn  file "../Source/event_groups.c",line 570,column 37,is_stmt,isa 1
    1441 000002e2 9801              LDR       A1, [SP, #4]          ; [DPU_3_PIPE] |570|  ; [ORIG 16-BIT INS]
    1442 000002e4 1D00              ADDS      A1, A1, #4            ; [DPU_3_PIPE] |570|  ; [ORIG 16-BIT INS]
    1443 000002e6 9002              STR       A1, [SP, #8]          ; [DPU_3_PIPE] |570|  ; [ORIG 16-BIT INS]
    1444                            .dwpsn  file "../Source/event_groups.c",line 572,column 2,is_stmt,isa 1
    1445                    $C$DW$121       .dwtag  DW_TAG_TI_branch
    1446                            .dwattr $C$DW$121, DW_AT_low_pc(0x00)
    1447                            .dwattr $C$DW$121, DW_AT_name("vTaskSuspendAll")
    1448                            .dwattr $C$DW$121, DW_AT_TI_call
    1449 000002e8 FFFEF7FF!         BL        vTaskSuspendAll       ; [DPU_3_PIPE] |572|  ; [KEEP 32-BIT INS]
    1450                            ; CALL OCCURS {vTaskSuspendAll }  ; [] |572| 
    1451                            .dwpsn  file "../Source/event_groups.c",line 576,column 3,is_stmt,isa 1
    1452 000002ec E005              B         ||$C$L25||            ; [DPU_3_PIPE] |576|  ; [ORIG 16-BIT INS]
    1453                            ; BRANCH OCCURS {||$C$L25||}     ; [] |576| 
    1454                    ;* --------------------------------------------------------------------------*
    1455 000002ee           ||$C$L24||:    
    1456                            .dwpsn  file "../Source/event_groups.c",line 581,column 4,is_stmt,isa 1
    1457 000002ee 9802              LDR       A1, [SP, #8]          ; [DPU_3_PIPE] |581|  ; [ORIG 16-BIT INS]
    1458 000002f0 68C0              LDR       A1, [A1, #12]         ; [DPU_3_PIPE] |581|  ; [ORIG 16-BIT INS]
    1459 000002f2 7100F04F          MOV       A2, #33554432         ; [DPU_3_PIPE] |581|  ; [KEEP 32-BIT INS]
    1460                    $C$DW$122       .dwtag  DW_TAG_TI_branch
    1461                            .dwattr $C$DW$122, DW_AT_low_pc(0x00)
    1462                            .dwattr $C$DW$122, DW_AT_name("xTaskRemoveFromUnorderedEventList")
    1463                            .dwattr $C$DW$122, DW_AT_TI_call
    1464 000002f6 FFFEF7FF!         BL        xTaskRemoveFromUnorderedEventList ; [DPU_3_PIPE] |581|  ; [KEEP 32-BIT INS]
    1465                            ; CALL OCCURS {xTaskRemoveFromUnorderedEventList }  ; [] |581| 
    1466                    ;* --------------------------------------------------------------------------*
    1467                    ;*   BEGIN LOOP ||$C$L25||
    1468                    ;* --------------------------------------------------------------------------*
    1469 000002fa           ||$C$L25||:    
    1470                            .dwpsn  file "../Source/event_groups.c",line 576,column 10,is_stmt,isa 1
    1471 000002fa 9802              LDR       A1, [SP, #8]          ; [DPU_3_PIPE] |576|  ; [ORIG 16-BIT INS]
    1472 000002fc 6800              LDR       A1, [A1, #0]          ; [DPU_3_PIPE] |576|  ; [ORIG 16-BIT INS]
    1473 000002fe 2800              CMP       A1, #0                ; [DPU_3_PIPE] |576|  ; [ORIG 16-BIT INS]
    1474 00000300 D1F5              BNE       ||$C$L24||            ; [DPU_3_PIPE] |576|  ; [ORIG 16-BIT INS]
    1475                            ; BRANCHCC OCCURS {||$C$L24||}   ; [] |576| 
    1476                    ;* --------------------------------------------------------------------------*
    1477                            .dwpsn  file "../Source/event_groups.c",line 584,column 3,is_stmt,isa 1
    1478 00000302 9801              LDR       A1, [SP, #4]          ; [DPU_3_PIPE] |584|  ; [ORIG 16-BIT INS]
    1479                    $C$DW$123       .dwtag  DW_TAG_TI_branch
    1480                            .dwattr $C$DW$123, DW_AT_low_pc(0x00)
    1481                            .dwattr $C$DW$123, DW_AT_name("vPortFree")
    1482                            .dwattr $C$DW$123, DW_AT_TI_call
    1483 00000304 FFFEF7FF!         BL        vPortFree             ; [DPU_3_PIPE] |584|  ; [KEEP 32-BIT INS]
    1484                            ; CALL OCCURS {vPortFree }       ; [] |584| 
    1485                            .dwpsn  file "../Source/event_groups.c",line 586,column 2,is_stmt,isa 1
TI ARM Assembler PC v5.1.7 Tue Sep 16 08:38:38 2014

Tools Copyright (c) 1996-2014 Texas Instruments Incorporated
event_groups.asm                                                     PAGE   28

    1486                    $C$DW$124       .dwtag  DW_TAG_TI_branch
    1487                            .dwattr $C$DW$124, DW_AT_low_pc(0x00)
    1488                            .dwattr $C$DW$124, DW_AT_name("xTaskResumeAll")
    1489                            .dwattr $C$DW$124, DW_AT_TI_call
    1490 00000308 FFFEF7FF!         BL        xTaskResumeAll        ; [DPU_3_PIPE] |586|  ; [KEEP 32-BIT INS]
    1491                            ; CALL OCCURS {xTaskResumeAll }  ; [] |586| 
    1492                            .dwpsn  file "../Source/event_groups.c",line 587,column 1,is_stmt,isa 1
    1493                    $C$DW$125       .dwtag  DW_TAG_TI_branch
    1494                            .dwattr $C$DW$125, DW_AT_low_pc(0x00)
    1495                            .dwattr $C$DW$125, DW_AT_TI_return
    1496 0000030c BD0E              POP       {A2, A3, A4, PC}      ; [DPU_3_PIPE]  ; [ORIG 16-BIT INS]
    1497                            .dwcfi  cfa_offset, 0
    1498                            ; BRANCH OCCURS                  ; [] 
    1499                            .dwattr $C$DW$116, DW_AT_TI_end_file("../Source/event_groups.c")
    1500                            .dwattr $C$DW$116, DW_AT_TI_end_line(0x24b)
    1501                            .dwattr $C$DW$116, DW_AT_TI_end_column(0x01)
    1502                            .dwendentry
    1503                            .dwendtag $C$DW$116
    1504                    
    1505 0000030e                   .sect   ".text"
    1506                            .clink
    1507                            .thumbfunc vEventGroupSetBitsCallback
    1508 0000030e                   .thumb
    1509                            .global vEventGroupSetBitsCallback
    1510                    
    1511                    $C$DW$126       .dwtag  DW_TAG_subprogram, DW_AT_name("vEventGroupSetBitsCallback")
    1512                            .dwattr $C$DW$126, DW_AT_low_pc(vEventGroupSetBitsCallback)
    1513                            .dwattr $C$DW$126, DW_AT_high_pc(0x00)
    1514                            .dwattr $C$DW$126, DW_AT_TI_symbol_name("vEventGroupSetBitsCallback")
    1515                            .dwattr $C$DW$126, DW_AT_external
    1516                            .dwattr $C$DW$126, DW_AT_TI_begin_file("../Source/event_groups.c")
    1517                            .dwattr $C$DW$126, DW_AT_TI_begin_line(0x250)
    1518                            .dwattr $C$DW$126, DW_AT_TI_begin_column(0x06)
    1519                            .dwattr $C$DW$126, DW_AT_decl_file("../Source/event_groups.c")
    1520                            .dwattr $C$DW$126, DW_AT_decl_line(0x250)
    1521                            .dwattr $C$DW$126, DW_AT_decl_column(0x06)
    1522                            .dwattr $C$DW$126, DW_AT_TI_max_frame_size(0x10)
    1523                            .dwpsn  file "../Source/event_groups.c",line 593,column 1,is_stmt,address vEventGroupSetBitsCa
    1524                    
    1525                            .dwfde $C$DW$CIE, vEventGroupSetBitsCallback
    1526                    $C$DW$127       .dwtag  DW_TAG_formal_parameter, DW_AT_name("pvEventGroup")
    1527                            .dwattr $C$DW$127, DW_AT_TI_symbol_name("pvEventGroup")
    1528                            .dwattr $C$DW$127, DW_AT_type(*$C$DW$T$3)
    1529                            .dwattr $C$DW$127, DW_AT_location[DW_OP_reg0]
    1530                    $C$DW$128       .dwtag  DW_TAG_formal_parameter, DW_AT_name("ulBitsToSet")
    1531                            .dwattr $C$DW$128, DW_AT_TI_symbol_name("ulBitsToSet")
    1532                            .dwattr $C$DW$128, DW_AT_type(*$C$DW$T$81)
    1533                            .dwattr $C$DW$128, DW_AT_location[DW_OP_reg1]
    1534                    
    1535                    ;*****************************************************************************
    1536                    ;* FUNCTION NAME: vEventGroupSetBitsCallback                                 *
    1537                    ;*                                                                           *
    1538                    ;*   Regs Modified     : A1,A2,A3,A4,V9,SP,LR,SR,D0,D0_hi,D1,D1_hi,D2,D2_hi, *
    1539                    ;*                           D3,D3_hi,D4,D4_hi,D5,D5_hi,D6,D6_hi,D7,D7_hi,   *
    1540                    ;*                           FPEXC,FPSCR                                     *
TI ARM Assembler PC v5.1.7 Tue Sep 16 08:38:38 2014

Tools Copyright (c) 1996-2014 Texas Instruments Incorporated
event_groups.asm                                                     PAGE   29

    1541                    ;*   Regs Used         : A1,A2,A3,A4,V9,SP,LR,SR,D0,D0_hi,D1,D1_hi,D2,D2_hi, *
    1542                    ;*                           D3,D3_hi,D4,D4_hi,D5,D5_hi,D6,D6_hi,D7,D7_hi,   *
    1543                    ;*                           FPEXC,FPSCR                                     *
    1544                    ;*   Local Frame Size  : 0 Args + 8 Auto + 4 Save = 12 byte                  *
    1545                    ;*****************************************************************************
    1546 0000030e           vEventGroupSetBitsCallback:
    1547                    ;* --------------------------------------------------------------------------*
    1548                            .dwcfi  cfa_offset, 0
    1549 0000030e B50E              PUSH      {A2, A3, A4, LR}      ; [DPU_3_PIPE]  ; [ORIG 16-BIT INS]
    1550                            .dwcfi  cfa_offset, 16
    1551                            .dwcfi  save_reg_to_mem, 14, -4
    1552                            .dwcfi  save_reg_to_mem, 3, -8
    1553                            .dwcfi  save_reg_to_mem, 2, -12
    1554                            .dwcfi  save_reg_to_mem, 1, -16
    1555                    $C$DW$129       .dwtag  DW_TAG_variable, DW_AT_name("pvEventGroup")
    1556                            .dwattr $C$DW$129, DW_AT_TI_symbol_name("pvEventGroup")
    1557                            .dwattr $C$DW$129, DW_AT_type(*$C$DW$T$3)
    1558                            .dwattr $C$DW$129, DW_AT_location[DW_OP_breg13 0]
    1559                    $C$DW$130       .dwtag  DW_TAG_variable, DW_AT_name("ulBitsToSet")
    1560                            .dwattr $C$DW$130, DW_AT_TI_symbol_name("ulBitsToSet")
    1561                            .dwattr $C$DW$130, DW_AT_type(*$C$DW$T$81)
    1562                            .dwattr $C$DW$130, DW_AT_location[DW_OP_breg13 4]
    1563 00000310 9101              STR       A2, [SP, #4]          ; [DPU_3_PIPE] |593|  ; [ORIG 16-BIT INS]
    1564 00000312 9000              STR       A1, [SP, #0]          ; [DPU_3_PIPE] |593|  ; [ORIG 16-BIT INS]
    1565                            .dwpsn  file "../Source/event_groups.c",line 594,column 2,is_stmt,isa 1
    1566 00000314 9800              LDR       A1, [SP, #0]          ; [DPU_3_PIPE] |594|  ; [ORIG 16-BIT INS]
    1567 00000316 9901              LDR       A2, [SP, #4]          ; [DPU_3_PIPE] |594|  ; [ORIG 16-BIT INS]
    1568                    $C$DW$131       .dwtag  DW_TAG_TI_branch
    1569                            .dwattr $C$DW$131, DW_AT_low_pc(0x00)
    1570                            .dwattr $C$DW$131, DW_AT_name("xEventGroupSetBits")
    1571                            .dwattr $C$DW$131, DW_AT_TI_call
    1572 00000318 FF7BF7FF          BL        xEventGroupSetBits    ; [DPU_3_PIPE] |594|  ; [KEEP 32-BIT INS]
    1573                            ; CALL OCCURS {xEventGroupSetBits }  ; [] |594| 
    1574                            .dwpsn  file "../Source/event_groups.c",line 595,column 1,is_stmt,isa 1
    1575                    $C$DW$132       .dwtag  DW_TAG_TI_branch
    1576                            .dwattr $C$DW$132, DW_AT_low_pc(0x00)
    1577                            .dwattr $C$DW$132, DW_AT_TI_return
    1578 0000031c BD0E              POP       {A2, A3, A4, PC}      ; [DPU_3_PIPE]  ; [ORIG 16-BIT INS]
    1579                            .dwcfi  cfa_offset, 0
    1580                            ; BRANCH OCCURS                  ; [] 
    1581                            .dwattr $C$DW$126, DW_AT_TI_end_file("../Source/event_groups.c")
    1582                            .dwattr $C$DW$126, DW_AT_TI_end_line(0x253)
    1583                            .dwattr $C$DW$126, DW_AT_TI_end_column(0x01)
    1584                            .dwendentry
    1585                            .dwendtag $C$DW$126
    1586                    
    1587 0000031e                   .sect   ".text"
    1588                            .clink
    1589                            .thumbfunc vEventGroupClearBitsCallback
    1590 0000031e                   .thumb
    1591                            .global vEventGroupClearBitsCallback
    1592                    
    1593                    $C$DW$133       .dwtag  DW_TAG_subprogram, DW_AT_name("vEventGroupClearBitsCallback")
    1594                            .dwattr $C$DW$133, DW_AT_low_pc(vEventGroupClearBitsCallback)
    1595                            .dwattr $C$DW$133, DW_AT_high_pc(0x00)
TI ARM Assembler PC v5.1.7 Tue Sep 16 08:38:38 2014

Tools Copyright (c) 1996-2014 Texas Instruments Incorporated
event_groups.asm                                                     PAGE   30

    1596                            .dwattr $C$DW$133, DW_AT_TI_symbol_name("vEventGroupClearBitsCallback")
    1597                            .dwattr $C$DW$133, DW_AT_external
    1598                            .dwattr $C$DW$133, DW_AT_TI_begin_file("../Source/event_groups.c")
    1599                            .dwattr $C$DW$133, DW_AT_TI_begin_line(0x258)
    1600                            .dwattr $C$DW$133, DW_AT_TI_begin_column(0x06)
    1601                            .dwattr $C$DW$133, DW_AT_decl_file("../Source/event_groups.c")
    1602                            .dwattr $C$DW$133, DW_AT_decl_line(0x258)
    1603                            .dwattr $C$DW$133, DW_AT_decl_column(0x06)
    1604                            .dwattr $C$DW$133, DW_AT_TI_max_frame_size(0x10)
    1605                            .dwpsn  file "../Source/event_groups.c",line 601,column 1,is_stmt,address vEventGroupClearBits
    1606                    
    1607                            .dwfde $C$DW$CIE, vEventGroupClearBitsCallback
    1608                    $C$DW$134       .dwtag  DW_TAG_formal_parameter, DW_AT_name("pvEventGroup")
    1609                            .dwattr $C$DW$134, DW_AT_TI_symbol_name("pvEventGroup")
    1610                            .dwattr $C$DW$134, DW_AT_type(*$C$DW$T$3)
    1611                            .dwattr $C$DW$134, DW_AT_location[DW_OP_reg0]
    1612                    $C$DW$135       .dwtag  DW_TAG_formal_parameter, DW_AT_name("ulBitsToClear")
    1613                            .dwattr $C$DW$135, DW_AT_TI_symbol_name("ulBitsToClear")
    1614                            .dwattr $C$DW$135, DW_AT_type(*$C$DW$T$81)
    1615                            .dwattr $C$DW$135, DW_AT_location[DW_OP_reg1]
    1616                    
    1617                    ;*****************************************************************************
    1618                    ;* FUNCTION NAME: vEventGroupClearBitsCallback                               *
    1619                    ;*                                                                           *
    1620                    ;*   Regs Modified     : A1,A2,A3,A4,V9,SP,LR,SR,D0,D0_hi,D1,D1_hi,D2,D2_hi, *
    1621                    ;*                           D3,D3_hi,D4,D4_hi,D5,D5_hi,D6,D6_hi,D7,D7_hi,   *
    1622                    ;*                           FPEXC,FPSCR                                     *
    1623                    ;*   Regs Used         : A1,A2,A3,A4,V9,SP,LR,SR,D0,D0_hi,D1,D1_hi,D2,D2_hi, *
    1624                    ;*                           D3,D3_hi,D4,D4_hi,D5,D5_hi,D6,D6_hi,D7,D7_hi,   *
    1625                    ;*                           FPEXC,FPSCR                                     *
    1626                    ;*   Local Frame Size  : 0 Args + 8 Auto + 4 Save = 12 byte                  *
    1627                    ;*****************************************************************************
    1628 0000031e           vEventGroupClearBitsCallback:
    1629                    ;* --------------------------------------------------------------------------*
    1630                            .dwcfi  cfa_offset, 0
    1631 0000031e B50E              PUSH      {A2, A3, A4, LR}      ; [DPU_3_PIPE]  ; [ORIG 16-BIT INS]
    1632                            .dwcfi  cfa_offset, 16
    1633                            .dwcfi  save_reg_to_mem, 14, -4
    1634                            .dwcfi  save_reg_to_mem, 3, -8
    1635                            .dwcfi  save_reg_to_mem, 2, -12
    1636                            .dwcfi  save_reg_to_mem, 1, -16
    1637                    $C$DW$136       .dwtag  DW_TAG_variable, DW_AT_name("pvEventGroup")
    1638                            .dwattr $C$DW$136, DW_AT_TI_symbol_name("pvEventGroup")
    1639                            .dwattr $C$DW$136, DW_AT_type(*$C$DW$T$3)
    1640                            .dwattr $C$DW$136, DW_AT_location[DW_OP_breg13 0]
    1641                    $C$DW$137       .dwtag  DW_TAG_variable, DW_AT_name("ulBitsToClear")
    1642                            .dwattr $C$DW$137, DW_AT_TI_symbol_name("ulBitsToClear")
    1643                            .dwattr $C$DW$137, DW_AT_type(*$C$DW$T$81)
    1644                            .dwattr $C$DW$137, DW_AT_location[DW_OP_breg13 4]
    1645 00000320 9101              STR       A2, [SP, #4]          ; [DPU_3_PIPE] |601|  ; [ORIG 16-BIT INS]
    1646 00000322 9000              STR       A1, [SP, #0]          ; [DPU_3_PIPE] |601|  ; [ORIG 16-BIT INS]
    1647                            .dwpsn  file "../Source/event_groups.c",line 602,column 2,is_stmt,isa 1
    1648 00000324 9800              LDR       A1, [SP, #0]          ; [DPU_3_PIPE] |602|  ; [ORIG 16-BIT INS]
    1649 00000326 9901              LDR       A2, [SP, #4]          ; [DPU_3_PIPE] |602|  ; [ORIG 16-BIT INS]
    1650                    $C$DW$138       .dwtag  DW_TAG_TI_branch
TI ARM Assembler PC v5.1.7 Tue Sep 16 08:38:38 2014

Tools Copyright (c) 1996-2014 Texas Instruments Incorporated
event_groups.asm                                                     PAGE   31

    1651                            .dwattr $C$DW$138, DW_AT_low_pc(0x00)
    1652                            .dwattr $C$DW$138, DW_AT_name("xEventGroupClearBits")
    1653                            .dwattr $C$DW$138, DW_AT_TI_call
    1654 00000328 FF4BF7FF          BL        xEventGroupClearBits  ; [DPU_3_PIPE] |602|  ; [KEEP 32-BIT INS]
    1655                            ; CALL OCCURS {xEventGroupClearBits }  ; [] |602| 
    1656                            .dwpsn  file "../Source/event_groups.c",line 603,column 1,is_stmt,isa 1
    1657                    $C$DW$139       .dwtag  DW_TAG_TI_branch
    1658                            .dwattr $C$DW$139, DW_AT_low_pc(0x00)
    1659                            .dwattr $C$DW$139, DW_AT_TI_return
    1660 0000032c BD0E              POP       {A2, A3, A4, PC}      ; [DPU_3_PIPE]  ; [ORIG 16-BIT INS]
    1661                            .dwcfi  cfa_offset, 0
    1662                            ; BRANCH OCCURS                  ; [] 
    1663                            .dwattr $C$DW$133, DW_AT_TI_end_file("../Source/event_groups.c")
    1664                            .dwattr $C$DW$133, DW_AT_TI_end_line(0x25b)
    1665                            .dwattr $C$DW$133, DW_AT_TI_end_column(0x01)
    1666                            .dwendentry
    1667                            .dwendtag $C$DW$133
    1668                    
    1669 0000032e                   .sect   ".text"
    1670                            .clink
    1671                            .thumbfunc prvTestWaitCondition
    1672 0000032e                   .thumb
    1673                    
    1674                    $C$DW$140       .dwtag  DW_TAG_subprogram, DW_AT_name("prvTestWaitCondition")
    1675                            .dwattr $C$DW$140, DW_AT_low_pc(prvTestWaitCondition)
    1676                            .dwattr $C$DW$140, DW_AT_high_pc(0x00)
    1677                            .dwattr $C$DW$140, DW_AT_TI_symbol_name("prvTestWaitCondition")
    1678                            .dwattr $C$DW$140, DW_AT_type(*$C$DW$T$55)
    1679                            .dwattr $C$DW$140, DW_AT_TI_begin_file("../Source/event_groups.c")
    1680                            .dwattr $C$DW$140, DW_AT_TI_begin_line(0x25e)
    1681                            .dwattr $C$DW$140, DW_AT_TI_begin_column(0x13)
    1682                            .dwattr $C$DW$140, DW_AT_decl_file("../Source/event_groups.c")
    1683                            .dwattr $C$DW$140, DW_AT_decl_line(0x25e)
    1684                            .dwattr $C$DW$140, DW_AT_decl_column(0x13)
    1685                            .dwattr $C$DW$140, DW_AT_TI_max_frame_size(0x10)
    1686                            .dwpsn  file "../Source/event_groups.c",line 607,column 1,is_stmt,address prvTestWaitCondition
    1687                    
    1688                            .dwfde $C$DW$CIE, prvTestWaitCondition
    1689                    $C$DW$141       .dwtag  DW_TAG_formal_parameter, DW_AT_name("uxCurrentEventBits")
    1690                            .dwattr $C$DW$141, DW_AT_TI_symbol_name("uxCurrentEventBits")
    1691                            .dwattr $C$DW$141, DW_AT_type(*$C$DW$T$112)
    1692                            .dwattr $C$DW$141, DW_AT_location[DW_OP_reg0]
    1693                    $C$DW$142       .dwtag  DW_TAG_formal_parameter, DW_AT_name("uxBitsToWaitFor")
    1694                            .dwattr $C$DW$142, DW_AT_TI_symbol_name("uxBitsToWaitFor")
    1695                            .dwattr $C$DW$142, DW_AT_type(*$C$DW$T$112)
    1696                            .dwattr $C$DW$142, DW_AT_location[DW_OP_reg1]
    1697                    $C$DW$143       .dwtag  DW_TAG_formal_parameter, DW_AT_name("xWaitForAllBits")
    1698                            .dwattr $C$DW$143, DW_AT_TI_symbol_name("xWaitForAllBits")
    1699                            .dwattr $C$DW$143, DW_AT_type(*$C$DW$T$107)
    1700                            .dwattr $C$DW$143, DW_AT_location[DW_OP_reg2]
    1701                    
    1702                    ;*****************************************************************************
    1703                    ;* FUNCTION NAME: prvTestWaitCondition                                       *
    1704                    ;*                                                                           *
    1705                    ;*   Regs Modified     : A1,A2,A3,SP,SR                                      *
TI ARM Assembler PC v5.1.7 Tue Sep 16 08:38:38 2014

Tools Copyright (c) 1996-2014 Texas Instruments Incorporated
event_groups.asm                                                     PAGE   32

    1706                    ;*   Regs Used         : A1,A2,A3,SP,LR,SR                                   *
    1707                    ;*   Local Frame Size  : 0 Args + 16 Auto + 0 Save = 16 byte                 *
    1708                    ;*****************************************************************************
    1709 0000032e           prvTestWaitCondition:
    1710                    ;* --------------------------------------------------------------------------*
    1711                            .dwcfi  cfa_offset, 0
    1712 0000032e 0D10F1AD          SUB       SP, SP, #16           ; [DPU_3_PIPE]  ; [KEEP 32-BIT INS]
    1713                            .dwcfi  cfa_offset, 16
    1714                    $C$DW$144       .dwtag  DW_TAG_variable, DW_AT_name("uxCurrentEventBits")
    1715                            .dwattr $C$DW$144, DW_AT_TI_symbol_name("uxCurrentEventBits")
    1716                            .dwattr $C$DW$144, DW_AT_type(*$C$DW$T$112)
    1717                            .dwattr $C$DW$144, DW_AT_location[DW_OP_breg13 0]
    1718                    $C$DW$145       .dwtag  DW_TAG_variable, DW_AT_name("uxBitsToWaitFor")
    1719                            .dwattr $C$DW$145, DW_AT_TI_symbol_name("uxBitsToWaitFor")
    1720                            .dwattr $C$DW$145, DW_AT_type(*$C$DW$T$112)
    1721                            .dwattr $C$DW$145, DW_AT_location[DW_OP_breg13 4]
    1722                    $C$DW$146       .dwtag  DW_TAG_variable, DW_AT_name("xWaitForAllBits")
    1723                            .dwattr $C$DW$146, DW_AT_TI_symbol_name("xWaitForAllBits")
    1724                            .dwattr $C$DW$146, DW_AT_type(*$C$DW$T$107)
    1725                            .dwattr $C$DW$146, DW_AT_location[DW_OP_breg13 8]
    1726                    $C$DW$147       .dwtag  DW_TAG_variable, DW_AT_name("xWaitConditionMet")
    1727                            .dwattr $C$DW$147, DW_AT_TI_symbol_name("xWaitConditionMet")
    1728                            .dwattr $C$DW$147, DW_AT_type(*$C$DW$T$55)
    1729                            .dwattr $C$DW$147, DW_AT_location[DW_OP_breg13 12]
    1730 00000332 9202              STR       A3, [SP, #8]          ; [DPU_3_PIPE] |607|  ; [ORIG 16-BIT INS]
    1731 00000334 9101              STR       A2, [SP, #4]          ; [DPU_3_PIPE] |607|  ; [ORIG 16-BIT INS]
    1732 00000336 9000              STR       A1, [SP, #0]          ; [DPU_3_PIPE] |607|  ; [ORIG 16-BIT INS]
    1733                            .dwpsn  file "../Source/event_groups.c",line 608,column 30,is_stmt,isa 1
    1734 00000338 2000              MOVS      A1, #0                ; [DPU_3_PIPE] |608|  ; [ORIG 16-BIT INS]
    1735 0000033a 9003              STR       A1, [SP, #12]         ; [DPU_3_PIPE] |608|  ; [ORIG 16-BIT INS]
    1736                            .dwpsn  file "../Source/event_groups.c",line 610,column 2,is_stmt,isa 1
    1737 0000033c 9802              LDR       A1, [SP, #8]          ; [DPU_3_PIPE] |610|  ; [ORIG 16-BIT INS]
    1738 0000033e B930              CBNZ      A1, ||$C$L26||        ; []  ; [ORIG 16-BIT INS]
    1739                            ; BRANCHCC OCCURS {||$C$L26||}   ; [] |610| 
    1740                    ;* --------------------------------------------------------------------------*
    1741                            .dwpsn  file "../Source/event_groups.c",line 614,column 3,is_stmt,isa 1
    1742 00000340 9800              LDR       A1, [SP, #0]          ; [DPU_3_PIPE] |614|  ; [ORIG 16-BIT INS]
    1743 00000342 9901              LDR       A2, [SP, #4]          ; [DPU_3_PIPE] |614|  ; [ORIG 16-BIT INS]
    1744 00000344 4201              TST       A2, A1                ; [DPU_3_PIPE] |614|  ; [ORIG 16-BIT INS]
    1745 00000346 D00A              BEQ       ||$C$L27||            ; [DPU_3_PIPE] |614|  ; [ORIG 16-BIT INS]
    1746                            ; BRANCHCC OCCURS {||$C$L27||}   ; [] |614| 
    1747                    ;* --------------------------------------------------------------------------*
    1748                            .dwpsn  file "../Source/event_groups.c",line 616,column 4,is_stmt,isa 1
    1749 00000348 2001              MOVS      A1, #1                ; [DPU_3_PIPE] |616|  ; [ORIG 16-BIT INS]
    1750 0000034a 9003              STR       A1, [SP, #12]         ; [DPU_3_PIPE] |616|  ; [ORIG 16-BIT INS]
    1751                            .dwpsn  file "../Source/event_groups.c",line 617,column 3,is_stmt,isa 1
    1752 0000034c E007              B         ||$C$L27||            ; [DPU_3_PIPE] |617|  ; [ORIG 16-BIT INS]
    1753                            ; BRANCH OCCURS {||$C$L27||}     ; [] |617| 
    1754                    ;* --------------------------------------------------------------------------*
    1755                    ;* --------------------------------------------------------------------------*
    1756 0000034e           ||$C$L26||:    
    1757                            .dwpsn  file "../Source/event_groups.c",line 627,column 3,is_stmt,isa 1
    1758 0000034e 9A00              LDR       A3, [SP, #0]          ; [DPU_3_PIPE] |627|  ; [ORIG 16-BIT INS]
    1759 00000350 9801              LDR       A1, [SP, #4]          ; [DPU_3_PIPE] |627|  ; [ORIG 16-BIT INS]
    1760 00000352 9901              LDR       A2, [SP, #4]          ; [DPU_3_PIPE] |627|  ; [ORIG 16-BIT INS]
TI ARM Assembler PC v5.1.7 Tue Sep 16 08:38:38 2014

Tools Copyright (c) 1996-2014 Texas Instruments Incorporated
event_groups.asm                                                     PAGE   33

    1761 00000354 4010              ANDS      A1, A1, A3            ; [DPU_3_PIPE] |627|  ; [ORIG 16-BIT INS]
    1762 00000356 4281              CMP       A2, A1                ; [DPU_3_PIPE] |627|  ; [ORIG 16-BIT INS]
    1763 00000358 D101              BNE       ||$C$L27||            ; [DPU_3_PIPE] |627|  ; [ORIG 16-BIT INS]
    1764                            ; BRANCHCC OCCURS {||$C$L27||}   ; [] |627| 
    1765                    ;* --------------------------------------------------------------------------*
    1766                            .dwpsn  file "../Source/event_groups.c",line 629,column 4,is_stmt,isa 1
    1767 0000035a 2001              MOVS      A1, #1                ; [DPU_3_PIPE] |629|  ; [ORIG 16-BIT INS]
    1768 0000035c 9003              STR       A1, [SP, #12]         ; [DPU_3_PIPE] |629|  ; [ORIG 16-BIT INS]
    1769                            .dwpsn  file "../Source/event_groups.c",line 630,column 3,is_stmt,isa 1
    1770                    ;* --------------------------------------------------------------------------*
    1771 0000035e           ||$C$L27||:    
    1772                            .dwpsn  file "../Source/event_groups.c",line 637,column 2,is_stmt,isa 1
    1773 0000035e 9803              LDR       A1, [SP, #12]         ; [DPU_3_PIPE] |637|  ; [ORIG 16-BIT INS]
    1774                            .dwpsn  file "../Source/event_groups.c",line 638,column 1,is_stmt,isa 1
    1775 00000360 B004              ADD       SP, SP, #16           ; [DPU_3_PIPE]  ; [ORIG 16-BIT INS]
    1776                            .dwcfi  cfa_offset, 0
    1777                    $C$DW$148       .dwtag  DW_TAG_TI_branch
    1778                            .dwattr $C$DW$148, DW_AT_low_pc(0x00)
    1779                            .dwattr $C$DW$148, DW_AT_TI_return
    1780 00000362 4770              BX        LR                    ; [DPU_3_PIPE]  ; [ORIG 16-BIT INS]
    1781                            ; BRANCH OCCURS                  ; [] 
    1782                            .dwattr $C$DW$140, DW_AT_TI_end_file("../Source/event_groups.c")
    1783                            .dwattr $C$DW$140, DW_AT_TI_end_line(0x27e)
    1784                            .dwattr $C$DW$140, DW_AT_TI_end_column(0x01)
    1785                            .dwendentry
    1786                            .dwendtag $C$DW$140
    1787                    
    1788                    ;*****************************************************************************
    1789                    ;* UNDEFINED EXTERNAL REFERENCES                                             *
    1790                    ;*****************************************************************************
    1791                            .global vPortYieldFromISR
    1792                            .global vPortEnterCritical
    1793                            .global vPortExitCritical
    1794                            .global ulPortSetInterruptMask
    1795                            .global vPortClearInterruptMask
    1796                            .global pvPortMalloc
    1797                            .global vPortFree
    1798                            .global vListInitialise
    1799                            .global vTaskSuspendAll
    1800                            .global xTaskResumeAll
    1801                            .global vTaskPlaceOnUnorderedEventList
    1802                            .global xTaskRemoveFromUnorderedEventList
    1803                            .global uxTaskResetEventItemValue
    1804                    
    1805                    ;******************************************************************************
    1806                    ;* BUILD ATTRIBUTES                                                           *
    1807                    ;******************************************************************************
    1808                            .battr "aeabi", Tag_File, 1, Tag_ABI_PCS_wchar_t(2)
    1809                            .battr "aeabi", Tag_File, 1, Tag_ABI_FP_rounding(0)
    1810                            .battr "aeabi", Tag_File, 1, Tag_ABI_FP_denormal(0)
    1811                            .battr "aeabi", Tag_File, 1, Tag_ABI_FP_exceptions(0)
    1812                            .battr "aeabi", Tag_File, 1, Tag_ABI_FP_number_model(1)
    1813                            .battr "aeabi", Tag_File, 1, Tag_ABI_enum_size(1)
    1814                            .battr "aeabi", Tag_File, 1, Tag_ABI_optimization_goals(5)
    1815                            .battr "aeabi", Tag_File, 1, Tag_ABI_FP_optimization_goals(0)
TI ARM Assembler PC v5.1.7 Tue Sep 16 08:38:38 2014

Tools Copyright (c) 1996-2014 Texas Instruments Incorporated
event_groups.asm                                                     PAGE   34

    1816                            .battr "TI", Tag_File, 1, Tag_Bitfield_layout(2)
    1817                            .battr "TI", Tag_File, 1, Tag_FP_interface(1)
    1818                    
    1819                    ;******************************************************************************
    1820                    ;* TYPE INFORMATION                                                           *
    1821                    ;******************************************************************************
    1822                    
    1823                    $C$DW$T$51      .dwtag  DW_TAG_enumeration_type
    1824                            .dwattr $C$DW$T$51, DW_AT_byte_size(0x01)
    1825                    $C$DW$149       .dwtag  DW_TAG_enumerator, DW_AT_name("eRunning"), DW_AT_const_value(0x00)
    1826                            .dwattr $C$DW$149, DW_AT_decl_file("H:/class/690 Adv. Emb. Sys/FreeRTOS8_EECS_TM4C1294_SensorH
    1827                            .dwattr $C$DW$149, DW_AT_decl_line(0x6e)
    1828                            .dwattr $C$DW$149, DW_AT_decl_column(0x02)
    1829                    $C$DW$150       .dwtag  DW_TAG_enumerator, DW_AT_name("eReady"), DW_AT_const_value(0x01)
    1830                            .dwattr $C$DW$150, DW_AT_decl_file("H:/class/690 Adv. Emb. Sys/FreeRTOS8_EECS_TM4C1294_SensorH
    1831                            .dwattr $C$DW$150, DW_AT_decl_line(0x6f)
    1832                            .dwattr $C$DW$150, DW_AT_decl_column(0x02)
    1833                    $C$DW$151       .dwtag  DW_TAG_enumerator, DW_AT_name("eBlocked"), DW_AT_const_value(0x02)
    1834                            .dwattr $C$DW$151, DW_AT_decl_file("H:/class/690 Adv. Emb. Sys/FreeRTOS8_EECS_TM4C1294_SensorH
    1835                            .dwattr $C$DW$151, DW_AT_decl_line(0x70)
    1836                            .dwattr $C$DW$151, DW_AT_decl_column(0x02)
    1837                    $C$DW$152       .dwtag  DW_TAG_enumerator, DW_AT_name("eSuspended"), DW_AT_const_value(0x03)
    1838                            .dwattr $C$DW$152, DW_AT_decl_file("H:/class/690 Adv. Emb. Sys/FreeRTOS8_EECS_TM4C1294_SensorH
    1839                            .dwattr $C$DW$152, DW_AT_decl_line(0x71)
    1840                            .dwattr $C$DW$152, DW_AT_decl_column(0x02)
    1841                    $C$DW$153       .dwtag  DW_TAG_enumerator, DW_AT_name("eDeleted"), DW_AT_const_value(0x04)
    1842                            .dwattr $C$DW$153, DW_AT_decl_file("H:/class/690 Adv. Emb. Sys/FreeRTOS8_EECS_TM4C1294_SensorH
    1843                            .dwattr $C$DW$153, DW_AT_decl_line(0x72)
    1844                            .dwattr $C$DW$153, DW_AT_decl_column(0x02)
    1845                            .dwendtag $C$DW$T$51
    1846                    
    1847                            .dwattr $C$DW$T$51, DW_AT_decl_file("H:/class/690 Adv. Emb. Sys/FreeRTOS8_EECS_TM4C1294_Sensor
    1848                            .dwattr $C$DW$T$51, DW_AT_decl_line(0x6d)
    1849                            .dwattr $C$DW$T$51, DW_AT_decl_column(0x01)
    1850                    $C$DW$T$52      .dwtag  DW_TAG_typedef, DW_AT_name("eTaskState")
    1851                            .dwattr $C$DW$T$52, DW_AT_type(*$C$DW$T$51)
    1852                            .dwattr $C$DW$T$52, DW_AT_language(DW_LANG_C)
    1853                            .dwattr $C$DW$T$52, DW_AT_decl_file("H:/class/690 Adv. Emb. Sys/FreeRTOS8_EECS_TM4C1294_Sensor
    1854                            .dwattr $C$DW$T$52, DW_AT_decl_line(0x73)
    1855                            .dwattr $C$DW$T$52, DW_AT_decl_column(0x03)
    1856                    
    1857                    $C$DW$T$57      .dwtag  DW_TAG_enumeration_type
    1858                            .dwattr $C$DW$T$57, DW_AT_byte_size(0x01)
    1859                    $C$DW$154       .dwtag  DW_TAG_enumerator, DW_AT_name("eAbortSleep"), DW_AT_const_value(0x00)
    1860                            .dwattr $C$DW$154, DW_AT_decl_file("H:/class/690 Adv. Emb. Sys/FreeRTOS8_EECS_TM4C1294_SensorH
    1861                            .dwattr $C$DW$154, DW_AT_decl_line(0xa7)
    1862                            .dwattr $C$DW$154, DW_AT_decl_column(0x02)
    1863                    $C$DW$155       .dwtag  DW_TAG_enumerator, DW_AT_name("eStandardSleep"), DW_AT_const_value(0x01)
    1864                            .dwattr $C$DW$155, DW_AT_decl_file("H:/class/690 Adv. Emb. Sys/FreeRTOS8_EECS_TM4C1294_SensorH
    1865                            .dwattr $C$DW$155, DW_AT_decl_line(0xa8)
    1866                            .dwattr $C$DW$155, DW_AT_decl_column(0x02)
    1867                    $C$DW$156       .dwtag  DW_TAG_enumerator, DW_AT_name("eNoTasksWaitingTimeout"), DW_AT_const_value(0x0
    1868                            .dwattr $C$DW$156, DW_AT_decl_file("H:/class/690 Adv. Emb. Sys/FreeRTOS8_EECS_TM4C1294_SensorH
    1869                            .dwattr $C$DW$156, DW_AT_decl_line(0xa9)
    1870                            .dwattr $C$DW$156, DW_AT_decl_column(0x02)
TI ARM Assembler PC v5.1.7 Tue Sep 16 08:38:38 2014

Tools Copyright (c) 1996-2014 Texas Instruments Incorporated
event_groups.asm                                                     PAGE   35

    1871                            .dwendtag $C$DW$T$57
    1872                    
    1873                            .dwattr $C$DW$T$57, DW_AT_decl_file("H:/class/690 Adv. Emb. Sys/FreeRTOS8_EECS_TM4C1294_Sensor
    1874                            .dwattr $C$DW$T$57, DW_AT_decl_line(0xa6)
    1875                            .dwattr $C$DW$T$57, DW_AT_decl_column(0x01)
    1876                    $C$DW$T$58      .dwtag  DW_TAG_typedef, DW_AT_name("eSleepModeStatus")
    1877                            .dwattr $C$DW$T$58, DW_AT_type(*$C$DW$T$57)
    1878                            .dwattr $C$DW$T$58, DW_AT_language(DW_LANG_C)
    1879                            .dwattr $C$DW$T$58, DW_AT_decl_file("H:/class/690 Adv. Emb. Sys/FreeRTOS8_EECS_TM4C1294_Sensor
    1880                            .dwattr $C$DW$T$58, DW_AT_decl_line(0xaa)
    1881                            .dwattr $C$DW$T$58, DW_AT_decl_column(0x03)
    1882                    
    1883                    $C$DW$T$19      .dwtag  DW_TAG_structure_type
    1884                            .dwattr $C$DW$T$19, DW_AT_byte_size(0x08)
    1885                    $C$DW$157       .dwtag  DW_TAG_member
    1886                            .dwattr $C$DW$157, DW_AT_type(*$C$DW$T$10)
    1887                            .dwattr $C$DW$157, DW_AT_name("quot")
    1888                            .dwattr $C$DW$157, DW_AT_TI_symbol_name("quot")
    1889                            .dwattr $C$DW$157, DW_AT_data_member_location[DW_OP_plus_uconst 0x0]
    1890                            .dwattr $C$DW$157, DW_AT_accessibility(DW_ACCESS_public)
    1891                            .dwattr $C$DW$157, DW_AT_decl_file("C:/TI_CodeComposer/ccsv6/tools/compiler/arm_5.1.7/include/
    1892                            .dwattr $C$DW$157, DW_AT_decl_line(0x50)
    1893                            .dwattr $C$DW$157, DW_AT_decl_column(0x16)
    1894                    $C$DW$158       .dwtag  DW_TAG_member
    1895                            .dwattr $C$DW$158, DW_AT_type(*$C$DW$T$10)
    1896                            .dwattr $C$DW$158, DW_AT_name("rem")
    1897                            .dwattr $C$DW$158, DW_AT_TI_symbol_name("rem")
    1898                            .dwattr $C$DW$158, DW_AT_data_member_location[DW_OP_plus_uconst 0x4]
    1899                            .dwattr $C$DW$158, DW_AT_accessibility(DW_ACCESS_public)
    1900                            .dwattr $C$DW$158, DW_AT_decl_file("C:/TI_CodeComposer/ccsv6/tools/compiler/arm_5.1.7/include/
    1901                            .dwattr $C$DW$158, DW_AT_decl_line(0x50)
    1902                            .dwattr $C$DW$158, DW_AT_decl_column(0x1c)
    1903                            .dwendtag $C$DW$T$19
    1904                    
    1905                            .dwattr $C$DW$T$19, DW_AT_decl_file("C:/TI_CodeComposer/ccsv6/tools/compiler/arm_5.1.7/include
    1906                            .dwattr $C$DW$T$19, DW_AT_decl_line(0x50)
    1907                            .dwattr $C$DW$T$19, DW_AT_decl_column(0x10)
    1908                    $C$DW$T$59      .dwtag  DW_TAG_typedef, DW_AT_name("div_t")
    1909                            .dwattr $C$DW$T$59, DW_AT_type(*$C$DW$T$19)
    1910                            .dwattr $C$DW$T$59, DW_AT_language(DW_LANG_C)
    1911                            .dwattr $C$DW$T$59, DW_AT_decl_file("C:/TI_CodeComposer/ccsv6/tools/compiler/arm_5.1.7/include
    1912                            .dwattr $C$DW$T$59, DW_AT_decl_line(0x50)
    1913                            .dwattr $C$DW$T$59, DW_AT_decl_column(0x23)
    1914                    
    1915                    $C$DW$T$20      .dwtag  DW_TAG_structure_type
    1916                            .dwattr $C$DW$T$20, DW_AT_byte_size(0x08)
    1917                    $C$DW$159       .dwtag  DW_TAG_member
    1918                            .dwattr $C$DW$159, DW_AT_type(*$C$DW$T$10)
    1919                            .dwattr $C$DW$159, DW_AT_name("quot")
    1920                            .dwattr $C$DW$159, DW_AT_TI_symbol_name("quot")
    1921                            .dwattr $C$DW$159, DW_AT_data_member_location[DW_OP_plus_uconst 0x0]
    1922                            .dwattr $C$DW$159, DW_AT_accessibility(DW_ACCESS_public)
    1923                            .dwattr $C$DW$159, DW_AT_decl_file("C:/TI_CodeComposer/ccsv6/tools/compiler/arm_5.1.7/include/
    1924                            .dwattr $C$DW$159, DW_AT_decl_line(0x52)
    1925                            .dwattr $C$DW$159, DW_AT_decl_column(0x16)
TI ARM Assembler PC v5.1.7 Tue Sep 16 08:38:38 2014

Tools Copyright (c) 1996-2014 Texas Instruments Incorporated
event_groups.asm                                                     PAGE   36

    1926                    $C$DW$160       .dwtag  DW_TAG_member
    1927                            .dwattr $C$DW$160, DW_AT_type(*$C$DW$T$10)
    1928                            .dwattr $C$DW$160, DW_AT_name("rem")
    1929                            .dwattr $C$DW$160, DW_AT_TI_symbol_name("rem")
    1930                            .dwattr $C$DW$160, DW_AT_data_member_location[DW_OP_plus_uconst 0x4]
    1931                            .dwattr $C$DW$160, DW_AT_accessibility(DW_ACCESS_public)
    1932                            .dwattr $C$DW$160, DW_AT_decl_file("C:/TI_CodeComposer/ccsv6/tools/compiler/arm_5.1.7/include/
    1933                            .dwattr $C$DW$160, DW_AT_decl_line(0x52)
    1934                            .dwattr $C$DW$160, DW_AT_decl_column(0x1c)
    1935                            .dwendtag $C$DW$T$20
    1936                    
    1937                            .dwattr $C$DW$T$20, DW_AT_decl_file("C:/TI_CodeComposer/ccsv6/tools/compiler/arm_5.1.7/include
    1938                            .dwattr $C$DW$T$20, DW_AT_decl_line(0x52)
    1939                            .dwattr $C$DW$T$20, DW_AT_decl_column(0x10)
    1940                    $C$DW$T$60      .dwtag  DW_TAG_typedef, DW_AT_name("ldiv_t")
    1941                            .dwattr $C$DW$T$60, DW_AT_type(*$C$DW$T$20)
    1942                            .dwattr $C$DW$T$60, DW_AT_language(DW_LANG_C)
    1943                            .dwattr $C$DW$T$60, DW_AT_decl_file("C:/TI_CodeComposer/ccsv6/tools/compiler/arm_5.1.7/include
    1944                            .dwattr $C$DW$T$60, DW_AT_decl_line(0x52)
    1945                            .dwattr $C$DW$T$60, DW_AT_decl_column(0x23)
    1946                    
    1947                    $C$DW$T$21      .dwtag  DW_TAG_structure_type
    1948                            .dwattr $C$DW$T$21, DW_AT_byte_size(0x10)
    1949                    $C$DW$161       .dwtag  DW_TAG_member
    1950                            .dwattr $C$DW$161, DW_AT_type(*$C$DW$T$14)
    1951                            .dwattr $C$DW$161, DW_AT_name("quot")
    1952                            .dwattr $C$DW$161, DW_AT_TI_symbol_name("quot")
    1953                            .dwattr $C$DW$161, DW_AT_data_member_location[DW_OP_plus_uconst 0x0]
    1954                            .dwattr $C$DW$161, DW_AT_accessibility(DW_ACCESS_public)
    1955                            .dwattr $C$DW$161, DW_AT_decl_file("C:/TI_CodeComposer/ccsv6/tools/compiler/arm_5.1.7/include/
    1956                            .dwattr $C$DW$161, DW_AT_decl_line(0x55)
    1957                            .dwattr $C$DW$161, DW_AT_decl_column(0x1c)
    1958                    $C$DW$162       .dwtag  DW_TAG_member
    1959                            .dwattr $C$DW$162, DW_AT_type(*$C$DW$T$14)
    1960                            .dwattr $C$DW$162, DW_AT_name("rem")
    1961                            .dwattr $C$DW$162, DW_AT_TI_symbol_name("rem")
    1962                            .dwattr $C$DW$162, DW_AT_data_member_location[DW_OP_plus_uconst 0x8]
    1963                            .dwattr $C$DW$162, DW_AT_accessibility(DW_ACCESS_public)
    1964                            .dwattr $C$DW$162, DW_AT_decl_file("C:/TI_CodeComposer/ccsv6/tools/compiler/arm_5.1.7/include/
    1965                            .dwattr $C$DW$162, DW_AT_decl_line(0x55)
    1966                            .dwattr $C$DW$162, DW_AT_decl_column(0x22)
    1967                            .dwendtag $C$DW$T$21
    1968                    
    1969                            .dwattr $C$DW$T$21, DW_AT_decl_file("C:/TI_CodeComposer/ccsv6/tools/compiler/arm_5.1.7/include
    1970                            .dwattr $C$DW$T$21, DW_AT_decl_line(0x55)
    1971                            .dwattr $C$DW$T$21, DW_AT_decl_column(0x10)
    1972                    $C$DW$T$61      .dwtag  DW_TAG_typedef, DW_AT_name("lldiv_t")
    1973                            .dwattr $C$DW$T$61, DW_AT_type(*$C$DW$T$21)
    1974                            .dwattr $C$DW$T$61, DW_AT_language(DW_LANG_C)
    1975                            .dwattr $C$DW$T$61, DW_AT_decl_file("C:/TI_CodeComposer/ccsv6/tools/compiler/arm_5.1.7/include
    1976                            .dwattr $C$DW$T$61, DW_AT_decl_line(0x55)
    1977                            .dwattr $C$DW$T$61, DW_AT_decl_column(0x29)
    1978                    $C$DW$T$2       .dwtag  DW_TAG_unspecified_type
    1979                            .dwattr $C$DW$T$2, DW_AT_name("void")
    1980                    $C$DW$T$3       .dwtag  DW_TAG_pointer_type
TI ARM Assembler PC v5.1.7 Tue Sep 16 08:38:38 2014

Tools Copyright (c) 1996-2014 Texas Instruments Incorporated
event_groups.asm                                                     PAGE   37

    1981                            .dwattr $C$DW$T$3, DW_AT_type(*$C$DW$T$2)
    1982                            .dwattr $C$DW$T$3, DW_AT_address_class(0x20)
    1983                    $C$DW$T$62      .dwtag  DW_TAG_typedef, DW_AT_name("EventGroupHandle_t")
    1984                            .dwattr $C$DW$T$62, DW_AT_type(*$C$DW$T$3)
    1985                            .dwattr $C$DW$T$62, DW_AT_language(DW_LANG_C)
    1986                            .dwattr $C$DW$T$62, DW_AT_decl_file("H:/class/690 Adv. Emb. Sys/FreeRTOS8_EECS_TM4C1294_Sensor
    1987                            .dwattr $C$DW$T$62, DW_AT_decl_line(0x76)
    1988                            .dwattr $C$DW$T$62, DW_AT_decl_column(0x10)
    1989                    $C$DW$T$50      .dwtag  DW_TAG_typedef, DW_AT_name("TaskHandle_t")
    1990                            .dwattr $C$DW$T$50, DW_AT_type(*$C$DW$T$3)
    1991                            .dwattr $C$DW$T$50, DW_AT_language(DW_LANG_C)
    1992                            .dwattr $C$DW$T$50, DW_AT_decl_file("H:/class/690 Adv. Emb. Sys/FreeRTOS8_EECS_TM4C1294_Sensor
    1993                            .dwattr $C$DW$T$50, DW_AT_decl_line(0x63)
    1994                            .dwattr $C$DW$T$50, DW_AT_decl_column(0x10)
    1995                    $C$DW$T$64      .dwtag  DW_TAG_typedef, DW_AT_name("TimerHandle_t")
    1996                            .dwattr $C$DW$T$64, DW_AT_type(*$C$DW$T$3)
    1997                            .dwattr $C$DW$T$64, DW_AT_language(DW_LANG_C)
    1998                            .dwattr $C$DW$T$64, DW_AT_decl_file("H:/class/690 Adv. Emb. Sys/FreeRTOS8_EECS_TM4C1294_Sensor
    1999                            .dwattr $C$DW$T$64, DW_AT_decl_line(0x72)
    2000                            .dwattr $C$DW$T$64, DW_AT_decl_column(0x10)
    2001                    
    2002                    $C$DW$T$37      .dwtag  DW_TAG_subroutine_type
    2003                            .dwattr $C$DW$T$37, DW_AT_language(DW_LANG_C)
    2004                    $C$DW$163       .dwtag  DW_TAG_formal_parameter
    2005                            .dwattr $C$DW$163, DW_AT_type(*$C$DW$T$3)
    2006                            .dwendtag $C$DW$T$37
    2007                    
    2008                    $C$DW$T$38      .dwtag  DW_TAG_pointer_type
    2009                            .dwattr $C$DW$T$38, DW_AT_type(*$C$DW$T$37)
    2010                            .dwattr $C$DW$T$38, DW_AT_address_class(0x20)
    2011                    $C$DW$T$39      .dwtag  DW_TAG_typedef, DW_AT_name("TaskFunction_t")
    2012                            .dwattr $C$DW$T$39, DW_AT_type(*$C$DW$T$38)
    2013                            .dwattr $C$DW$T$39, DW_AT_language(DW_LANG_C)
    2014                            .dwattr $C$DW$T$39, DW_AT_decl_file("H:\class\690 Adv. Emb. Sys\FreeRTOS8_EECS_TM4C1294_Sensor
    2015                            .dwattr $C$DW$T$39, DW_AT_decl_line(0x49)
    2016                            .dwattr $C$DW$T$39, DW_AT_decl_column(0x10)
    2017                    
    2018                    $C$DW$T$68      .dwtag  DW_TAG_subroutine_type
    2019                            .dwattr $C$DW$T$68, DW_AT_language(DW_LANG_C)
    2020                    $C$DW$T$69      .dwtag  DW_TAG_pointer_type
    2021                            .dwattr $C$DW$T$69, DW_AT_type(*$C$DW$T$68)
    2022                            .dwattr $C$DW$T$69, DW_AT_address_class(0x20)
    2023                    $C$DW$T$70      .dwtag  DW_TAG_typedef, DW_AT_name("__TI_atexit_fn")
    2024                            .dwattr $C$DW$T$70, DW_AT_type(*$C$DW$T$69)
    2025                            .dwattr $C$DW$T$70, DW_AT_language(DW_LANG_C)
    2026                            .dwattr $C$DW$T$70, DW_AT_decl_file("C:/TI_CodeComposer/ccsv6/tools/compiler/arm_5.1.7/include
    2027                            .dwattr $C$DW$T$70, DW_AT_decl_line(0xa3)
    2028                            .dwattr $C$DW$T$70, DW_AT_decl_column(0x14)
    2029                    $C$DW$T$83      .dwtag  DW_TAG_const_type
    2030                            .dwattr $C$DW$T$83, DW_AT_type(*$C$DW$T$2)
    2031                    $C$DW$T$84      .dwtag  DW_TAG_pointer_type
    2032                            .dwattr $C$DW$T$84, DW_AT_type(*$C$DW$T$83)
    2033                            .dwattr $C$DW$T$84, DW_AT_address_class(0x20)
    2034                    
    2035                    $C$DW$T$85      .dwtag  DW_TAG_subroutine_type
TI ARM Assembler PC v5.1.7 Tue Sep 16 08:38:38 2014

Tools Copyright (c) 1996-2014 Texas Instruments Incorporated
event_groups.asm                                                     PAGE   38

    2036                            .dwattr $C$DW$T$85, DW_AT_language(DW_LANG_C)
    2037                    $C$DW$164       .dwtag  DW_TAG_formal_parameter
    2038                            .dwattr $C$DW$164, DW_AT_type(*$C$DW$T$64)
    2039                            .dwendtag $C$DW$T$85
    2040                    
    2041                    $C$DW$T$86      .dwtag  DW_TAG_pointer_type
    2042                            .dwattr $C$DW$T$86, DW_AT_type(*$C$DW$T$85)
    2043                            .dwattr $C$DW$T$86, DW_AT_address_class(0x20)
    2044                    $C$DW$T$87      .dwtag  DW_TAG_typedef, DW_AT_name("TimerCallbackFunction_t")
    2045                            .dwattr $C$DW$T$87, DW_AT_type(*$C$DW$T$86)
    2046                            .dwattr $C$DW$T$87, DW_AT_language(DW_LANG_C)
    2047                            .dwattr $C$DW$T$87, DW_AT_decl_file("H:/class/690 Adv. Emb. Sys/FreeRTOS8_EECS_TM4C1294_Sensor
    2048                            .dwattr $C$DW$T$87, DW_AT_decl_line(0x77)
    2049                            .dwattr $C$DW$T$87, DW_AT_decl_column(0x10)
    2050                    
    2051                    $C$DW$T$88      .dwtag  DW_TAG_subroutine_type
    2052                            .dwattr $C$DW$T$88, DW_AT_language(DW_LANG_C)
    2053                    $C$DW$165       .dwtag  DW_TAG_formal_parameter
    2054                            .dwattr $C$DW$165, DW_AT_type(*$C$DW$T$3)
    2055                    $C$DW$166       .dwtag  DW_TAG_formal_parameter
    2056                            .dwattr $C$DW$166, DW_AT_type(*$C$DW$T$23)
    2057                            .dwendtag $C$DW$T$88
    2058                    
    2059                    $C$DW$T$89      .dwtag  DW_TAG_pointer_type
    2060                            .dwattr $C$DW$T$89, DW_AT_type(*$C$DW$T$88)
    2061                            .dwattr $C$DW$T$89, DW_AT_address_class(0x20)
    2062                    $C$DW$T$90      .dwtag  DW_TAG_typedef, DW_AT_name("PendedFunction_t")
    2063                            .dwattr $C$DW$T$90, DW_AT_type(*$C$DW$T$89)
    2064                            .dwattr $C$DW$T$90, DW_AT_language(DW_LANG_C)
    2065                            .dwattr $C$DW$T$90, DW_AT_decl_file("H:/class/690 Adv. Emb. Sys/FreeRTOS8_EECS_TM4C1294_Sensor
    2066                            .dwattr $C$DW$T$90, DW_AT_decl_line(0x7d)
    2067                            .dwattr $C$DW$T$90, DW_AT_decl_column(0x10)
    2068                    $C$DW$T$4       .dwtag  DW_TAG_base_type
    2069                            .dwattr $C$DW$T$4, DW_AT_encoding(DW_ATE_boolean)
    2070                            .dwattr $C$DW$T$4, DW_AT_name("bool")
    2071                            .dwattr $C$DW$T$4, DW_AT_byte_size(0x01)
    2072                    $C$DW$T$5       .dwtag  DW_TAG_base_type
    2073                            .dwattr $C$DW$T$5, DW_AT_encoding(DW_ATE_signed_char)
    2074                            .dwattr $C$DW$T$5, DW_AT_name("signed char")
    2075                            .dwattr $C$DW$T$5, DW_AT_byte_size(0x01)
    2076                    $C$DW$T$91      .dwtag  DW_TAG_typedef, DW_AT_name("int8_t")
    2077                            .dwattr $C$DW$T$91, DW_AT_type(*$C$DW$T$5)
    2078                            .dwattr $C$DW$T$91, DW_AT_language(DW_LANG_C)
    2079                            .dwattr $C$DW$T$91, DW_AT_decl_file("C:/TI_CodeComposer/ccsv6/tools/compiler/arm_5.1.7/include
    2080                            .dwattr $C$DW$T$91, DW_AT_decl_line(0x2a)
    2081                            .dwattr $C$DW$T$91, DW_AT_decl_column(0x1d)
    2082                    $C$DW$T$92      .dwtag  DW_TAG_typedef, DW_AT_name("int_least8_t")
    2083                            .dwattr $C$DW$T$92, DW_AT_type(*$C$DW$T$91)
    2084                            .dwattr $C$DW$T$92, DW_AT_language(DW_LANG_C)
    2085                            .dwattr $C$DW$T$92, DW_AT_decl_file("C:/TI_CodeComposer/ccsv6/tools/compiler/arm_5.1.7/include
    2086                            .dwattr $C$DW$T$92, DW_AT_decl_line(0x37)
    2087                            .dwattr $C$DW$T$92, DW_AT_decl_column(0x17)
    2088                    $C$DW$T$6       .dwtag  DW_TAG_base_type
    2089                            .dwattr $C$DW$T$6, DW_AT_encoding(DW_ATE_unsigned_char)
    2090                            .dwattr $C$DW$T$6, DW_AT_name("unsigned char")
TI ARM Assembler PC v5.1.7 Tue Sep 16 08:38:38 2014

Tools Copyright (c) 1996-2014 Texas Instruments Incorporated
event_groups.asm                                                     PAGE   39

    2091                            .dwattr $C$DW$T$6, DW_AT_byte_size(0x01)
    2092                    $C$DW$T$93      .dwtag  DW_TAG_typedef, DW_AT_name("uint8_t")
    2093                            .dwattr $C$DW$T$93, DW_AT_type(*$C$DW$T$6)
    2094                            .dwattr $C$DW$T$93, DW_AT_language(DW_LANG_C)
    2095                            .dwattr $C$DW$T$93, DW_AT_decl_file("C:/TI_CodeComposer/ccsv6/tools/compiler/arm_5.1.7/include
    2096                            .dwattr $C$DW$T$93, DW_AT_decl_line(0x2b)
    2097                            .dwattr $C$DW$T$93, DW_AT_decl_column(0x1c)
    2098                    $C$DW$T$94      .dwtag  DW_TAG_typedef, DW_AT_name("portCHAR")
    2099                            .dwattr $C$DW$T$94, DW_AT_type(*$C$DW$T$93)
    2100                            .dwattr $C$DW$T$94, DW_AT_language(DW_LANG_C)
    2101                            .dwattr $C$DW$T$94, DW_AT_decl_file("H:\class\690 Adv. Emb. Sys\FreeRTOS8_EECS_TM4C1294_Sensor
    2102                            .dwattr $C$DW$T$94, DW_AT_decl_line(0x61)
    2103                            .dwattr $C$DW$T$94, DW_AT_decl_column(0x12)
    2104                    $C$DW$T$95      .dwtag  DW_TAG_typedef, DW_AT_name("uint_least8_t")
    2105                            .dwattr $C$DW$T$95, DW_AT_type(*$C$DW$T$93)
    2106                            .dwattr $C$DW$T$95, DW_AT_language(DW_LANG_C)
    2107                            .dwattr $C$DW$T$95, DW_AT_decl_file("C:/TI_CodeComposer/ccsv6/tools/compiler/arm_5.1.7/include
    2108                            .dwattr $C$DW$T$95, DW_AT_decl_line(0x38)
    2109                            .dwattr $C$DW$T$95, DW_AT_decl_column(0x16)
    2110                    $C$DW$T$7       .dwtag  DW_TAG_base_type
    2111                            .dwattr $C$DW$T$7, DW_AT_encoding(DW_ATE_signed_char)
    2112                            .dwattr $C$DW$T$7, DW_AT_name("wchar_t")
    2113                            .dwattr $C$DW$T$7, DW_AT_byte_size(0x02)
    2114                    $C$DW$T$8       .dwtag  DW_TAG_base_type
    2115                            .dwattr $C$DW$T$8, DW_AT_encoding(DW_ATE_signed)
    2116                            .dwattr $C$DW$T$8, DW_AT_name("short")
    2117                            .dwattr $C$DW$T$8, DW_AT_byte_size(0x02)
    2118                    $C$DW$T$96      .dwtag  DW_TAG_typedef, DW_AT_name("int16_t")
    2119                            .dwattr $C$DW$T$96, DW_AT_type(*$C$DW$T$8)
    2120                            .dwattr $C$DW$T$96, DW_AT_language(DW_LANG_C)
    2121                            .dwattr $C$DW$T$96, DW_AT_decl_file("C:/TI_CodeComposer/ccsv6/tools/compiler/arm_5.1.7/include
    2122                            .dwattr $C$DW$T$96, DW_AT_decl_line(0x2c)
    2123                            .dwattr $C$DW$T$96, DW_AT_decl_column(0x1d)
    2124                    $C$DW$T$97      .dwtag  DW_TAG_typedef, DW_AT_name("int_least16_t")
    2125                            .dwattr $C$DW$T$97, DW_AT_type(*$C$DW$T$96)
    2126                            .dwattr $C$DW$T$97, DW_AT_language(DW_LANG_C)
    2127                            .dwattr $C$DW$T$97, DW_AT_decl_file("C:/TI_CodeComposer/ccsv6/tools/compiler/arm_5.1.7/include
    2128                            .dwattr $C$DW$T$97, DW_AT_decl_line(0x3a)
    2129                            .dwattr $C$DW$T$97, DW_AT_decl_column(0x17)
    2130                    $C$DW$T$98      .dwtag  DW_TAG_typedef, DW_AT_name("portSHORT")
    2131                            .dwattr $C$DW$T$98, DW_AT_type(*$C$DW$T$96)
    2132                            .dwattr $C$DW$T$98, DW_AT_language(DW_LANG_C)
    2133                            .dwattr $C$DW$T$98, DW_AT_decl_file("H:\class\690 Adv. Emb. Sys\FreeRTOS8_EECS_TM4C1294_Sensor
    2134                            .dwattr $C$DW$T$98, DW_AT_decl_line(0x65)
    2135                            .dwattr $C$DW$T$98, DW_AT_decl_column(0x12)
    2136                    $C$DW$T$9       .dwtag  DW_TAG_base_type
    2137                            .dwattr $C$DW$T$9, DW_AT_encoding(DW_ATE_unsigned)
    2138                            .dwattr $C$DW$T$9, DW_AT_name("unsigned short")
    2139                            .dwattr $C$DW$T$9, DW_AT_byte_size(0x02)
    2140                    $C$DW$T$99      .dwtag  DW_TAG_typedef, DW_AT_name("_Wchart")
    2141                            .dwattr $C$DW$T$99, DW_AT_type(*$C$DW$T$9)
    2142                            .dwattr $C$DW$T$99, DW_AT_language(DW_LANG_C)
    2143                            .dwattr $C$DW$T$99, DW_AT_decl_file("C:/TI_CodeComposer/ccsv6/tools/compiler/arm_5.1.7/include
    2144                            .dwattr $C$DW$T$99, DW_AT_decl_line(0x1fe)
    2145                            .dwattr $C$DW$T$99, DW_AT_decl_column(0x21)
TI ARM Assembler PC v5.1.7 Tue Sep 16 08:38:38 2014

Tools Copyright (c) 1996-2014 Texas Instruments Incorporated
event_groups.asm                                                     PAGE   40

    2146                    $C$DW$T$100     .dwtag  DW_TAG_typedef, DW_AT_name("_Wintt")
    2147                            .dwattr $C$DW$T$100, DW_AT_type(*$C$DW$T$9)
    2148                            .dwattr $C$DW$T$100, DW_AT_language(DW_LANG_C)
    2149                            .dwattr $C$DW$T$100, DW_AT_decl_file("C:/TI_CodeComposer/ccsv6/tools/compiler/arm_5.1.7/includ
    2150                            .dwattr $C$DW$T$100, DW_AT_decl_line(0x1ff)
    2151                            .dwattr $C$DW$T$100, DW_AT_decl_column(0x21)
    2152                    $C$DW$T$44      .dwtag  DW_TAG_typedef, DW_AT_name("uint16_t")
    2153                            .dwattr $C$DW$T$44, DW_AT_type(*$C$DW$T$9)
    2154                            .dwattr $C$DW$T$44, DW_AT_language(DW_LANG_C)
    2155                            .dwattr $C$DW$T$44, DW_AT_decl_file("C:/TI_CodeComposer/ccsv6/tools/compiler/arm_5.1.7/include
    2156                            .dwattr $C$DW$T$44, DW_AT_decl_line(0x2d)
    2157                            .dwattr $C$DW$T$44, DW_AT_decl_column(0x1c)
    2158                    $C$DW$T$101     .dwtag  DW_TAG_typedef, DW_AT_name("uint_least16_t")
    2159                            .dwattr $C$DW$T$101, DW_AT_type(*$C$DW$T$44)
    2160                            .dwattr $C$DW$T$101, DW_AT_language(DW_LANG_C)
    2161                            .dwattr $C$DW$T$101, DW_AT_decl_file("C:/TI_CodeComposer/ccsv6/tools/compiler/arm_5.1.7/includ
    2162                            .dwattr $C$DW$T$101, DW_AT_decl_line(0x3b)
    2163                            .dwattr $C$DW$T$101, DW_AT_decl_column(0x16)
    2164                    $C$DW$T$102     .dwtag  DW_TAG_typedef, DW_AT_name("wchar_t")
    2165                            .dwattr $C$DW$T$102, DW_AT_type(*$C$DW$T$9)
    2166                            .dwattr $C$DW$T$102, DW_AT_language(DW_LANG_C)
    2167                            .dwattr $C$DW$T$102, DW_AT_decl_file("C:/TI_CodeComposer/ccsv6/tools/compiler/arm_5.1.7/includ
    2168                            .dwattr $C$DW$T$102, DW_AT_decl_line(0x6a)
    2169                            .dwattr $C$DW$T$102, DW_AT_decl_column(0x1a)
    2170                    $C$DW$T$10      .dwtag  DW_TAG_base_type
    2171                            .dwattr $C$DW$T$10, DW_AT_encoding(DW_ATE_signed)
    2172                            .dwattr $C$DW$T$10, DW_AT_name("int")
    2173                            .dwattr $C$DW$T$10, DW_AT_byte_size(0x04)
    2174                    $C$DW$T$103     .dwtag  DW_TAG_typedef, DW_AT_name("_Ptrdifft")
    2175                            .dwattr $C$DW$T$103, DW_AT_type(*$C$DW$T$10)
    2176                            .dwattr $C$DW$T$103, DW_AT_language(DW_LANG_C)
    2177                            .dwattr $C$DW$T$103, DW_AT_decl_file("C:/TI_CodeComposer/ccsv6/tools/compiler/arm_5.1.7/includ
    2178                            .dwattr $C$DW$T$103, DW_AT_decl_line(0xa6)
    2179                            .dwattr $C$DW$T$103, DW_AT_decl_column(0x1e)
    2180                    
    2181                    $C$DW$T$104     .dwtag  DW_TAG_subroutine_type
    2182                            .dwattr $C$DW$T$104, DW_AT_type(*$C$DW$T$10)
    2183                            .dwattr $C$DW$T$104, DW_AT_language(DW_LANG_C)
    2184                    $C$DW$167       .dwtag  DW_TAG_formal_parameter
    2185                            .dwattr $C$DW$167, DW_AT_type(*$C$DW$T$84)
    2186                    $C$DW$168       .dwtag  DW_TAG_formal_parameter
    2187                            .dwattr $C$DW$168, DW_AT_type(*$C$DW$T$84)
    2188                            .dwendtag $C$DW$T$104
    2189                    
    2190                    $C$DW$T$105     .dwtag  DW_TAG_pointer_type
    2191                            .dwattr $C$DW$T$105, DW_AT_type(*$C$DW$T$104)
    2192                            .dwattr $C$DW$T$105, DW_AT_address_class(0x20)
    2193                    $C$DW$T$106     .dwtag  DW_TAG_typedef, DW_AT_name("__TI_compar_fn")
    2194                            .dwattr $C$DW$T$106, DW_AT_type(*$C$DW$T$105)
    2195                            .dwattr $C$DW$T$106, DW_AT_language(DW_LANG_C)
    2196                            .dwattr $C$DW$T$106, DW_AT_decl_file("C:/TI_CodeComposer/ccsv6/tools/compiler/arm_5.1.7/includ
    2197                            .dwattr $C$DW$T$106, DW_AT_decl_line(0xa6)
    2198                            .dwattr $C$DW$T$106, DW_AT_decl_column(0x13)
    2199                    $C$DW$T$54      .dwtag  DW_TAG_typedef, DW_AT_name("int32_t")
    2200                            .dwattr $C$DW$T$54, DW_AT_type(*$C$DW$T$10)
TI ARM Assembler PC v5.1.7 Tue Sep 16 08:38:38 2014

Tools Copyright (c) 1996-2014 Texas Instruments Incorporated
event_groups.asm                                                     PAGE   41

    2201                            .dwattr $C$DW$T$54, DW_AT_language(DW_LANG_C)
    2202                            .dwattr $C$DW$T$54, DW_AT_decl_file("C:/TI_CodeComposer/ccsv6/tools/compiler/arm_5.1.7/include
    2203                            .dwattr $C$DW$T$54, DW_AT_decl_line(0x2e)
    2204                            .dwattr $C$DW$T$54, DW_AT_decl_column(0x1d)
    2205                    $C$DW$T$55      .dwtag  DW_TAG_typedef, DW_AT_name("BaseType_t")
    2206                            .dwattr $C$DW$T$55, DW_AT_type(*$C$DW$T$54)
    2207                            .dwattr $C$DW$T$55, DW_AT_language(DW_LANG_C)
    2208                            .dwattr $C$DW$T$55, DW_AT_decl_file("H:\class\690 Adv. Emb. Sys\FreeRTOS8_EECS_TM4C1294_Sensor
    2209                            .dwattr $C$DW$T$55, DW_AT_decl_line(0x6a)
    2210                            .dwattr $C$DW$T$55, DW_AT_decl_column(0x12)
    2211                    $C$DW$T$107     .dwtag  DW_TAG_const_type
    2212                            .dwattr $C$DW$T$107, DW_AT_type(*$C$DW$T$55)
    2213                    
    2214                    $C$DW$T$115     .dwtag  DW_TAG_subroutine_type
    2215                            .dwattr $C$DW$T$115, DW_AT_type(*$C$DW$T$55)
    2216                            .dwattr $C$DW$T$115, DW_AT_language(DW_LANG_C)
    2217                    $C$DW$169       .dwtag  DW_TAG_formal_parameter
    2218                            .dwattr $C$DW$169, DW_AT_type(*$C$DW$T$3)
    2219                            .dwendtag $C$DW$T$115
    2220                    
    2221                    $C$DW$T$116     .dwtag  DW_TAG_pointer_type
    2222                            .dwattr $C$DW$T$116, DW_AT_type(*$C$DW$T$115)
    2223                            .dwattr $C$DW$T$116, DW_AT_address_class(0x20)
    2224                    $C$DW$T$117     .dwtag  DW_TAG_typedef, DW_AT_name("TaskHookFunction_t")
    2225                            .dwattr $C$DW$T$117, DW_AT_type(*$C$DW$T$116)
    2226                            .dwattr $C$DW$T$117, DW_AT_language(DW_LANG_C)
    2227                            .dwattr $C$DW$T$117, DW_AT_decl_file("H:/class/690 Adv. Emb. Sys/FreeRTOS8_EECS_TM4C1294_Senso
    2228                            .dwattr $C$DW$T$117, DW_AT_decl_line(0x69)
    2229                            .dwattr $C$DW$T$117, DW_AT_decl_column(0x16)
    2230                    $C$DW$T$118     .dwtag  DW_TAG_typedef, DW_AT_name("int_fast16_t")
    2231                            .dwattr $C$DW$T$118, DW_AT_type(*$C$DW$T$54)
    2232                            .dwattr $C$DW$T$118, DW_AT_language(DW_LANG_C)
    2233                            .dwattr $C$DW$T$118, DW_AT_decl_file("C:/TI_CodeComposer/ccsv6/tools/compiler/arm_5.1.7/includ
    2234                            .dwattr $C$DW$T$118, DW_AT_decl_line(0x47)
    2235                            .dwattr $C$DW$T$118, DW_AT_decl_column(0x17)
    2236                    $C$DW$T$119     .dwtag  DW_TAG_typedef, DW_AT_name("int_fast32_t")
    2237                            .dwattr $C$DW$T$119, DW_AT_type(*$C$DW$T$54)
    2238                            .dwattr $C$DW$T$119, DW_AT_language(DW_LANG_C)
    2239                            .dwattr $C$DW$T$119, DW_AT_decl_file("C:/TI_CodeComposer/ccsv6/tools/compiler/arm_5.1.7/includ
    2240                            .dwattr $C$DW$T$119, DW_AT_decl_line(0x4a)
    2241                            .dwattr $C$DW$T$119, DW_AT_decl_column(0x17)
    2242                    $C$DW$T$120     .dwtag  DW_TAG_typedef, DW_AT_name("int_fast8_t")
    2243                            .dwattr $C$DW$T$120, DW_AT_type(*$C$DW$T$54)
    2244                            .dwattr $C$DW$T$120, DW_AT_language(DW_LANG_C)
    2245                            .dwattr $C$DW$T$120, DW_AT_decl_file("C:/TI_CodeComposer/ccsv6/tools/compiler/arm_5.1.7/includ
    2246                            .dwattr $C$DW$T$120, DW_AT_decl_line(0x45)
    2247                            .dwattr $C$DW$T$120, DW_AT_decl_column(0x17)
    2248                    $C$DW$T$121     .dwtag  DW_TAG_typedef, DW_AT_name("int_least32_t")
    2249                            .dwattr $C$DW$T$121, DW_AT_type(*$C$DW$T$54)
    2250                            .dwattr $C$DW$T$121, DW_AT_language(DW_LANG_C)
    2251                            .dwattr $C$DW$T$121, DW_AT_decl_file("C:/TI_CodeComposer/ccsv6/tools/compiler/arm_5.1.7/includ
    2252                            .dwattr $C$DW$T$121, DW_AT_decl_line(0x3c)
    2253                            .dwattr $C$DW$T$121, DW_AT_decl_column(0x17)
    2254                    $C$DW$T$122     .dwtag  DW_TAG_typedef, DW_AT_name("portBASE_TYPE")
    2255                            .dwattr $C$DW$T$122, DW_AT_type(*$C$DW$T$54)
TI ARM Assembler PC v5.1.7 Tue Sep 16 08:38:38 2014

Tools Copyright (c) 1996-2014 Texas Instruments Incorporated
event_groups.asm                                                     PAGE   42

    2256                            .dwattr $C$DW$T$122, DW_AT_language(DW_LANG_C)
    2257                            .dwattr $C$DW$T$122, DW_AT_decl_file("H:\class\690 Adv. Emb. Sys\FreeRTOS8_EECS_TM4C1294_Senso
    2258                            .dwattr $C$DW$T$122, DW_AT_decl_line(0x67)
    2259                            .dwattr $C$DW$T$122, DW_AT_decl_column(0x12)
    2260                    $C$DW$T$123     .dwtag  DW_TAG_typedef, DW_AT_name("portLONG")
    2261                            .dwattr $C$DW$T$123, DW_AT_type(*$C$DW$T$54)
    2262                            .dwattr $C$DW$T$123, DW_AT_language(DW_LANG_C)
    2263                            .dwattr $C$DW$T$123, DW_AT_decl_file("H:\class\690 Adv. Emb. Sys\FreeRTOS8_EECS_TM4C1294_Senso
    2264                            .dwattr $C$DW$T$123, DW_AT_decl_line(0x64)
    2265                            .dwattr $C$DW$T$123, DW_AT_decl_column(0x12)
    2266                    $C$DW$T$124     .dwtag  DW_TAG_typedef, DW_AT_name("intptr_t")
    2267                            .dwattr $C$DW$T$124, DW_AT_type(*$C$DW$T$10)
    2268                            .dwattr $C$DW$T$124, DW_AT_language(DW_LANG_C)
    2269                            .dwattr $C$DW$T$124, DW_AT_decl_file("C:/TI_CodeComposer/ccsv6/tools/compiler/arm_5.1.7/includ
    2270                            .dwattr $C$DW$T$124, DW_AT_decl_line(0x52)
    2271                            .dwattr $C$DW$T$124, DW_AT_decl_column(0x1a)
    2272                    $C$DW$T$125     .dwtag  DW_TAG_typedef, DW_AT_name("ptrdiff_t")
    2273                            .dwattr $C$DW$T$125, DW_AT_type(*$C$DW$T$10)
    2274                            .dwattr $C$DW$T$125, DW_AT_language(DW_LANG_C)
    2275                            .dwattr $C$DW$T$125, DW_AT_decl_file("C:/TI_CodeComposer/ccsv6/tools/compiler/arm_5.1.7/includ
    2276                            .dwattr $C$DW$T$125, DW_AT_decl_line(0x31)
    2277                            .dwattr $C$DW$T$125, DW_AT_decl_column(0x1c)
    2278                    $C$DW$T$11      .dwtag  DW_TAG_base_type
    2279                            .dwattr $C$DW$T$11, DW_AT_encoding(DW_ATE_unsigned)
    2280                            .dwattr $C$DW$T$11, DW_AT_name("unsigned int")
    2281                            .dwattr $C$DW$T$11, DW_AT_byte_size(0x04)
    2282                    $C$DW$T$126     .dwtag  DW_TAG_typedef, DW_AT_name("_Sizet")
    2283                            .dwattr $C$DW$T$126, DW_AT_type(*$C$DW$T$11)
    2284                            .dwattr $C$DW$T$126, DW_AT_language(DW_LANG_C)
    2285                            .dwattr $C$DW$T$126, DW_AT_decl_file("C:/TI_CodeComposer/ccsv6/tools/compiler/arm_5.1.7/includ
    2286                            .dwattr $C$DW$T$126, DW_AT_decl_line(0xac)
    2287                            .dwattr $C$DW$T$126, DW_AT_decl_column(0x1a)
    2288                    $C$DW$T$65      .dwtag  DW_TAG_typedef, DW_AT_name("size_t")
    2289                            .dwattr $C$DW$T$65, DW_AT_type(*$C$DW$T$11)
    2290                            .dwattr $C$DW$T$65, DW_AT_language(DW_LANG_C)
    2291                            .dwattr $C$DW$T$65, DW_AT_decl_file("C:/TI_CodeComposer/ccsv6/tools/compiler/arm_5.1.7/include
    2292                            .dwattr $C$DW$T$65, DW_AT_decl_line(0x64)
    2293                            .dwattr $C$DW$T$65, DW_AT_decl_column(0x19)
    2294                    $C$DW$T$23      .dwtag  DW_TAG_typedef, DW_AT_name("uint32_t")
    2295                            .dwattr $C$DW$T$23, DW_AT_type(*$C$DW$T$11)
    2296                            .dwattr $C$DW$T$23, DW_AT_language(DW_LANG_C)
    2297                            .dwattr $C$DW$T$23, DW_AT_decl_file("C:/TI_CodeComposer/ccsv6/tools/compiler/arm_5.1.7/include
    2298                            .dwattr $C$DW$T$23, DW_AT_decl_line(0x2f)
    2299                            .dwattr $C$DW$T$23, DW_AT_decl_column(0x1c)
    2300                    $C$DW$T$45      .dwtag  DW_TAG_typedef, DW_AT_name("StackType_t")
    2301                            .dwattr $C$DW$T$45, DW_AT_type(*$C$DW$T$23)
    2302                            .dwattr $C$DW$T$45, DW_AT_language(DW_LANG_C)
    2303                            .dwattr $C$DW$T$45, DW_AT_decl_file("H:\class\690 Adv. Emb. Sys\FreeRTOS8_EECS_TM4C1294_Sensor
    2304                            .dwattr $C$DW$T$45, DW_AT_decl_line(0x69)
    2305                            .dwattr $C$DW$T$45, DW_AT_decl_column(0x12)
    2306                    $C$DW$T$46      .dwtag  DW_TAG_pointer_type
    2307                            .dwattr $C$DW$T$46, DW_AT_type(*$C$DW$T$45)
    2308                            .dwattr $C$DW$T$46, DW_AT_address_class(0x20)
    2309                    $C$DW$T$24      .dwtag  DW_TAG_typedef, DW_AT_name("TickType_t")
    2310                            .dwattr $C$DW$T$24, DW_AT_type(*$C$DW$T$23)
TI ARM Assembler PC v5.1.7 Tue Sep 16 08:38:38 2014

Tools Copyright (c) 1996-2014 Texas Instruments Incorporated
event_groups.asm                                                     PAGE   43

    2311                            .dwattr $C$DW$T$24, DW_AT_language(DW_LANG_C)
    2312                            .dwattr $C$DW$T$24, DW_AT_decl_file("H:\class\690 Adv. Emb. Sys\FreeRTOS8_EECS_TM4C1294_Sensor
    2313                            .dwattr $C$DW$T$24, DW_AT_decl_line(0x71)
    2314                            .dwattr $C$DW$T$24, DW_AT_decl_column(0x16)
    2315                    $C$DW$T$25      .dwtag  DW_TAG_typedef, DW_AT_name("EventBits_t")
    2316                            .dwattr $C$DW$T$25, DW_AT_type(*$C$DW$T$24)
    2317                            .dwattr $C$DW$T$25, DW_AT_language(DW_LANG_C)
    2318                            .dwattr $C$DW$T$25, DW_AT_decl_file("H:/class/690 Adv. Emb. Sys/FreeRTOS8_EECS_TM4C1294_Sensor
    2319                            .dwattr $C$DW$T$25, DW_AT_decl_line(0x80)
    2320                            .dwattr $C$DW$T$25, DW_AT_decl_column(0x14)
    2321                    $C$DW$T$112     .dwtag  DW_TAG_const_type
    2322                            .dwattr $C$DW$T$112, DW_AT_type(*$C$DW$T$25)
    2323                    $C$DW$T$77      .dwtag  DW_TAG_const_type
    2324                            .dwattr $C$DW$T$77, DW_AT_type(*$C$DW$T$24)
    2325                    $C$DW$T$28      .dwtag  DW_TAG_typedef, DW_AT_name("UBaseType_t")
    2326                            .dwattr $C$DW$T$28, DW_AT_type(*$C$DW$T$23)
    2327                            .dwattr $C$DW$T$28, DW_AT_language(DW_LANG_C)
    2328                            .dwattr $C$DW$T$28, DW_AT_decl_file("H:\class\690 Adv. Emb. Sys\FreeRTOS8_EECS_TM4C1294_Sensor
    2329                            .dwattr $C$DW$T$28, DW_AT_decl_line(0x6b)
    2330                            .dwattr $C$DW$T$28, DW_AT_decl_column(0x12)
    2331                    $C$DW$T$135     .dwtag  DW_TAG_typedef, DW_AT_name("portSTACK_TYPE")
    2332                            .dwattr $C$DW$T$135, DW_AT_type(*$C$DW$T$23)
    2333                            .dwattr $C$DW$T$135, DW_AT_language(DW_LANG_C)
    2334                            .dwattr $C$DW$T$135, DW_AT_decl_file("H:\class\690 Adv. Emb. Sys\FreeRTOS8_EECS_TM4C1294_Senso
    2335                            .dwattr $C$DW$T$135, DW_AT_decl_line(0x66)
    2336                            .dwattr $C$DW$T$135, DW_AT_decl_column(0x12)
    2337                    $C$DW$T$81      .dwtag  DW_TAG_const_type
    2338                            .dwattr $C$DW$T$81, DW_AT_type(*$C$DW$T$23)
    2339                    $C$DW$T$136     .dwtag  DW_TAG_typedef, DW_AT_name("uint_fast16_t")
    2340                            .dwattr $C$DW$T$136, DW_AT_type(*$C$DW$T$23)
    2341                            .dwattr $C$DW$T$136, DW_AT_language(DW_LANG_C)
    2342                            .dwattr $C$DW$T$136, DW_AT_decl_file("C:/TI_CodeComposer/ccsv6/tools/compiler/arm_5.1.7/includ
    2343                            .dwattr $C$DW$T$136, DW_AT_decl_line(0x48)
    2344                            .dwattr $C$DW$T$136, DW_AT_decl_column(0x16)
    2345                    $C$DW$T$137     .dwtag  DW_TAG_typedef, DW_AT_name("uint_fast32_t")
    2346                            .dwattr $C$DW$T$137, DW_AT_type(*$C$DW$T$23)
    2347                            .dwattr $C$DW$T$137, DW_AT_language(DW_LANG_C)
    2348                            .dwattr $C$DW$T$137, DW_AT_decl_file("C:/TI_CodeComposer/ccsv6/tools/compiler/arm_5.1.7/includ
    2349                            .dwattr $C$DW$T$137, DW_AT_decl_line(0x4b)
    2350                            .dwattr $C$DW$T$137, DW_AT_decl_column(0x16)
    2351                    $C$DW$T$138     .dwtag  DW_TAG_typedef, DW_AT_name("uint_fast8_t")
    2352                            .dwattr $C$DW$T$138, DW_AT_type(*$C$DW$T$23)
    2353                            .dwattr $C$DW$T$138, DW_AT_language(DW_LANG_C)
    2354                            .dwattr $C$DW$T$138, DW_AT_decl_file("C:/TI_CodeComposer/ccsv6/tools/compiler/arm_5.1.7/includ
    2355                            .dwattr $C$DW$T$138, DW_AT_decl_line(0x46)
    2356                            .dwattr $C$DW$T$138, DW_AT_decl_column(0x16)
    2357                    $C$DW$T$139     .dwtag  DW_TAG_typedef, DW_AT_name("uint_least32_t")
    2358                            .dwattr $C$DW$T$139, DW_AT_type(*$C$DW$T$23)
    2359                            .dwattr $C$DW$T$139, DW_AT_language(DW_LANG_C)
    2360                            .dwattr $C$DW$T$139, DW_AT_decl_file("C:/TI_CodeComposer/ccsv6/tools/compiler/arm_5.1.7/includ
    2361                            .dwattr $C$DW$T$139, DW_AT_decl_line(0x3d)
    2362                            .dwattr $C$DW$T$139, DW_AT_decl_column(0x16)
    2363                    $C$DW$T$140     .dwtag  DW_TAG_typedef, DW_AT_name("uintptr_t")
    2364                            .dwattr $C$DW$T$140, DW_AT_type(*$C$DW$T$11)
    2365                            .dwattr $C$DW$T$140, DW_AT_language(DW_LANG_C)
TI ARM Assembler PC v5.1.7 Tue Sep 16 08:38:38 2014

Tools Copyright (c) 1996-2014 Texas Instruments Incorporated
event_groups.asm                                                     PAGE   44

    2366                            .dwattr $C$DW$T$140, DW_AT_decl_file("C:/TI_CodeComposer/ccsv6/tools/compiler/arm_5.1.7/includ
    2367                            .dwattr $C$DW$T$140, DW_AT_decl_line(0x53)
    2368                            .dwattr $C$DW$T$140, DW_AT_decl_column(0x1a)
    2369                    $C$DW$T$12      .dwtag  DW_TAG_base_type
    2370                            .dwattr $C$DW$T$12, DW_AT_encoding(DW_ATE_signed)
    2371                            .dwattr $C$DW$T$12, DW_AT_name("long")
    2372                            .dwattr $C$DW$T$12, DW_AT_byte_size(0x04)
    2373                    $C$DW$T$141     .dwtag  DW_TAG_typedef, DW_AT_name("_Int32t")
    2374                            .dwattr $C$DW$T$141, DW_AT_type(*$C$DW$T$12)
    2375                            .dwattr $C$DW$T$141, DW_AT_language(DW_LANG_C)
    2376                            .dwattr $C$DW$T$141, DW_AT_decl_file("C:/TI_CodeComposer/ccsv6/tools/compiler/arm_5.1.7/includ
    2377                            .dwattr $C$DW$T$141, DW_AT_decl_line(0xa2)
    2378                            .dwattr $C$DW$T$141, DW_AT_decl_column(0x0e)
    2379                    $C$DW$T$13      .dwtag  DW_TAG_base_type
    2380                            .dwattr $C$DW$T$13, DW_AT_encoding(DW_ATE_unsigned)
    2381                            .dwattr $C$DW$T$13, DW_AT_name("unsigned long")
    2382                            .dwattr $C$DW$T$13, DW_AT_byte_size(0x04)
    2383                    $C$DW$T$142     .dwtag  DW_TAG_typedef, DW_AT_name("_Uint32t")
    2384                            .dwattr $C$DW$T$142, DW_AT_type(*$C$DW$T$13)
    2385                            .dwattr $C$DW$T$142, DW_AT_language(DW_LANG_C)
    2386                            .dwattr $C$DW$T$142, DW_AT_decl_file("C:/TI_CodeComposer/ccsv6/tools/compiler/arm_5.1.7/includ
    2387                            .dwattr $C$DW$T$142, DW_AT_decl_line(0xa3)
    2388                            .dwattr $C$DW$T$142, DW_AT_decl_column(0x17)
    2389                    $C$DW$T$14      .dwtag  DW_TAG_base_type
    2390                            .dwattr $C$DW$T$14, DW_AT_encoding(DW_ATE_signed)
    2391                            .dwattr $C$DW$T$14, DW_AT_name("long long")
    2392                            .dwattr $C$DW$T$14, DW_AT_byte_size(0x08)
    2393                    $C$DW$T$145     .dwtag  DW_TAG_typedef, DW_AT_name("_Longlong")
    2394                            .dwattr $C$DW$T$145, DW_AT_type(*$C$DW$T$14)
    2395                            .dwattr $C$DW$T$145, DW_AT_language(DW_LANG_C)
    2396                            .dwattr $C$DW$T$145, DW_AT_decl_file("C:/TI_CodeComposer/ccsv6/tools/compiler/arm_5.1.7/includ
    2397                            .dwattr $C$DW$T$145, DW_AT_decl_line(0x1ce)
    2398                            .dwattr $C$DW$T$145, DW_AT_decl_column(0x13)
    2399                    $C$DW$T$146     .dwtag  DW_TAG_typedef, DW_AT_name("int64_t")
    2400                            .dwattr $C$DW$T$146, DW_AT_type(*$C$DW$T$14)
    2401                            .dwattr $C$DW$T$146, DW_AT_language(DW_LANG_C)
    2402                            .dwattr $C$DW$T$146, DW_AT_decl_file("C:/TI_CodeComposer/ccsv6/tools/compiler/arm_5.1.7/includ
    2403                            .dwattr $C$DW$T$146, DW_AT_decl_line(0x32)
    2404                            .dwattr $C$DW$T$146, DW_AT_decl_column(0x21)
    2405                    $C$DW$T$147     .dwtag  DW_TAG_typedef, DW_AT_name("int_fast64_t")
    2406                            .dwattr $C$DW$T$147, DW_AT_type(*$C$DW$T$146)
    2407                            .dwattr $C$DW$T$147, DW_AT_language(DW_LANG_C)
    2408                            .dwattr $C$DW$T$147, DW_AT_decl_file("C:/TI_CodeComposer/ccsv6/tools/compiler/arm_5.1.7/includ
    2409                            .dwattr $C$DW$T$147, DW_AT_decl_line(0x4e)
    2410                            .dwattr $C$DW$T$147, DW_AT_decl_column(0x17)
    2411                    $C$DW$T$148     .dwtag  DW_TAG_typedef, DW_AT_name("int_least64_t")
    2412                            .dwattr $C$DW$T$148, DW_AT_type(*$C$DW$T$146)
    2413                            .dwattr $C$DW$T$148, DW_AT_language(DW_LANG_C)
    2414                            .dwattr $C$DW$T$148, DW_AT_decl_file("C:/TI_CodeComposer/ccsv6/tools/compiler/arm_5.1.7/includ
    2415                            .dwattr $C$DW$T$148, DW_AT_decl_line(0x40)
    2416                            .dwattr $C$DW$T$148, DW_AT_decl_column(0x17)
    2417                    $C$DW$T$149     .dwtag  DW_TAG_typedef, DW_AT_name("portDOUBLE")
    2418                            .dwattr $C$DW$T$149, DW_AT_type(*$C$DW$T$146)
    2419                            .dwattr $C$DW$T$149, DW_AT_language(DW_LANG_C)
    2420                            .dwattr $C$DW$T$149, DW_AT_decl_file("H:\class\690 Adv. Emb. Sys\FreeRTOS8_EECS_TM4C1294_Senso
TI ARM Assembler PC v5.1.7 Tue Sep 16 08:38:38 2014

Tools Copyright (c) 1996-2014 Texas Instruments Incorporated
event_groups.asm                                                     PAGE   45

    2421                            .dwattr $C$DW$T$149, DW_AT_decl_line(0x63)
    2422                            .dwattr $C$DW$T$149, DW_AT_decl_column(0x12)
    2423                    $C$DW$T$150     .dwtag  DW_TAG_typedef, DW_AT_name("intmax_t")
    2424                            .dwattr $C$DW$T$150, DW_AT_type(*$C$DW$T$14)
    2425                            .dwattr $C$DW$T$150, DW_AT_language(DW_LANG_C)
    2426                            .dwattr $C$DW$T$150, DW_AT_decl_file("C:/TI_CodeComposer/ccsv6/tools/compiler/arm_5.1.7/includ
    2427                            .dwattr $C$DW$T$150, DW_AT_decl_line(0x56)
    2428                            .dwattr $C$DW$T$150, DW_AT_decl_column(0x20)
    2429                    $C$DW$T$15      .dwtag  DW_TAG_base_type
    2430                            .dwattr $C$DW$T$15, DW_AT_encoding(DW_ATE_unsigned)
    2431                            .dwattr $C$DW$T$15, DW_AT_name("unsigned long long")
    2432                            .dwattr $C$DW$T$15, DW_AT_byte_size(0x08)
    2433                    $C$DW$T$151     .dwtag  DW_TAG_typedef, DW_AT_name("_ULonglong")
    2434                            .dwattr $C$DW$T$151, DW_AT_type(*$C$DW$T$15)
    2435                            .dwattr $C$DW$T$151, DW_AT_language(DW_LANG_C)
    2436                            .dwattr $C$DW$T$151, DW_AT_decl_file("C:/TI_CodeComposer/ccsv6/tools/compiler/arm_5.1.7/includ
    2437                            .dwattr $C$DW$T$151, DW_AT_decl_line(0x1cf)
    2438                            .dwattr $C$DW$T$151, DW_AT_decl_column(0x14)
    2439                    $C$DW$T$152     .dwtag  DW_TAG_typedef, DW_AT_name("uint64_t")
    2440                            .dwattr $C$DW$T$152, DW_AT_type(*$C$DW$T$15)
    2441                            .dwattr $C$DW$T$152, DW_AT_language(DW_LANG_C)
    2442                            .dwattr $C$DW$T$152, DW_AT_decl_file("C:/TI_CodeComposer/ccsv6/tools/compiler/arm_5.1.7/includ
    2443                            .dwattr $C$DW$T$152, DW_AT_decl_line(0x33)
    2444                            .dwattr $C$DW$T$152, DW_AT_decl_column(0x20)
    2445                    $C$DW$T$153     .dwtag  DW_TAG_typedef, DW_AT_name("uint_fast64_t")
    2446                            .dwattr $C$DW$T$153, DW_AT_type(*$C$DW$T$152)
    2447                            .dwattr $C$DW$T$153, DW_AT_language(DW_LANG_C)
    2448                            .dwattr $C$DW$T$153, DW_AT_decl_file("C:/TI_CodeComposer/ccsv6/tools/compiler/arm_5.1.7/includ
    2449                            .dwattr $C$DW$T$153, DW_AT_decl_line(0x4f)
    2450                            .dwattr $C$DW$T$153, DW_AT_decl_column(0x16)
    2451                    $C$DW$T$154     .dwtag  DW_TAG_typedef, DW_AT_name("uint_least64_t")
    2452                            .dwattr $C$DW$T$154, DW_AT_type(*$C$DW$T$152)
    2453                            .dwattr $C$DW$T$154, DW_AT_language(DW_LANG_C)
    2454                            .dwattr $C$DW$T$154, DW_AT_decl_file("C:/TI_CodeComposer/ccsv6/tools/compiler/arm_5.1.7/includ
    2455                            .dwattr $C$DW$T$154, DW_AT_decl_line(0x41)
    2456                            .dwattr $C$DW$T$154, DW_AT_decl_column(0x16)
    2457                    $C$DW$T$155     .dwtag  DW_TAG_typedef, DW_AT_name("uintmax_t")
    2458                            .dwattr $C$DW$T$155, DW_AT_type(*$C$DW$T$15)
    2459                            .dwattr $C$DW$T$155, DW_AT_language(DW_LANG_C)
    2460                            .dwattr $C$DW$T$155, DW_AT_decl_file("C:/TI_CodeComposer/ccsv6/tools/compiler/arm_5.1.7/includ
    2461                            .dwattr $C$DW$T$155, DW_AT_decl_line(0x57)
    2462                            .dwattr $C$DW$T$155, DW_AT_decl_column(0x20)
    2463                    $C$DW$T$16      .dwtag  DW_TAG_base_type
    2464                            .dwattr $C$DW$T$16, DW_AT_encoding(DW_ATE_float)
    2465                            .dwattr $C$DW$T$16, DW_AT_name("float")
    2466                            .dwattr $C$DW$T$16, DW_AT_byte_size(0x04)
    2467                    $C$DW$T$156     .dwtag  DW_TAG_typedef, DW_AT_name("portFLOAT")
    2468                            .dwattr $C$DW$T$156, DW_AT_type(*$C$DW$T$16)
    2469                            .dwattr $C$DW$T$156, DW_AT_language(DW_LANG_C)
    2470                            .dwattr $C$DW$T$156, DW_AT_decl_file("H:\class\690 Adv. Emb. Sys\FreeRTOS8_EECS_TM4C1294_Senso
    2471                            .dwattr $C$DW$T$156, DW_AT_decl_line(0x62)
    2472                            .dwattr $C$DW$T$156, DW_AT_decl_column(0x10)
    2473                    $C$DW$T$17      .dwtag  DW_TAG_base_type
    2474                            .dwattr $C$DW$T$17, DW_AT_encoding(DW_ATE_float)
    2475                            .dwattr $C$DW$T$17, DW_AT_name("double")
TI ARM Assembler PC v5.1.7 Tue Sep 16 08:38:38 2014

Tools Copyright (c) 1996-2014 Texas Instruments Incorporated
event_groups.asm                                                     PAGE   46

    2476                            .dwattr $C$DW$T$17, DW_AT_byte_size(0x08)
    2477                    $C$DW$T$18      .dwtag  DW_TAG_base_type
    2478                            .dwattr $C$DW$T$18, DW_AT_encoding(DW_ATE_float)
    2479                            .dwattr $C$DW$T$18, DW_AT_name("long double")
    2480                            .dwattr $C$DW$T$18, DW_AT_byte_size(0x08)
    2481                    $C$DW$T$157     .dwtag  DW_TAG_typedef, DW_AT_name("_Sysch_t")
    2482                            .dwattr $C$DW$T$157, DW_AT_type(*$C$DW$T$6)
    2483                            .dwattr $C$DW$T$157, DW_AT_language(DW_LANG_C)
    2484                            .dwattr $C$DW$T$157, DW_AT_decl_file("C:/TI_CodeComposer/ccsv6/tools/compiler/arm_5.1.7/includ
    2485                            .dwattr $C$DW$T$157, DW_AT_decl_line(0x23a)
    2486                            .dwattr $C$DW$T$157, DW_AT_decl_column(0x0e)
    2487                    $C$DW$T$41      .dwtag  DW_TAG_const_type
    2488                            .dwattr $C$DW$T$41, DW_AT_type(*$C$DW$T$6)
    2489                    $C$DW$T$42      .dwtag  DW_TAG_pointer_type
    2490                            .dwattr $C$DW$T$42, DW_AT_type(*$C$DW$T$41)
    2491                            .dwattr $C$DW$T$42, DW_AT_address_class(0x20)
    2492                    $C$DW$T$43      .dwtag  DW_TAG_const_type
    2493                            .dwattr $C$DW$T$43, DW_AT_type(*$C$DW$T$42)
    2494                    $C$DW$T$158     .dwtag  DW_TAG_pointer_type
    2495                            .dwattr $C$DW$T$158, DW_AT_type(*$C$DW$T$6)
    2496                            .dwattr $C$DW$T$158, DW_AT_address_class(0x20)
    2497                    $C$DW$T$159     .dwtag  DW_TAG_typedef, DW_AT_name("__builtin_va_list")
    2498                            .dwattr $C$DW$T$159, DW_AT_type(*$C$DW$T$158)
    2499                            .dwattr $C$DW$T$159, DW_AT_language(DW_LANG_C)
    2500                            .dwattr $C$DW$T$159, DW_AT_decl_file("../Source/event_groups.c")
    2501                            .dwattr $C$DW$T$159, DW_AT_decl_line(0x27e)
    2502                            .dwattr $C$DW$T$159, DW_AT_decl_column(0x01)
    2503                    
    2504                    $C$DW$T$22      .dwtag  DW_TAG_structure_type
    2505                            .dwattr $C$DW$T$22, DW_AT_name("__va_list")
    2506                            .dwattr $C$DW$T$22, DW_AT_byte_size(0x04)
    2507                    $C$DW$170       .dwtag  DW_TAG_member
    2508                            .dwattr $C$DW$170, DW_AT_type(*$C$DW$T$3)
    2509                            .dwattr $C$DW$170, DW_AT_name("__ap")
    2510                            .dwattr $C$DW$170, DW_AT_TI_symbol_name("__ap")
    2511                            .dwattr $C$DW$170, DW_AT_data_member_location[DW_OP_plus_uconst 0x0]
    2512                            .dwattr $C$DW$170, DW_AT_accessibility(DW_ACCESS_public)
    2513                            .dwattr $C$DW$170, DW_AT_decl_file("C:/TI_CodeComposer/ccsv6/tools/compiler/arm_5.1.7/include/
    2514                            .dwattr $C$DW$170, DW_AT_decl_line(0x32)
    2515                            .dwattr $C$DW$170, DW_AT_decl_column(0x0c)
    2516                            .dwendtag $C$DW$T$22
    2517                    
    2518                            .dwattr $C$DW$T$22, DW_AT_decl_file("C:/TI_CodeComposer/ccsv6/tools/compiler/arm_5.1.7/include
    2519                            .dwattr $C$DW$T$22, DW_AT_decl_line(0x31)
    2520                            .dwattr $C$DW$T$22, DW_AT_decl_column(0x10)
    2521                    $C$DW$T$160     .dwtag  DW_TAG_typedef, DW_AT_name("va_list")
    2522                            .dwattr $C$DW$T$160, DW_AT_type(*$C$DW$T$22)
    2523                            .dwattr $C$DW$T$160, DW_AT_language(DW_LANG_C)
    2524                            .dwattr $C$DW$T$160, DW_AT_decl_file("C:/TI_CodeComposer/ccsv6/tools/compiler/arm_5.1.7/includ
    2525                            .dwattr $C$DW$T$160, DW_AT_decl_line(0x33)
    2526                            .dwattr $C$DW$T$160, DW_AT_decl_column(0x03)
    2527                    $C$DW$T$161     .dwtag  DW_TAG_typedef, DW_AT_name("_Va_list")
    2528                            .dwattr $C$DW$T$161, DW_AT_type(*$C$DW$T$160)
    2529                            .dwattr $C$DW$T$161, DW_AT_language(DW_LANG_C)
    2530                            .dwattr $C$DW$T$161, DW_AT_decl_file("C:/TI_CodeComposer/ccsv6/tools/compiler/arm_5.1.7/includ
TI ARM Assembler PC v5.1.7 Tue Sep 16 08:38:38 2014

Tools Copyright (c) 1996-2014 Texas Instruments Incorporated
event_groups.asm                                                     PAGE   47

    2531                            .dwattr $C$DW$T$161, DW_AT_decl_line(0x218)
    2532                            .dwattr $C$DW$T$161, DW_AT_decl_column(0x17)
    2533                    
    2534                    $C$DW$T$27      .dwtag  DW_TAG_structure_type
    2535                            .dwattr $C$DW$T$27, DW_AT_name("xEventGroupDefinition")
    2536                            .dwattr $C$DW$T$27, DW_AT_byte_size(0x18)
    2537                    $C$DW$171       .dwtag  DW_TAG_member
    2538                            .dwattr $C$DW$171, DW_AT_type(*$C$DW$T$25)
    2539                            .dwattr $C$DW$171, DW_AT_name("uxEventBits")
    2540                            .dwattr $C$DW$171, DW_AT_TI_symbol_name("uxEventBits")
    2541                            .dwattr $C$DW$171, DW_AT_data_member_location[DW_OP_plus_uconst 0x0]
    2542                            .dwattr $C$DW$171, DW_AT_accessibility(DW_ACCESS_public)
    2543                            .dwattr $C$DW$171, DW_AT_decl_file("../Source/event_groups.c")
    2544                            .dwattr $C$DW$171, DW_AT_decl_line(0x6f)
    2545                            .dwattr $C$DW$171, DW_AT_decl_column(0x0e)
    2546                    $C$DW$172       .dwtag  DW_TAG_member
    2547                            .dwattr $C$DW$172, DW_AT_type(*$C$DW$T$26)
    2548                            .dwattr $C$DW$172, DW_AT_name("xTasksWaitingForBits")
    2549                            .dwattr $C$DW$172, DW_AT_TI_symbol_name("xTasksWaitingForBits")
    2550                            .dwattr $C$DW$172, DW_AT_data_member_location[DW_OP_plus_uconst 0x4]
    2551                            .dwattr $C$DW$172, DW_AT_accessibility(DW_ACCESS_public)
    2552                            .dwattr $C$DW$172, DW_AT_decl_file("../Source/event_groups.c")
    2553                            .dwattr $C$DW$172, DW_AT_decl_line(0x70)
    2554                            .dwattr $C$DW$172, DW_AT_decl_column(0x09)
    2555                            .dwendtag $C$DW$T$27
    2556                    
    2557                            .dwattr $C$DW$T$27, DW_AT_decl_file("../Source/event_groups.c")
    2558                            .dwattr $C$DW$T$27, DW_AT_decl_line(0x6d)
    2559                            .dwattr $C$DW$T$27, DW_AT_decl_column(0x10)
    2560                    $C$DW$T$162     .dwtag  DW_TAG_typedef, DW_AT_name("EventGroup_t")
    2561                            .dwattr $C$DW$T$162, DW_AT_type(*$C$DW$T$27)
    2562                            .dwattr $C$DW$T$162, DW_AT_language(DW_LANG_C)
    2563                            .dwattr $C$DW$T$162, DW_AT_decl_file("../Source/event_groups.c")
    2564                            .dwattr $C$DW$T$162, DW_AT_decl_line(0x76)
    2565                            .dwattr $C$DW$T$162, DW_AT_decl_column(0x03)
    2566                    $C$DW$T$163     .dwtag  DW_TAG_pointer_type
    2567                            .dwattr $C$DW$T$163, DW_AT_type(*$C$DW$T$162)
    2568                            .dwattr $C$DW$T$163, DW_AT_address_class(0x20)
    2569                    
    2570                    $C$DW$T$32      .dwtag  DW_TAG_structure_type
    2571                            .dwattr $C$DW$T$32, DW_AT_name("xLIST")
    2572                            .dwattr $C$DW$T$32, DW_AT_byte_size(0x14)
    2573                    $C$DW$173       .dwtag  DW_TAG_member
    2574                            .dwattr $C$DW$173, DW_AT_type(*$C$DW$T$28)
    2575                            .dwattr $C$DW$173, DW_AT_name("uxNumberOfItems")
    2576                            .dwattr $C$DW$173, DW_AT_TI_symbol_name("uxNumberOfItems")
    2577                            .dwattr $C$DW$173, DW_AT_data_member_location[DW_OP_plus_uconst 0x0]
    2578                            .dwattr $C$DW$173, DW_AT_accessibility(DW_ACCESS_public)
    2579                            .dwattr $C$DW$173, DW_AT_decl_file("H:\class\690 Adv. Emb. Sys\FreeRTOS8_EECS_TM4C1294_SensorH
    2580                            .dwattr $C$DW$173, DW_AT_decl_line(0x9f)
    2581                            .dwattr $C$DW$173, DW_AT_decl_column(0x22)
    2582                    $C$DW$174       .dwtag  DW_TAG_member
    2583                            .dwattr $C$DW$174, DW_AT_type(*$C$DW$T$30)
    2584                            .dwattr $C$DW$174, DW_AT_name("pxIndex")
    2585                            .dwattr $C$DW$174, DW_AT_TI_symbol_name("pxIndex")
TI ARM Assembler PC v5.1.7 Tue Sep 16 08:38:38 2014

Tools Copyright (c) 1996-2014 Texas Instruments Incorporated
event_groups.asm                                                     PAGE   48

    2586                            .dwattr $C$DW$174, DW_AT_data_member_location[DW_OP_plus_uconst 0x4]
    2587                            .dwattr $C$DW$174, DW_AT_accessibility(DW_ACCESS_public)
    2588                            .dwattr $C$DW$174, DW_AT_decl_file("H:\class\690 Adv. Emb. Sys\FreeRTOS8_EECS_TM4C1294_SensorH
    2589                            .dwattr $C$DW$174, DW_AT_decl_line(0xa0)
    2590                            .dwattr $C$DW$174, DW_AT_decl_column(0x23)
    2591                    $C$DW$175       .dwtag  DW_TAG_member
    2592                            .dwattr $C$DW$175, DW_AT_type(*$C$DW$T$31)
    2593                            .dwattr $C$DW$175, DW_AT_name("xListEnd")
    2594                            .dwattr $C$DW$175, DW_AT_TI_symbol_name("xListEnd")
    2595                            .dwattr $C$DW$175, DW_AT_data_member_location[DW_OP_plus_uconst 0x8]
    2596                            .dwattr $C$DW$175, DW_AT_accessibility(DW_ACCESS_public)
    2597                            .dwattr $C$DW$175, DW_AT_decl_file("H:\class\690 Adv. Emb. Sys\FreeRTOS8_EECS_TM4C1294_SensorH
    2598                            .dwattr $C$DW$175, DW_AT_decl_line(0xa1)
    2599                            .dwattr $C$DW$175, DW_AT_decl_column(0x11)
    2600                            .dwendtag $C$DW$T$32
    2601                    
    2602                            .dwattr $C$DW$T$32, DW_AT_decl_file("H:\class\690 Adv. Emb. Sys\FreeRTOS8_EECS_TM4C1294_Sensor
    2603                            .dwattr $C$DW$T$32, DW_AT_decl_line(0x9d)
    2604                            .dwattr $C$DW$T$32, DW_AT_decl_column(0x10)
    2605                    $C$DW$T$26      .dwtag  DW_TAG_typedef, DW_AT_name("List_t")
    2606                            .dwattr $C$DW$T$26, DW_AT_type(*$C$DW$T$32)
    2607                            .dwattr $C$DW$T$26, DW_AT_language(DW_LANG_C)
    2608                            .dwattr $C$DW$T$26, DW_AT_decl_file("H:\class\690 Adv. Emb. Sys\FreeRTOS8_EECS_TM4C1294_Sensor
    2609                            .dwattr $C$DW$T$26, DW_AT_decl_line(0xa2)
    2610                            .dwattr $C$DW$T$26, DW_AT_decl_column(0x03)
    2611                    $C$DW$T$164     .dwtag  DW_TAG_const_type
    2612                            .dwattr $C$DW$T$164, DW_AT_type(*$C$DW$T$26)
    2613                    $C$DW$T$165     .dwtag  DW_TAG_pointer_type
    2614                            .dwattr $C$DW$T$165, DW_AT_type(*$C$DW$T$164)
    2615                            .dwattr $C$DW$T$165, DW_AT_address_class(0x20)
    2616                    $C$DW$T$73      .dwtag  DW_TAG_pointer_type
    2617                            .dwattr $C$DW$T$73, DW_AT_type(*$C$DW$T$26)
    2618                            .dwattr $C$DW$T$73, DW_AT_address_class(0x20)
    2619                    $C$DW$T$74      .dwtag  DW_TAG_const_type
    2620                            .dwattr $C$DW$T$74, DW_AT_type(*$C$DW$T$73)
    2621                    
    2622                    $C$DW$T$34      .dwtag  DW_TAG_structure_type
    2623                            .dwattr $C$DW$T$34, DW_AT_name("xLIST_ITEM")
    2624                            .dwattr $C$DW$T$34, DW_AT_byte_size(0x14)
    2625                    $C$DW$176       .dwtag  DW_TAG_member
    2626                            .dwattr $C$DW$176, DW_AT_type(*$C$DW$T$24)
    2627                            .dwattr $C$DW$176, DW_AT_name("xItemValue")
    2628                            .dwattr $C$DW$176, DW_AT_TI_symbol_name("xItemValue")
    2629                            .dwattr $C$DW$176, DW_AT_data_member_location[DW_OP_plus_uconst 0x0]
    2630                            .dwattr $C$DW$176, DW_AT_accessibility(DW_ACCESS_public)
    2631                            .dwattr $C$DW$176, DW_AT_decl_file("H:\class\690 Adv. Emb. Sys\FreeRTOS8_EECS_TM4C1294_SensorH
    2632                            .dwattr $C$DW$176, DW_AT_decl_line(0x8a)
    2633                            .dwattr $C$DW$176, DW_AT_decl_column(0x21)
    2634                    $C$DW$177       .dwtag  DW_TAG_member
    2635                            .dwattr $C$DW$177, DW_AT_type(*$C$DW$T$33)
    2636                            .dwattr $C$DW$177, DW_AT_name("pxNext")
    2637                            .dwattr $C$DW$177, DW_AT_TI_symbol_name("pxNext")
    2638                            .dwattr $C$DW$177, DW_AT_data_member_location[DW_OP_plus_uconst 0x4]
    2639                            .dwattr $C$DW$177, DW_AT_accessibility(DW_ACCESS_public)
    2640                            .dwattr $C$DW$177, DW_AT_decl_file("H:\class\690 Adv. Emb. Sys\FreeRTOS8_EECS_TM4C1294_SensorH
TI ARM Assembler PC v5.1.7 Tue Sep 16 08:38:38 2014

Tools Copyright (c) 1996-2014 Texas Instruments Incorporated
event_groups.asm                                                     PAGE   49

    2641                            .dwattr $C$DW$177, DW_AT_decl_line(0x8b)
    2642                            .dwattr $C$DW$177, DW_AT_decl_column(0x2a)
    2643                    $C$DW$178       .dwtag  DW_TAG_member
    2644                            .dwattr $C$DW$178, DW_AT_type(*$C$DW$T$33)
    2645                            .dwattr $C$DW$178, DW_AT_name("pxPrevious")
    2646                            .dwattr $C$DW$178, DW_AT_TI_symbol_name("pxPrevious")
    2647                            .dwattr $C$DW$178, DW_AT_data_member_location[DW_OP_plus_uconst 0x8]
    2648                            .dwattr $C$DW$178, DW_AT_accessibility(DW_ACCESS_public)
    2649                            .dwattr $C$DW$178, DW_AT_decl_file("H:\class\690 Adv. Emb. Sys\FreeRTOS8_EECS_TM4C1294_SensorH
    2650                            .dwattr $C$DW$178, DW_AT_decl_line(0x8c)
    2651                            .dwattr $C$DW$178, DW_AT_decl_column(0x2a)
    2652                    $C$DW$179       .dwtag  DW_TAG_member
    2653                            .dwattr $C$DW$179, DW_AT_type(*$C$DW$T$3)
    2654                            .dwattr $C$DW$179, DW_AT_name("pvOwner")
    2655                            .dwattr $C$DW$179, DW_AT_TI_symbol_name("pvOwner")
    2656                            .dwattr $C$DW$179, DW_AT_data_member_location[DW_OP_plus_uconst 0xc]
    2657                            .dwattr $C$DW$179, DW_AT_accessibility(DW_ACCESS_public)
    2658                            .dwattr $C$DW$179, DW_AT_decl_file("H:\class\690 Adv. Emb. Sys\FreeRTOS8_EECS_TM4C1294_SensorH
    2659                            .dwattr $C$DW$179, DW_AT_decl_line(0x8d)
    2660                            .dwattr $C$DW$179, DW_AT_decl_column(0x09)
    2661                    $C$DW$180       .dwtag  DW_TAG_member
    2662                            .dwattr $C$DW$180, DW_AT_type(*$C$DW$T$3)
    2663                            .dwattr $C$DW$180, DW_AT_name("pvContainer")
    2664                            .dwattr $C$DW$180, DW_AT_TI_symbol_name("pvContainer")
    2665                            .dwattr $C$DW$180, DW_AT_data_member_location[DW_OP_plus_uconst 0x10]
    2666                            .dwattr $C$DW$180, DW_AT_accessibility(DW_ACCESS_public)
    2667                            .dwattr $C$DW$180, DW_AT_decl_file("H:\class\690 Adv. Emb. Sys\FreeRTOS8_EECS_TM4C1294_SensorH
    2668                            .dwattr $C$DW$180, DW_AT_decl_line(0x8e)
    2669                            .dwattr $C$DW$180, DW_AT_decl_column(0x1d)
    2670                            .dwendtag $C$DW$T$34
    2671                    
    2672                            .dwattr $C$DW$T$34, DW_AT_decl_file("H:\class\690 Adv. Emb. Sys\FreeRTOS8_EECS_TM4C1294_Sensor
    2673                            .dwattr $C$DW$T$34, DW_AT_decl_line(0x88)
    2674                            .dwattr $C$DW$T$34, DW_AT_decl_column(0x08)
    2675                    $C$DW$T$29      .dwtag  DW_TAG_typedef, DW_AT_name("ListItem_t")
    2676                            .dwattr $C$DW$T$29, DW_AT_type(*$C$DW$T$34)
    2677                            .dwattr $C$DW$T$29, DW_AT_language(DW_LANG_C)
    2678                            .dwattr $C$DW$T$29, DW_AT_decl_file("H:\class\690 Adv. Emb. Sys\FreeRTOS8_EECS_TM4C1294_Sensor
    2679                            .dwattr $C$DW$T$29, DW_AT_decl_line(0x90)
    2680                            .dwattr $C$DW$T$29, DW_AT_decl_column(0x1b)
    2681                    $C$DW$T$166     .dwtag  DW_TAG_const_type
    2682                            .dwattr $C$DW$T$166, DW_AT_type(*$C$DW$T$29)
    2683                    $C$DW$T$167     .dwtag  DW_TAG_pointer_type
    2684                            .dwattr $C$DW$T$167, DW_AT_type(*$C$DW$T$166)
    2685                            .dwattr $C$DW$T$167, DW_AT_address_class(0x20)
    2686                    $C$DW$T$30      .dwtag  DW_TAG_pointer_type
    2687                            .dwattr $C$DW$T$30, DW_AT_type(*$C$DW$T$29)
    2688                            .dwattr $C$DW$T$30, DW_AT_address_class(0x20)
    2689                    $C$DW$T$33      .dwtag  DW_TAG_pointer_type
    2690                            .dwattr $C$DW$T$33, DW_AT_type(*$C$DW$T$34)
    2691                            .dwattr $C$DW$T$33, DW_AT_address_class(0x20)
    2692                    
    2693                    $C$DW$T$35      .dwtag  DW_TAG_structure_type
    2694                            .dwattr $C$DW$T$35, DW_AT_name("xMEMORY_REGION")
    2695                            .dwattr $C$DW$T$35, DW_AT_byte_size(0x0c)
TI ARM Assembler PC v5.1.7 Tue Sep 16 08:38:38 2014

Tools Copyright (c) 1996-2014 Texas Instruments Incorporated
