TI ARM Assembler PC v5.1.7 Tue Sep 16 08:38:40 2014

Tools Copyright (c) 1996-2014 Texas Instruments Incorporated
queue.asm                                                            PAGE    1

       1                    ;******************************************************************************
       2                    ;* TI ARM C/C++ Codegen                                             PC v5.1.7 *
       3                    ;* Date/Time created: Tue Sep 16 08:38:40 2014                                *
       4                    ;******************************************************************************
       5                            .compiler_opts --abi=eabi --arm_vmrs_si_workaround=off --code_state=16 --disable_dual_state --
       6 00000000                   .thumb
       7                    
       8                    $C$DW$CU        .dwtag  DW_TAG_compile_unit
       9                            .dwattr $C$DW$CU, DW_AT_name("../Source/queue.c")
      10                            .dwattr $C$DW$CU, DW_AT_producer("TI TI ARM C/C++ Codegen PC v5.1.7 Copyright (c) 1996-2014 Te
      11                            .dwattr $C$DW$CU, DW_AT_TI_version(0x01)
      12                            .dwattr $C$DW$CU, DW_AT_comp_dir("H:\class\690 Adv. Emb. Sys\FreeRTOS8_EECS_TM4C1294_SensorHub
      13                    
      14                    $C$DW$1 .dwtag  DW_TAG_subprogram, DW_AT_name("memcpy")
      15                            .dwattr $C$DW$1, DW_AT_TI_symbol_name("memcpy")
      16                            .dwattr $C$DW$1, DW_AT_type(*$C$DW$T$3)
      17                            .dwattr $C$DW$1, DW_AT_declaration
      18                            .dwattr $C$DW$1, DW_AT_external
      19                            .dwattr $C$DW$1, DW_AT_decl_file("C:/TI_CodeComposer/ccsv6/tools/compiler/arm_5.1.7/include/st
      20                            .dwattr $C$DW$1, DW_AT_decl_line(0x5e)
      21                            .dwattr $C$DW$1, DW_AT_decl_column(0x16)
      22                    $C$DW$2 .dwtag  DW_TAG_formal_parameter
      23                            .dwattr $C$DW$2, DW_AT_type(*$C$DW$T$3)
      24                    $C$DW$3 .dwtag  DW_TAG_formal_parameter
      25                            .dwattr $C$DW$3, DW_AT_type(*$C$DW$T$81)
      26                    $C$DW$4 .dwtag  DW_TAG_formal_parameter
      27                            .dwattr $C$DW$4, DW_AT_type(*$C$DW$T$82)
      28                            .dwendtag $C$DW$1
      29                    
      30                    
      31                    $C$DW$5 .dwtag  DW_TAG_subprogram, DW_AT_name("vPortYieldFromISR")
      32                            .dwattr $C$DW$5, DW_AT_TI_symbol_name("vPortYieldFromISR")
      33                            .dwattr $C$DW$5, DW_AT_declaration
      34                            .dwattr $C$DW$5, DW_AT_external
      35                            .dwattr $C$DW$5, DW_AT_decl_file("H:\class\690 Adv. Emb. Sys\FreeRTOS8_EECS_TM4C1294_SensorHub
      36                            .dwattr $C$DW$5, DW_AT_decl_line(0x7e)
      37                            .dwattr $C$DW$5, DW_AT_decl_column(0x0d)
      38                    
      39                    $C$DW$6 .dwtag  DW_TAG_subprogram, DW_AT_name("vPortEnterCritical")
      40                            .dwattr $C$DW$6, DW_AT_TI_symbol_name("vPortEnterCritical")
      41                            .dwattr $C$DW$6, DW_AT_declaration
      42                            .dwattr $C$DW$6, DW_AT_external
      43                            .dwattr $C$DW$6, DW_AT_decl_file("H:\class\690 Adv. Emb. Sys\FreeRTOS8_EECS_TM4C1294_SensorHub
      44                            .dwattr $C$DW$6, DW_AT_decl_line(0x98)
      45                            .dwattr $C$DW$6, DW_AT_decl_column(0x0d)
      46                    
      47                    $C$DW$7 .dwtag  DW_TAG_subprogram, DW_AT_name("vPortExitCritical")
      48                            .dwattr $C$DW$7, DW_AT_TI_symbol_name("vPortExitCritical")
      49                            .dwattr $C$DW$7, DW_AT_declaration
      50                            .dwattr $C$DW$7, DW_AT_external
      51                            .dwattr $C$DW$7, DW_AT_decl_file("H:\class\690 Adv. Emb. Sys\FreeRTOS8_EECS_TM4C1294_SensorHub
      52                            .dwattr $C$DW$7, DW_AT_decl_line(0x99)
      53                            .dwattr $C$DW$7, DW_AT_decl_column(0x0d)
      54                    
      55                    $C$DW$8 .dwtag  DW_TAG_subprogram, DW_AT_name("ulPortSetInterruptMask")
TI ARM Assembler PC v5.1.7 Tue Sep 16 08:38:40 2014

Tools Copyright (c) 1996-2014 Texas Instruments Incorporated
queue.asm                                                            PAGE    2

      56                            .dwattr $C$DW$8, DW_AT_TI_symbol_name("ulPortSetInterruptMask")
      57                            .dwattr $C$DW$8, DW_AT_type(*$C$DW$T$13)
      58                            .dwattr $C$DW$8, DW_AT_declaration
      59                            .dwattr $C$DW$8, DW_AT_external
      60                            .dwattr $C$DW$8, DW_AT_decl_file("H:\class\690 Adv. Emb. Sys\FreeRTOS8_EECS_TM4C1294_SensorHub
      61                            .dwattr $C$DW$8, DW_AT_decl_line(0x9a)
      62                            .dwattr $C$DW$8, DW_AT_decl_column(0x16)
      63                    
      64                    $C$DW$9 .dwtag  DW_TAG_subprogram, DW_AT_name("vPortClearInterruptMask")
      65                            .dwattr $C$DW$9, DW_AT_TI_symbol_name("vPortClearInterruptMask")
      66                            .dwattr $C$DW$9, DW_AT_declaration
      67                            .dwattr $C$DW$9, DW_AT_external
      68                            .dwattr $C$DW$9, DW_AT_decl_file("H:\class\690 Adv. Emb. Sys\FreeRTOS8_EECS_TM4C1294_SensorHub
      69                            .dwattr $C$DW$9, DW_AT_decl_line(0x9b)
      70                            .dwattr $C$DW$9, DW_AT_decl_column(0x0d)
      71                    $C$DW$10        .dwtag  DW_TAG_formal_parameter
      72                            .dwattr $C$DW$10, DW_AT_type(*$C$DW$T$13)
      73                            .dwendtag $C$DW$9
      74                    
      75                    
      76                    $C$DW$11        .dwtag  DW_TAG_subprogram, DW_AT_name("pvPortMalloc")
      77                            .dwattr $C$DW$11, DW_AT_TI_symbol_name("pvPortMalloc")
      78                            .dwattr $C$DW$11, DW_AT_type(*$C$DW$T$3)
      79                            .dwattr $C$DW$11, DW_AT_declaration
      80                            .dwattr $C$DW$11, DW_AT_external
      81                            .dwattr $C$DW$11, DW_AT_decl_file("H:\class\690 Adv. Emb. Sys\FreeRTOS8_EECS_TM4C1294_SensorHu
      82                            .dwattr $C$DW$11, DW_AT_decl_line(0x175)
      83                            .dwattr $C$DW$11, DW_AT_decl_column(0x07)
      84                    $C$DW$12        .dwtag  DW_TAG_formal_parameter
      85                            .dwattr $C$DW$12, DW_AT_type(*$C$DW$T$82)
      86                            .dwendtag $C$DW$11
      87                    
      88                    
      89                    $C$DW$13        .dwtag  DW_TAG_subprogram, DW_AT_name("vPortFree")
      90                            .dwattr $C$DW$13, DW_AT_TI_symbol_name("vPortFree")
      91                            .dwattr $C$DW$13, DW_AT_declaration
      92                            .dwattr $C$DW$13, DW_AT_external
      93                            .dwattr $C$DW$13, DW_AT_decl_file("H:\class\690 Adv. Emb. Sys\FreeRTOS8_EECS_TM4C1294_SensorHu
      94                            .dwattr $C$DW$13, DW_AT_decl_line(0x176)
      95                            .dwattr $C$DW$13, DW_AT_decl_column(0x06)
      96                    $C$DW$14        .dwtag  DW_TAG_formal_parameter
      97                            .dwattr $C$DW$14, DW_AT_type(*$C$DW$T$3)
      98                            .dwendtag $C$DW$13
      99                    
     100                    
     101                    $C$DW$15        .dwtag  DW_TAG_subprogram, DW_AT_name("vListInitialise")
     102                            .dwattr $C$DW$15, DW_AT_TI_symbol_name("vListInitialise")
     103                            .dwattr $C$DW$15, DW_AT_declaration
     104                            .dwattr $C$DW$15, DW_AT_external
     105                            .dwattr $C$DW$15, DW_AT_decl_file("H:\class\690 Adv. Emb. Sys\FreeRTOS8_EECS_TM4C1294_SensorHu
     106                            .dwattr $C$DW$15, DW_AT_decl_line(0x150)
     107                            .dwattr $C$DW$15, DW_AT_decl_column(0x06)
     108                    $C$DW$16        .dwtag  DW_TAG_formal_parameter
     109                            .dwattr $C$DW$16, DW_AT_type(*$C$DW$T$94)
     110                            .dwendtag $C$DW$15
TI ARM Assembler PC v5.1.7 Tue Sep 16 08:38:40 2014

Tools Copyright (c) 1996-2014 Texas Instruments Incorporated
queue.asm                                                            PAGE    3

     111                    
     112                    
     113                    $C$DW$17        .dwtag  DW_TAG_subprogram, DW_AT_name("vTaskSuspendAll")
     114                            .dwattr $C$DW$17, DW_AT_TI_symbol_name("vTaskSuspendAll")
     115                            .dwattr $C$DW$17, DW_AT_declaration
     116                            .dwattr $C$DW$17, DW_AT_external
     117                            .dwattr $C$DW$17, DW_AT_decl_file("H:/class/690 Adv. Emb. Sys/FreeRTOS8_EECS_TM4C1294_SensorHu
     118                            .dwattr $C$DW$17, DW_AT_decl_line(0x3cf)
     119                            .dwattr $C$DW$17, DW_AT_decl_column(0x06)
     120                    
     121                    $C$DW$18        .dwtag  DW_TAG_subprogram, DW_AT_name("xTaskResumeAll")
     122                            .dwattr $C$DW$18, DW_AT_TI_symbol_name("xTaskResumeAll")
     123                            .dwattr $C$DW$18, DW_AT_type(*$C$DW$T$30)
     124                            .dwattr $C$DW$18, DW_AT_declaration
     125                            .dwattr $C$DW$18, DW_AT_external
     126                            .dwattr $C$DW$18, DW_AT_decl_file("H:/class/690 Adv. Emb. Sys/FreeRTOS8_EECS_TM4C1294_SensorHu
     127                            .dwattr $C$DW$18, DW_AT_decl_line(0x405)
     128                            .dwattr $C$DW$18, DW_AT_decl_column(0x0c)
     129                    
     130                    $C$DW$19        .dwtag  DW_TAG_subprogram, DW_AT_name("vTaskPlaceOnEventList")
     131                            .dwattr $C$DW$19, DW_AT_TI_symbol_name("vTaskPlaceOnEventList")
     132                            .dwattr $C$DW$19, DW_AT_declaration
     133                            .dwattr $C$DW$19, DW_AT_external
     134                            .dwattr $C$DW$19, DW_AT_decl_file("H:/class/690 Adv. Emb. Sys/FreeRTOS8_EECS_TM4C1294_SensorHu
     135                            .dwattr $C$DW$19, DW_AT_decl_line(0x585)
     136                            .dwattr $C$DW$19, DW_AT_decl_column(0x06)
     137                    $C$DW$20        .dwtag  DW_TAG_formal_parameter
     138                            .dwattr $C$DW$20, DW_AT_type(*$C$DW$T$94)
     139                    $C$DW$21        .dwtag  DW_TAG_formal_parameter
     140                            .dwattr $C$DW$21, DW_AT_type(*$C$DW$T$97)
     141                            .dwendtag $C$DW$19
     142                    
     143                    
     144                    $C$DW$22        .dwtag  DW_TAG_subprogram, DW_AT_name("xTaskRemoveFromEventList")
     145                            .dwattr $C$DW$22, DW_AT_TI_symbol_name("xTaskRemoveFromEventList")
     146                            .dwattr $C$DW$22, DW_AT_type(*$C$DW$T$30)
     147                            .dwattr $C$DW$22, DW_AT_declaration
     148                            .dwattr $C$DW$22, DW_AT_external
     149                            .dwattr $C$DW$22, DW_AT_decl_file("H:/class/690 Adv. Emb. Sys/FreeRTOS8_EECS_TM4C1294_SensorHu
     150                            .dwattr $C$DW$22, DW_AT_decl_line(0x5ad)
     151                            .dwattr $C$DW$22, DW_AT_decl_column(0x0c)
     152                    $C$DW$23        .dwtag  DW_TAG_formal_parameter
     153                            .dwattr $C$DW$23, DW_AT_type(*$C$DW$T$131)
     154                            .dwendtag $C$DW$22
     155                    
     156                    
     157                    $C$DW$24        .dwtag  DW_TAG_subprogram, DW_AT_name("vTaskSetTimeOutState")
     158                            .dwattr $C$DW$24, DW_AT_TI_symbol_name("vTaskSetTimeOutState")
     159                            .dwattr $C$DW$24, DW_AT_declaration
     160                            .dwattr $C$DW$24, DW_AT_external
     161                            .dwattr $C$DW$24, DW_AT_decl_file("H:/class/690 Adv. Emb. Sys/FreeRTOS8_EECS_TM4C1294_SensorHu
     162                            .dwattr $C$DW$24, DW_AT_decl_line(0x5c8)
     163                            .dwattr $C$DW$24, DW_AT_decl_column(0x06)
     164                    $C$DW$25        .dwtag  DW_TAG_formal_parameter
     165                            .dwattr $C$DW$25, DW_AT_type(*$C$DW$T$102)
TI ARM Assembler PC v5.1.7 Tue Sep 16 08:38:40 2014

Tools Copyright (c) 1996-2014 Texas Instruments Incorporated
queue.asm                                                            PAGE    4

     166                            .dwendtag $C$DW$24
     167                    
     168                    
     169                    $C$DW$26        .dwtag  DW_TAG_subprogram, DW_AT_name("xTaskCheckForTimeOut")
     170                            .dwattr $C$DW$26, DW_AT_TI_symbol_name("xTaskCheckForTimeOut")
     171                            .dwattr $C$DW$26, DW_AT_type(*$C$DW$T$30)
     172                            .dwattr $C$DW$26, DW_AT_declaration
     173                            .dwattr $C$DW$26, DW_AT_external
     174                            .dwattr $C$DW$26, DW_AT_decl_file("H:/class/690 Adv. Emb. Sys/FreeRTOS8_EECS_TM4C1294_SensorHu
     175                            .dwattr $C$DW$26, DW_AT_decl_line(0x5ce)
     176                            .dwattr $C$DW$26, DW_AT_decl_column(0x0c)
     177                    $C$DW$27        .dwtag  DW_TAG_formal_parameter
     178                            .dwattr $C$DW$27, DW_AT_type(*$C$DW$T$102)
     179                    $C$DW$28        .dwtag  DW_TAG_formal_parameter
     180                            .dwattr $C$DW$28, DW_AT_type(*$C$DW$T$135)
     181                            .dwendtag $C$DW$26
     182                    
     183                    
     184                    $C$DW$29        .dwtag  DW_TAG_subprogram, DW_AT_name("vTaskMissedYield")
     185                            .dwattr $C$DW$29, DW_AT_TI_symbol_name("vTaskMissedYield")
     186                            .dwattr $C$DW$29, DW_AT_declaration
     187                            .dwattr $C$DW$29, DW_AT_external
     188                            .dwattr $C$DW$29, DW_AT_decl_file("H:/class/690 Adv. Emb. Sys/FreeRTOS8_EECS_TM4C1294_SensorHu
     189                            .dwattr $C$DW$29, DW_AT_decl_line(0x5d4)
     190                            .dwattr $C$DW$29, DW_AT_decl_column(0x06)
     191                    ;       C:\TI_CodeComposer\ccsv6\tools\compiler\arm_5.1.7\bin\armacpia.exe -@C:\\Users\\zflies\\AppDat
     192 00000000                   .sect   ".text"
     193                            .clink
     194                            .thumbfunc xQueueGenericReset
     195 00000000                   .thumb
     196                            .global xQueueGenericReset
     197                    
     198                    $C$DW$30        .dwtag  DW_TAG_subprogram, DW_AT_name("xQueueGenericReset")
     199                            .dwattr $C$DW$30, DW_AT_low_pc(xQueueGenericReset)
     200                            .dwattr $C$DW$30, DW_AT_high_pc(0x00)
     201                            .dwattr $C$DW$30, DW_AT_TI_symbol_name("xQueueGenericReset")
     202                            .dwattr $C$DW$30, DW_AT_external
     203                            .dwattr $C$DW$30, DW_AT_type(*$C$DW$T$30)
     204                            .dwattr $C$DW$30, DW_AT_TI_begin_file("../Source/queue.c")
     205                            .dwattr $C$DW$30, DW_AT_TI_begin_line(0xff)
     206                            .dwattr $C$DW$30, DW_AT_TI_begin_column(0x0c)
     207                            .dwattr $C$DW$30, DW_AT_decl_file("../Source/queue.c")
     208                            .dwattr $C$DW$30, DW_AT_decl_line(0xff)
     209                            .dwattr $C$DW$30, DW_AT_decl_column(0x0c)
     210                            .dwattr $C$DW$30, DW_AT_TI_max_frame_size(0x10)
     211                            .dwpsn  file "../Source/queue.c",line 256,column 1,is_stmt,address xQueueGenericReset,isa 1
     212                    
     213                            .dwfde $C$DW$CIE, xQueueGenericReset
     214                    $C$DW$31        .dwtag  DW_TAG_formal_parameter, DW_AT_name("xQueue")
     215                            .dwattr $C$DW$31, DW_AT_TI_symbol_name("xQueue")
     216                            .dwattr $C$DW$31, DW_AT_type(*$C$DW$T$72)
     217                            .dwattr $C$DW$31, DW_AT_location[DW_OP_reg0]
     218                    $C$DW$32        .dwtag  DW_TAG_formal_parameter, DW_AT_name("xNewQueue")
     219                            .dwattr $C$DW$32, DW_AT_TI_symbol_name("xNewQueue")
     220                            .dwattr $C$DW$32, DW_AT_type(*$C$DW$T$30)
TI ARM Assembler PC v5.1.7 Tue Sep 16 08:38:40 2014

Tools Copyright (c) 1996-2014 Texas Instruments Incorporated
queue.asm                                                            PAGE    5

     221                            .dwattr $C$DW$32, DW_AT_location[DW_OP_reg1]
     222                    
     223                    ;*****************************************************************************
     224                    ;* FUNCTION NAME: xQueueGenericReset                                         *
     225                    ;*                                                                           *
     226                    ;*   Regs Modified     : A1,A2,A3,A4,V9,SP,LR,SR,D0,D0_hi,D1,D1_hi,D2,D2_hi, *
     227                    ;*                           D3,D3_hi,D4,D4_hi,D5,D5_hi,D6,D6_hi,D7,D7_hi,   *
     228                    ;*                           FPEXC,FPSCR                                     *
     229                    ;*   Regs Used         : A1,A2,A3,A4,V9,SP,LR,SR,D0,D0_hi,D1,D1_hi,D2,D2_hi, *
     230                    ;*                           D3,D3_hi,D4,D4_hi,D5,D5_hi,D6,D6_hi,D7,D7_hi,   *
     231                    ;*                           FPEXC,FPSCR                                     *
     232                    ;*   Local Frame Size  : 0 Args + 12 Auto + 4 Save = 16 byte                 *
     233                    ;*****************************************************************************
     234 00000000           xQueueGenericReset:
     235                    ;* --------------------------------------------------------------------------*
     236                            .dwcfi  cfa_offset, 0
     237 00000000 B50E              PUSH      {A2, A3, A4, LR}      ; [DPU_3_PIPE]  ; [ORIG 16-BIT INS]
     238                            .dwcfi  cfa_offset, 16
     239                            .dwcfi  save_reg_to_mem, 14, -4
     240                            .dwcfi  save_reg_to_mem, 3, -8
     241                            .dwcfi  save_reg_to_mem, 2, -12
     242                            .dwcfi  save_reg_to_mem, 1, -16
     243                    $C$DW$33        .dwtag  DW_TAG_variable, DW_AT_name("xQueue")
     244                            .dwattr $C$DW$33, DW_AT_TI_symbol_name("xQueue")
     245                            .dwattr $C$DW$33, DW_AT_type(*$C$DW$T$72)
     246                            .dwattr $C$DW$33, DW_AT_location[DW_OP_breg13 0]
     247                    $C$DW$34        .dwtag  DW_TAG_variable, DW_AT_name("xNewQueue")
     248                            .dwattr $C$DW$34, DW_AT_TI_symbol_name("xNewQueue")
     249                            .dwattr $C$DW$34, DW_AT_type(*$C$DW$T$30)
     250                            .dwattr $C$DW$34, DW_AT_location[DW_OP_breg13 4]
     251                    $C$DW$35        .dwtag  DW_TAG_variable, DW_AT_name("pxQueue")
     252                            .dwattr $C$DW$35, DW_AT_TI_symbol_name("pxQueue")
     253                            .dwattr $C$DW$35, DW_AT_type(*$C$DW$T$71)
     254                            .dwattr $C$DW$35, DW_AT_location[DW_OP_breg13 8]
     255 00000002 9101              STR       A2, [SP, #4]          ; [DPU_3_PIPE] |256|  ; [ORIG 16-BIT INS]
     256 00000004 9000              STR       A1, [SP, #0]          ; [DPU_3_PIPE] |256|  ; [ORIG 16-BIT INS]
     257                            .dwpsn  file "../Source/queue.c",line 257,column 25,is_stmt,isa 1
     258 00000006 9800              LDR       A1, [SP, #0]          ; [DPU_3_PIPE] |257|  ; [ORIG 16-BIT INS]
     259 00000008 9002              STR       A1, [SP, #8]          ; [DPU_3_PIPE] |257|  ; [ORIG 16-BIT INS]
     260                            .dwpsn  file "../Source/queue.c",line 261,column 2,is_stmt,isa 1
     261                    $C$DW$36        .dwtag  DW_TAG_TI_branch
     262                            .dwattr $C$DW$36, DW_AT_low_pc(0x00)
     263                            .dwattr $C$DW$36, DW_AT_name("vPortEnterCritical")
     264                            .dwattr $C$DW$36, DW_AT_TI_call
     265 0000000a FFFEF7FF!         BL        vPortEnterCritical    ; [DPU_3_PIPE] |261|  ; [KEEP 32-BIT INS]
     266                            ; CALL OCCURS {vPortEnterCritical }  ; [] |261| 
     267                            .dwpsn  file "../Source/queue.c",line 263,column 3,is_stmt,isa 1
     268 0000000e 9902              LDR       A2, [SP, #8]          ; [DPU_3_PIPE] |263|  ; [ORIG 16-BIT INS]
     269 00000010 9A02              LDR       A3, [SP, #8]          ; [DPU_3_PIPE] |263|  ; [ORIG 16-BIT INS]
     270 00000012 9802              LDR       A1, [SP, #8]          ; [DPU_3_PIPE] |263|  ; [ORIG 16-BIT INS]
     271 00000014 9B02              LDR       A4, [SP, #8]          ; [DPU_3_PIPE] |263|  ; [ORIG 16-BIT INS]
     272 00000016 6BC9              LDR       A2, [A2, #60]         ; [DPU_3_PIPE] |263|  ; [ORIG 16-BIT INS]
     273 00000018 6C12              LDR       A3, [A3, #64]         ; [DPU_3_PIPE] |263|  ; [ORIG 16-BIT INS]
     274 0000001a 6800              LDR       A1, [A1, #0]          ; [DPU_3_PIPE] |263|  ; [ORIG 16-BIT INS]
     275 0000001c 0001FB02          MLA       A1, A3, A2, A1        ; [DPU_3_PIPE] |263|  ; [KEEP 32-BIT INS]
TI ARM Assembler PC v5.1.7 Tue Sep 16 08:38:40 2014

Tools Copyright (c) 1996-2014 Texas Instruments Incorporated
queue.asm                                                            PAGE    6

     276 00000020 6058              STR       A1, [A4, #4]          ; [DPU_3_PIPE] |263|  ; [ORIG 16-BIT INS]
     277                            .dwpsn  file "../Source/queue.c",line 264,column 3,is_stmt,isa 1
     278 00000022 9802              LDR       A1, [SP, #8]          ; [DPU_3_PIPE] |264|  ; [ORIG 16-BIT INS]
     279 00000024 2100              MOVS      A2, #0                ; [DPU_3_PIPE] |264|  ; [ORIG 16-BIT INS]
     280 00000026 6381              STR       A2, [A1, #56]         ; [DPU_3_PIPE] |264|  ; [ORIG 16-BIT INS]
     281                            .dwpsn  file "../Source/queue.c",line 265,column 3,is_stmt,isa 1
     282 00000028 9802              LDR       A1, [SP, #8]          ; [DPU_3_PIPE] |265|  ; [ORIG 16-BIT INS]
     283 0000002a 9902              LDR       A2, [SP, #8]          ; [DPU_3_PIPE] |265|  ; [ORIG 16-BIT INS]
     284 0000002c 6800              LDR       A1, [A1, #0]          ; [DPU_3_PIPE] |265|  ; [ORIG 16-BIT INS]
     285 0000002e 6088              STR       A1, [A2, #8]          ; [DPU_3_PIPE] |265|  ; [ORIG 16-BIT INS]
     286                            .dwpsn  file "../Source/queue.c",line 266,column 3,is_stmt,isa 1
     287 00000030 9802              LDR       A1, [SP, #8]          ; [DPU_3_PIPE] |266|  ; [ORIG 16-BIT INS]
     288 00000032 9A02              LDR       A3, [SP, #8]          ; [DPU_3_PIPE] |266|  ; [ORIG 16-BIT INS]
     289 00000034 9902              LDR       A2, [SP, #8]          ; [DPU_3_PIPE] |266|  ; [ORIG 16-BIT INS]
     290 00000036 9B02              LDR       A4, [SP, #8]          ; [DPU_3_PIPE] |266|  ; [ORIG 16-BIT INS]
     291 00000038 6BC0              LDR       A1, [A1, #60]         ; [DPU_3_PIPE] |266|  ; [ORIG 16-BIT INS]
     292 0000003a 6C12              LDR       A3, [A3, #64]         ; [DPU_3_PIPE] |266|  ; [ORIG 16-BIT INS]
     293 0000003c 6809              LDR       A2, [A2, #0]          ; [DPU_3_PIPE] |266|  ; [ORIG 16-BIT INS]
     294 0000003e 1E40              SUBS      A1, A1, #1            ; [DPU_3_PIPE] |266|  ; [ORIG 16-BIT INS]
     295 00000040 1000FB02          MLA       A1, A3, A1, A2        ; [DPU_3_PIPE] |266|  ; [KEEP 32-BIT INS]
     296 00000044 60D8              STR       A1, [A4, #12]         ; [DPU_3_PIPE] |266|  ; [ORIG 16-BIT INS]
     297                            .dwpsn  file "../Source/queue.c",line 267,column 3,is_stmt,isa 1
     298 00000046 9802              LDR       A1, [SP, #8]          ; [DPU_3_PIPE] |267|  ; [ORIG 16-BIT INS]
     299 00000048 31FFF04F          MOV       A2, #-1               ; [DPU_3_PIPE] |267|  ; [KEEP 32-BIT INS]
     300 0000004c 6441              STR       A2, [A1, #68]         ; [DPU_3_PIPE] |267|  ; [ORIG 16-BIT INS]
     301                            .dwpsn  file "../Source/queue.c",line 268,column 3,is_stmt,isa 1
     302 0000004e 9802              LDR       A1, [SP, #8]          ; [DPU_3_PIPE] |268|  ; [ORIG 16-BIT INS]
     303 00000050 31FFF04F          MOV       A2, #-1               ; [DPU_3_PIPE] |268|  ; [KEEP 32-BIT INS]
     304 00000054 6481              STR       A2, [A1, #72]         ; [DPU_3_PIPE] |268|  ; [ORIG 16-BIT INS]
     305                            .dwpsn  file "../Source/queue.c",line 270,column 3,is_stmt,isa 1
     306 00000056 9801              LDR       A1, [SP, #4]          ; [DPU_3_PIPE] |270|  ; [ORIG 16-BIT INS]
     307 00000058 B960              CBNZ      A1, ||$C$L2||         ; []  ; [ORIG 16-BIT INS]
     308                            ; BRANCHCC OCCURS {||$C$L2||}    ; [] |270| 
     309                    ;* --------------------------------------------------------------------------*
     310                            .dwpsn  file "../Source/queue.c",line 277,column 4,is_stmt,isa 1
     311 0000005a 9802              LDR       A1, [SP, #8]          ; [DPU_3_PIPE] |277|  ; [ORIG 16-BIT INS]
     312 0000005c 6901              LDR       A2, [A1, #16]         ; [DPU_3_PIPE] |277|  ; [ORIG 16-BIT INS]
     313 0000005e 2000              MOVS      A1, #0                ; [DPU_3_PIPE] |277|  ; [ORIG 16-BIT INS]
     314 00000060 B901              CBNZ      A2, ||$C$L1||         ; []  ; [ORIG 16-BIT INS]
     315                            ; BRANCHCC OCCURS {||$C$L1||}    ; [] |277| 
     316                    ;* --------------------------------------------------------------------------*
     317 00000062 2001              MOVS      A1, #1                ; [DPU_3_PIPE] |277|  ; [ORIG 16-BIT INS]
     318                    ;* --------------------------------------------------------------------------*
     319 00000064           ||$C$L1||:    
     320 00000064 B970              CBNZ      A1, ||$C$L3||         ; []  ; [ORIG 16-BIT INS]
     321                            ; BRANCHCC OCCURS {||$C$L3||}    ; [] |277| 
     322                    ;* --------------------------------------------------------------------------*
     323                            .dwpsn  file "../Source/queue.c",line 279,column 5,is_stmt,isa 1
     324 00000066 9802              LDR       A1, [SP, #8]          ; [DPU_3_PIPE] |279|  ; [ORIG 16-BIT INS]
     325 00000068 3010              ADDS      A1, A1, #16           ; [DPU_3_PIPE] |279|  ; [ORIG 16-BIT INS]
     326                    $C$DW$37        .dwtag  DW_TAG_TI_branch
     327                            .dwattr $C$DW$37, DW_AT_low_pc(0x00)
     328                            .dwattr $C$DW$37, DW_AT_name("xTaskRemoveFromEventList")
     329                            .dwattr $C$DW$37, DW_AT_TI_call
     330 0000006a FFFEF7FF!         BL        xTaskRemoveFromEventList ; [DPU_3_PIPE] |279|  ; [KEEP 32-BIT INS]
TI ARM Assembler PC v5.1.7 Tue Sep 16 08:38:40 2014

Tools Copyright (c) 1996-2014 Texas Instruments Incorporated
queue.asm                                                            PAGE    7

     331                            ; CALL OCCURS {xTaskRemoveFromEventList }  ; [] |279| 
     332 0000006e 2801              CMP       A1, #1                ; [DPU_3_PIPE] |279|  ; [ORIG 16-BIT INS]
     333 00000070 D008              BEQ       ||$C$L3||             ; [DPU_3_PIPE] |279|  ; [ORIG 16-BIT INS]
     334                            ; BRANCHCC OCCURS {||$C$L3||}    ; [] |279| 
     335                    ;* --------------------------------------------------------------------------*
     336                            .dwpsn  file "../Source/queue.c",line 282,column 5,is_stmt,isa 1
     337                            .dwpsn  file "../Source/queue.c",line 287,column 4,is_stmt,isa 1
     338 00000072 E007              B         ||$C$L3||             ; [DPU_3_PIPE] |287|  ; [ORIG 16-BIT INS]
     339                            ; BRANCH OCCURS {||$C$L3||}      ; [] |287| 
     340                    ;* --------------------------------------------------------------------------*
     341                    ;* --------------------------------------------------------------------------*
     342 00000074           ||$C$L2||:    
     343                            .dwpsn  file "../Source/queue.c",line 296,column 4,is_stmt,isa 1
     344 00000074 9802              LDR       A1, [SP, #8]          ; [DPU_3_PIPE] |296|  ; [ORIG 16-BIT INS]
     345 00000076 3010              ADDS      A1, A1, #16           ; [DPU_3_PIPE] |296|  ; [ORIG 16-BIT INS]
     346                    $C$DW$38        .dwtag  DW_TAG_TI_branch
     347                            .dwattr $C$DW$38, DW_AT_low_pc(0x00)
     348                            .dwattr $C$DW$38, DW_AT_name("vListInitialise")
     349                            .dwattr $C$DW$38, DW_AT_TI_call
     350 00000078 FFFEF7FF!         BL        vListInitialise       ; [DPU_3_PIPE] |296|  ; [KEEP 32-BIT INS]
     351                            ; CALL OCCURS {vListInitialise }  ; [] |296| 
     352                            .dwpsn  file "../Source/queue.c",line 297,column 4,is_stmt,isa 1
     353 0000007c 9802              LDR       A1, [SP, #8]          ; [DPU_3_PIPE] |297|  ; [ORIG 16-BIT INS]
     354 0000007e 3024              ADDS      A1, A1, #36           ; [DPU_3_PIPE] |297|  ; [ORIG 16-BIT INS]
     355                    $C$DW$39        .dwtag  DW_TAG_TI_branch
     356                            .dwattr $C$DW$39, DW_AT_low_pc(0x00)
     357                            .dwattr $C$DW$39, DW_AT_name("vListInitialise")
     358                            .dwattr $C$DW$39, DW_AT_TI_call
     359 00000080 FFFEF7FF!         BL        vListInitialise       ; [DPU_3_PIPE] |297|  ; [KEEP 32-BIT INS]
     360                            ; CALL OCCURS {vListInitialise }  ; [] |297| 
     361                    ;* --------------------------------------------------------------------------*
     362 00000084           ||$C$L3||:    
     363                            .dwpsn  file "../Source/queue.c",line 300,column 2,is_stmt,isa 1
     364                    $C$DW$40        .dwtag  DW_TAG_TI_branch
     365                            .dwattr $C$DW$40, DW_AT_low_pc(0x00)
     366                            .dwattr $C$DW$40, DW_AT_name("vPortExitCritical")
     367                            .dwattr $C$DW$40, DW_AT_TI_call
     368 00000084 FFFEF7FF!         BL        vPortExitCritical     ; [DPU_3_PIPE] |300|  ; [KEEP 32-BIT INS]
     369                            ; CALL OCCURS {vPortExitCritical }  ; [] |300| 
     370                            .dwpsn  file "../Source/queue.c",line 304,column 2,is_stmt,isa 1
     371 00000088 2001              MOVS      A1, #1                ; [DPU_3_PIPE] |304|  ; [ORIG 16-BIT INS]
     372                            .dwpsn  file "../Source/queue.c",line 305,column 1,is_stmt,isa 1
     373                    $C$DW$41        .dwtag  DW_TAG_TI_branch
     374                            .dwattr $C$DW$41, DW_AT_low_pc(0x00)
     375                            .dwattr $C$DW$41, DW_AT_TI_return
     376 0000008a BD0E              POP       {A2, A3, A4, PC}      ; [DPU_3_PIPE]  ; [ORIG 16-BIT INS]
     377                            .dwcfi  cfa_offset, 0
     378                            ; BRANCH OCCURS                  ; [] 
     379                            .dwattr $C$DW$30, DW_AT_TI_end_file("../Source/queue.c")
     380                            .dwattr $C$DW$30, DW_AT_TI_end_line(0x131)
     381                            .dwattr $C$DW$30, DW_AT_TI_end_column(0x01)
     382                            .dwendentry
     383                            .dwendtag $C$DW$30
     384                    
     385 0000008c                   .sect   ".text"
TI ARM Assembler PC v5.1.7 Tue Sep 16 08:38:40 2014

Tools Copyright (c) 1996-2014 Texas Instruments Incorporated
queue.asm                                                            PAGE    8

     386                            .clink
     387                            .thumbfunc xQueueGenericCreate
     388 0000008c                   .thumb
     389                            .global xQueueGenericCreate
     390                    
     391                    $C$DW$42        .dwtag  DW_TAG_subprogram, DW_AT_name("xQueueGenericCreate")
     392                            .dwattr $C$DW$42, DW_AT_low_pc(xQueueGenericCreate)
     393                            .dwattr $C$DW$42, DW_AT_high_pc(0x00)
     394                            .dwattr $C$DW$42, DW_AT_TI_symbol_name("xQueueGenericCreate")
     395                            .dwattr $C$DW$42, DW_AT_external
     396                            .dwattr $C$DW$42, DW_AT_type(*$C$DW$T$72)
     397                            .dwattr $C$DW$42, DW_AT_TI_begin_file("../Source/queue.c")
     398                            .dwattr $C$DW$42, DW_AT_TI_begin_line(0x134)
     399                            .dwattr $C$DW$42, DW_AT_TI_begin_column(0x0f)
     400                            .dwattr $C$DW$42, DW_AT_decl_file("../Source/queue.c")
     401                            .dwattr $C$DW$42, DW_AT_decl_line(0x134)
     402                            .dwattr $C$DW$42, DW_AT_decl_column(0x0f)
     403                            .dwattr $C$DW$42, DW_AT_TI_max_frame_size(0x20)
     404                            .dwpsn  file "../Source/queue.c",line 309,column 1,is_stmt,address xQueueGenericCreate,isa 1
     405                    
     406                            .dwfde $C$DW$CIE, xQueueGenericCreate
     407                    $C$DW$43        .dwtag  DW_TAG_formal_parameter, DW_AT_name("uxQueueLength")
     408                            .dwattr $C$DW$43, DW_AT_TI_symbol_name("uxQueueLength")
     409                            .dwattr $C$DW$43, DW_AT_type(*$C$DW$T$74)
     410                            .dwattr $C$DW$43, DW_AT_location[DW_OP_reg0]
     411                    $C$DW$44        .dwtag  DW_TAG_formal_parameter, DW_AT_name("uxItemSize")
     412                            .dwattr $C$DW$44, DW_AT_TI_symbol_name("uxItemSize")
     413                            .dwattr $C$DW$44, DW_AT_type(*$C$DW$T$74)
     414                            .dwattr $C$DW$44, DW_AT_location[DW_OP_reg1]
     415                    $C$DW$45        .dwtag  DW_TAG_formal_parameter, DW_AT_name("ucQueueType")
     416                            .dwattr $C$DW$45, DW_AT_TI_symbol_name("ucQueueType")
     417                            .dwattr $C$DW$45, DW_AT_type(*$C$DW$T$76)
     418                            .dwattr $C$DW$45, DW_AT_location[DW_OP_reg2]
     419                    
     420                    ;*****************************************************************************
     421                    ;* FUNCTION NAME: xQueueGenericCreate                                        *
     422                    ;*                                                                           *
     423                    ;*   Regs Modified     : A1,A2,A3,A4,V9,SP,LR,SR,D0,D0_hi,D1,D1_hi,D2,D2_hi, *
     424                    ;*                           D3,D3_hi,D4,D4_hi,D5,D5_hi,D6,D6_hi,D7,D7_hi,   *
     425                    ;*                           FPEXC,FPSCR                                     *
     426                    ;*   Regs Used         : A1,A2,A3,A4,V9,SP,LR,SR,D0,D0_hi,D1,D1_hi,D2,D2_hi, *
     427                    ;*                           D3,D3_hi,D4,D4_hi,D5,D5_hi,D6,D6_hi,D7,D7_hi,   *
     428                    ;*                           FPEXC,FPSCR                                     *
     429                    ;*   Local Frame Size  : 0 Args + 24 Auto + 4 Save = 28 byte                 *
     430                    ;*****************************************************************************
     431 0000008c           xQueueGenericCreate:
     432                    ;* --------------------------------------------------------------------------*
     433                            .dwcfi  cfa_offset, 0
     434 0000008c B500              PUSH      {LR}                  ; [DPU_3_PIPE]  ; [ORIG 16-BIT INS]
     435                            .dwcfi  cfa_offset, 4
     436                            .dwcfi  save_reg_to_mem, 14, -4
     437 0000008e 0D1CF1AD          SUB       SP, SP, #28           ; [DPU_3_PIPE]  ; [KEEP 32-BIT INS]
     438                            .dwcfi  cfa_offset, 32
     439                    $C$DW$46        .dwtag  DW_TAG_variable, DW_AT_name("uxQueueLength")
     440                            .dwattr $C$DW$46, DW_AT_TI_symbol_name("uxQueueLength")
TI ARM Assembler PC v5.1.7 Tue Sep 16 08:38:40 2014

Tools Copyright (c) 1996-2014 Texas Instruments Incorporated
queue.asm                                                            PAGE    9

     441                            .dwattr $C$DW$46, DW_AT_type(*$C$DW$T$74)
     442                            .dwattr $C$DW$46, DW_AT_location[DW_OP_breg13 0]
     443                    $C$DW$47        .dwtag  DW_TAG_variable, DW_AT_name("uxItemSize")
     444                            .dwattr $C$DW$47, DW_AT_TI_symbol_name("uxItemSize")
     445                            .dwattr $C$DW$47, DW_AT_type(*$C$DW$T$74)
     446                            .dwattr $C$DW$47, DW_AT_location[DW_OP_breg13 4]
     447                    $C$DW$48        .dwtag  DW_TAG_variable, DW_AT_name("ucQueueType")
     448                            .dwattr $C$DW$48, DW_AT_TI_symbol_name("ucQueueType")
     449                            .dwattr $C$DW$48, DW_AT_type(*$C$DW$T$76)
     450                            .dwattr $C$DW$48, DW_AT_location[DW_OP_breg13 8]
     451                    $C$DW$49        .dwtag  DW_TAG_variable, DW_AT_name("pxNewQueue")
     452                            .dwattr $C$DW$49, DW_AT_TI_symbol_name("pxNewQueue")
     453                            .dwattr $C$DW$49, DW_AT_type(*$C$DW$T$70)
     454                            .dwattr $C$DW$49, DW_AT_location[DW_OP_breg13 12]
     455                    $C$DW$50        .dwtag  DW_TAG_variable, DW_AT_name("xQueueSizeInBytes")
     456                            .dwattr $C$DW$50, DW_AT_TI_symbol_name("xQueueSizeInBytes")
     457                            .dwattr $C$DW$50, DW_AT_type(*$C$DW$T$82)
     458                            .dwattr $C$DW$50, DW_AT_location[DW_OP_breg13 16]
     459                    $C$DW$51        .dwtag  DW_TAG_variable, DW_AT_name("xReturn")
     460                            .dwattr $C$DW$51, DW_AT_TI_symbol_name("xReturn")
     461                            .dwattr $C$DW$51, DW_AT_type(*$C$DW$T$72)
     462                            .dwattr $C$DW$51, DW_AT_location[DW_OP_breg13 20]
     463 00000092 2008F88D          STRB      A3, [SP, #8]          ; [DPU_3_PIPE] |309|  ; [KEEP 32-BIT INS]
     464 00000096 9101              STR       A2, [SP, #4]          ; [DPU_3_PIPE] |309|  ; [ORIG 16-BIT INS]
     465 00000098 9000              STR       A1, [SP, #0]          ; [DPU_3_PIPE] |309|  ; [ORIG 16-BIT INS]
     466                            .dwpsn  file "../Source/queue.c",line 312,column 23,is_stmt,isa 1
     467 0000009a 2000              MOVS      A1, #0                ; [DPU_3_PIPE] |312|  ; [ORIG 16-BIT INS]
     468 0000009c 9005              STR       A1, [SP, #20]         ; [DPU_3_PIPE] |312|  ; [ORIG 16-BIT INS]
     469                            .dwpsn  file "../Source/queue.c",line 316,column 2,is_stmt,isa 1
     470                            .dwpsn  file "../Source/queue.c",line 319,column 2,is_stmt,isa 1
     471 0000009e 9800              LDR       A1, [SP, #0]          ; [DPU_3_PIPE] |319|  ; [ORIG 16-BIT INS]
     472 000000a0 B318              CBZ       A1, ||$C$L5||         ; []  ; [ORIG 16-BIT INS]
     473                            ; BRANCHCC OCCURS {||$C$L5||}    ; [] |319| 
     474                    ;* --------------------------------------------------------------------------*
     475                            .dwpsn  file "../Source/queue.c",line 321,column 3,is_stmt,isa 1
     476 000000a2 204C              MOVS      A1, #76               ; [DPU_3_PIPE] |321|  ; [ORIG 16-BIT INS]
     477                    $C$DW$52        .dwtag  DW_TAG_TI_branch
     478                            .dwattr $C$DW$52, DW_AT_low_pc(0x00)
     479                            .dwattr $C$DW$52, DW_AT_name("pvPortMalloc")
     480                            .dwattr $C$DW$52, DW_AT_TI_call
     481 000000a4 FFFEF7FF!         BL        pvPortMalloc          ; [DPU_3_PIPE] |321|  ; [KEEP 32-BIT INS]
     482                            ; CALL OCCURS {pvPortMalloc }    ; [] |321| 
     483 000000a8 9003              STR       A1, [SP, #12]         ; [DPU_3_PIPE] |321|  ; [ORIG 16-BIT INS]
     484                            .dwpsn  file "../Source/queue.c",line 322,column 3,is_stmt,isa 1
     485 000000aa 9803              LDR       A1, [SP, #12]         ; [DPU_3_PIPE] |322|  ; [ORIG 16-BIT INS]
     486 000000ac B1E8              CBZ       A1, ||$C$L5||         ; []  ; [ORIG 16-BIT INS]
     487                            ; BRANCHCC OCCURS {||$C$L5||}    ; [] |322| 
     488                    ;* --------------------------------------------------------------------------*
     489                            .dwpsn  file "../Source/queue.c",line 326,column 4,is_stmt,isa 1
     490 000000ae 9900              LDR       A2, [SP, #0]          ; [DPU_3_PIPE] |326|  ; [ORIG 16-BIT INS]
     491 000000b0 9801              LDR       A1, [SP, #4]          ; [DPU_3_PIPE] |326|  ; [ORIG 16-BIT INS]
     492 000000b2 4348              MULS      A1, A1, A2            ; [DPU_3_PIPE] |326|  ; [ORIG 16-BIT INS]
     493 000000b4 1C40              ADDS      A1, A1, #1            ; [DPU_3_PIPE] |326|  ; [ORIG 16-BIT INS]
     494 000000b6 9004              STR       A1, [SP, #16]         ; [DPU_3_PIPE] |326|  ; [ORIG 16-BIT INS]
     495                            .dwpsn  file "../Source/queue.c",line 328,column 4,is_stmt,isa 1
TI ARM Assembler PC v5.1.7 Tue Sep 16 08:38:40 2014

Tools Copyright (c) 1996-2014 Texas Instruments Incorporated
queue.asm                                                            PAGE   10

     496 000000b8 9804              LDR       A1, [SP, #16]         ; [DPU_3_PIPE] |328|  ; [ORIG 16-BIT INS]
     497                    $C$DW$53        .dwtag  DW_TAG_TI_branch
     498                            .dwattr $C$DW$53, DW_AT_low_pc(0x00)
     499                            .dwattr $C$DW$53, DW_AT_name("pvPortMalloc")
     500                            .dwattr $C$DW$53, DW_AT_TI_call
     501 000000ba FFFEF7FF!         BL        pvPortMalloc          ; [DPU_3_PIPE] |328|  ; [KEEP 32-BIT INS]
     502                            ; CALL OCCURS {pvPortMalloc }    ; [] |328| 
     503 000000be 9903              LDR       A2, [SP, #12]         ; [DPU_3_PIPE] |328|  ; [ORIG 16-BIT INS]
     504 000000c0 6008              STR       A1, [A2, #0]          ; [DPU_3_PIPE] |328|  ; [ORIG 16-BIT INS]
     505                            .dwpsn  file "../Source/queue.c",line 329,column 4,is_stmt,isa 1
     506 000000c2 9803              LDR       A1, [SP, #12]         ; [DPU_3_PIPE] |329|  ; [ORIG 16-BIT INS]
     507 000000c4 6800              LDR       A1, [A1, #0]          ; [DPU_3_PIPE] |329|  ; [ORIG 16-BIT INS]
     508 000000c6 B160              CBZ       A1, ||$C$L4||         ; []  ; [ORIG 16-BIT INS]
     509                            ; BRANCHCC OCCURS {||$C$L4||}    ; [] |329| 
     510                    ;* --------------------------------------------------------------------------*
     511                            .dwpsn  file "../Source/queue.c",line 333,column 5,is_stmt,isa 1
     512 000000c8 9800              LDR       A1, [SP, #0]          ; [DPU_3_PIPE] |333|  ; [ORIG 16-BIT INS]
     513 000000ca 9903              LDR       A2, [SP, #12]         ; [DPU_3_PIPE] |333|  ; [ORIG 16-BIT INS]
     514 000000cc 63C8              STR       A1, [A2, #60]         ; [DPU_3_PIPE] |333|  ; [ORIG 16-BIT INS]
     515                            .dwpsn  file "../Source/queue.c",line 334,column 5,is_stmt,isa 1
     516 000000ce 9801              LDR       A1, [SP, #4]          ; [DPU_3_PIPE] |334|  ; [ORIG 16-BIT INS]
     517 000000d0 9903              LDR       A2, [SP, #12]         ; [DPU_3_PIPE] |334|  ; [ORIG 16-BIT INS]
     518 000000d2 6408              STR       A1, [A2, #64]         ; [DPU_3_PIPE] |334|  ; [ORIG 16-BIT INS]
     519                            .dwpsn  file "../Source/queue.c",line 335,column 5,is_stmt,isa 1
     520 000000d4 9803              LDR       A1, [SP, #12]         ; [DPU_3_PIPE] |335|  ; [ORIG 16-BIT INS]
     521 000000d6 2101              MOVS      A2, #1                ; [DPU_3_PIPE] |335|  ; [ORIG 16-BIT INS]
     522                    $C$DW$54        .dwtag  DW_TAG_TI_branch
     523                            .dwattr $C$DW$54, DW_AT_low_pc(0x00)
     524                            .dwattr $C$DW$54, DW_AT_name("xQueueGenericReset")
     525                            .dwattr $C$DW$54, DW_AT_TI_call
     526 000000d8 FF92F7FF          BL        xQueueGenericReset    ; [DPU_3_PIPE] |335|  ; [KEEP 32-BIT INS]
     527                            ; CALL OCCURS {xQueueGenericReset }  ; [] |335| 
     528                            .dwpsn  file "../Source/queue.c",line 350,column 5,is_stmt,isa 1
     529 000000dc 9803              LDR       A1, [SP, #12]         ; [DPU_3_PIPE] |350|  ; [ORIG 16-BIT INS]
     530 000000de 9005              STR       A1, [SP, #20]         ; [DPU_3_PIPE] |350|  ; [ORIG 16-BIT INS]
     531                            .dwpsn  file "../Source/queue.c",line 351,column 4,is_stmt,isa 1
     532 000000e0 E003              B         ||$C$L5||             ; [DPU_3_PIPE] |351|  ; [ORIG 16-BIT INS]
     533                            ; BRANCH OCCURS {||$C$L5||}      ; [] |351| 
     534                    ;* --------------------------------------------------------------------------*
     535 000000e2           ||$C$L4||:    
     536                            .dwpsn  file "../Source/queue.c",line 355,column 5,is_stmt,isa 1
     537 000000e2 9803              LDR       A1, [SP, #12]         ; [DPU_3_PIPE] |355|  ; [ORIG 16-BIT INS]
     538                    $C$DW$55        .dwtag  DW_TAG_TI_branch
     539                            .dwattr $C$DW$55, DW_AT_low_pc(0x00)
     540                            .dwattr $C$DW$55, DW_AT_name("vPortFree")
     541                            .dwattr $C$DW$55, DW_AT_TI_call
     542 000000e4 FFFEF7FF!         BL        vPortFree             ; [DPU_3_PIPE] |355|  ; [KEEP 32-BIT INS]
     543                            ; CALL OCCURS {vPortFree }       ; [] |355| 
     544                            .dwpsn  file "../Source/queue.c",line 357,column 3,is_stmt,isa 1
     545 000000e8 E7FF              B         ||$C$L5||             ; [DPU_3_PIPE] |357|  ; [ORIG 16-BIT INS]
     546                            ; BRANCH OCCURS {||$C$L5||}      ; [] |357| 
     547                    ;* --------------------------------------------------------------------------*
     548                    ;* --------------------------------------------------------------------------*
     549 000000ea           ||$C$L5||:    
     550                            .dwpsn  file "../Source/queue.c",line 370,column 2,is_stmt,isa 1
TI ARM Assembler PC v5.1.7 Tue Sep 16 08:38:40 2014

Tools Copyright (c) 1996-2014 Texas Instruments Incorporated
queue.asm                                                            PAGE   11

     551 000000ea 9805              LDR       A1, [SP, #20]         ; [DPU_3_PIPE] |370|  ; [ORIG 16-BIT INS]
     552                            .dwpsn  file "../Source/queue.c",line 371,column 1,is_stmt,isa 1
     553 000000ec B007              ADD       SP, SP, #28           ; [DPU_3_PIPE]  ; [ORIG 16-BIT INS]
     554                            .dwcfi  cfa_offset, 4
     555                    $C$DW$56        .dwtag  DW_TAG_TI_branch
     556                            .dwattr $C$DW$56, DW_AT_low_pc(0x00)
     557                            .dwattr $C$DW$56, DW_AT_TI_return
     558 000000ee BD00              POP       {PC}                  ; [DPU_3_PIPE]  ; [ORIG 16-BIT INS]
     559                            .dwcfi  cfa_offset, 0
     560                            ; BRANCH OCCURS                  ; [] 
     561                            .dwattr $C$DW$42, DW_AT_TI_end_file("../Source/queue.c")
     562                            .dwattr $C$DW$42, DW_AT_TI_end_line(0x173)
     563                            .dwattr $C$DW$42, DW_AT_TI_end_column(0x01)
     564                            .dwendentry
     565                            .dwendtag $C$DW$42
     566                    
     567 000000f0                   .sect   ".text"
     568                            .clink
     569                            .thumbfunc xQueueGenericSend
     570 000000f0                   .thumb
     571                            .global xQueueGenericSend
     572                    
     573                    $C$DW$57        .dwtag  DW_TAG_subprogram, DW_AT_name("xQueueGenericSend")
     574                            .dwattr $C$DW$57, DW_AT_low_pc(xQueueGenericSend)
     575                            .dwattr $C$DW$57, DW_AT_high_pc(0x00)
     576                            .dwattr $C$DW$57, DW_AT_TI_symbol_name("xQueueGenericSend")
     577                            .dwattr $C$DW$57, DW_AT_external
     578                            .dwattr $C$DW$57, DW_AT_type(*$C$DW$T$30)
     579                            .dwattr $C$DW$57, DW_AT_TI_begin_file("../Source/queue.c")
     580                            .dwattr $C$DW$57, DW_AT_TI_begin_line(0x251)
     581                            .dwattr $C$DW$57, DW_AT_TI_begin_column(0x0c)
     582                            .dwattr $C$DW$57, DW_AT_decl_file("../Source/queue.c")
     583                            .dwattr $C$DW$57, DW_AT_decl_line(0x251)
     584                            .dwattr $C$DW$57, DW_AT_decl_column(0x0c)
     585                            .dwattr $C$DW$57, DW_AT_TI_max_frame_size(0x28)
     586                            .dwpsn  file "../Source/queue.c",line 594,column 1,is_stmt,address xQueueGenericSend,isa 1
     587                    
     588                            .dwfde $C$DW$CIE, xQueueGenericSend
     589                    $C$DW$58        .dwtag  DW_TAG_formal_parameter, DW_AT_name("xQueue")
     590                            .dwattr $C$DW$58, DW_AT_TI_symbol_name("xQueue")
     591                            .dwattr $C$DW$58, DW_AT_type(*$C$DW$T$72)
     592                            .dwattr $C$DW$58, DW_AT_location[DW_OP_reg0]
     593                    $C$DW$59        .dwtag  DW_TAG_formal_parameter, DW_AT_name("pvItemToQueue")
     594                            .dwattr $C$DW$59, DW_AT_TI_symbol_name("pvItemToQueue")
     595                            .dwattr $C$DW$59, DW_AT_type(*$C$DW$T$87)
     596                            .dwattr $C$DW$59, DW_AT_location[DW_OP_reg1]
     597                    $C$DW$60        .dwtag  DW_TAG_formal_parameter, DW_AT_name("xTicksToWait")
     598                            .dwattr $C$DW$60, DW_AT_TI_symbol_name("xTicksToWait")
     599                            .dwattr $C$DW$60, DW_AT_type(*$C$DW$T$38)
     600                            .dwattr $C$DW$60, DW_AT_location[DW_OP_reg2]
     601                    $C$DW$61        .dwtag  DW_TAG_formal_parameter, DW_AT_name("xCopyPosition")
     602                            .dwattr $C$DW$61, DW_AT_TI_symbol_name("xCopyPosition")
     603                            .dwattr $C$DW$61, DW_AT_type(*$C$DW$T$106)
     604                            .dwattr $C$DW$61, DW_AT_location[DW_OP_reg3]
     605                    
TI ARM Assembler PC v5.1.7 Tue Sep 16 08:38:40 2014

Tools Copyright (c) 1996-2014 Texas Instruments Incorporated
queue.asm                                                            PAGE   12

     606                    ;*****************************************************************************
     607                    ;* FUNCTION NAME: xQueueGenericSend                                          *
     608                    ;*                                                                           *
     609                    ;*   Regs Modified     : A1,A2,A3,A4,V9,SP,LR,SR,D0,D0_hi,D1,D1_hi,D2,D2_hi, *
     610                    ;*                           D3,D3_hi,D4,D4_hi,D5,D5_hi,D6,D6_hi,D7,D7_hi,   *
     611                    ;*                           FPEXC,FPSCR                                     *
     612                    ;*   Regs Used         : A1,A2,A3,A4,V9,SP,LR,SR,D0,D0_hi,D1,D1_hi,D2,D2_hi, *
     613                    ;*                           D3,D3_hi,D4,D4_hi,D5,D5_hi,D6,D6_hi,D7,D7_hi,   *
     614                    ;*                           FPEXC,FPSCR                                     *
     615                    ;*   Local Frame Size  : 0 Args + 36 Auto + 4 Save = 40 byte                 *
     616                    ;*****************************************************************************
     617 000000f0           xQueueGenericSend:
     618                    ;* --------------------------------------------------------------------------*
     619                            .dwcfi  cfa_offset, 0
     620 000000f0 B500              PUSH      {LR}                  ; [DPU_3_PIPE]  ; [ORIG 16-BIT INS]
     621                            .dwcfi  cfa_offset, 4
     622                            .dwcfi  save_reg_to_mem, 14, -4
     623 000000f2 0D24F1AD          SUB       SP, SP, #36           ; [DPU_3_PIPE]  ; [KEEP 32-BIT INS]
     624                            .dwcfi  cfa_offset, 40
     625                    $C$DW$62        .dwtag  DW_TAG_variable, DW_AT_name("xQueue")
     626                            .dwattr $C$DW$62, DW_AT_TI_symbol_name("xQueue")
     627                            .dwattr $C$DW$62, DW_AT_type(*$C$DW$T$72)
     628                            .dwattr $C$DW$62, DW_AT_location[DW_OP_breg13 0]
     629                    $C$DW$63        .dwtag  DW_TAG_variable, DW_AT_name("pvItemToQueue")
     630                            .dwattr $C$DW$63, DW_AT_TI_symbol_name("pvItemToQueue")
     631                            .dwattr $C$DW$63, DW_AT_type(*$C$DW$T$87)
     632                            .dwattr $C$DW$63, DW_AT_location[DW_OP_breg13 4]
     633                    $C$DW$64        .dwtag  DW_TAG_variable, DW_AT_name("xTicksToWait")
     634                            .dwattr $C$DW$64, DW_AT_TI_symbol_name("xTicksToWait")
     635                            .dwattr $C$DW$64, DW_AT_type(*$C$DW$T$38)
     636                            .dwattr $C$DW$64, DW_AT_location[DW_OP_breg13 8]
     637                    $C$DW$65        .dwtag  DW_TAG_variable, DW_AT_name("xCopyPosition")
     638                            .dwattr $C$DW$65, DW_AT_TI_symbol_name("xCopyPosition")
     639                            .dwattr $C$DW$65, DW_AT_type(*$C$DW$T$106)
     640                            .dwattr $C$DW$65, DW_AT_location[DW_OP_breg13 12]
     641                    $C$DW$66        .dwtag  DW_TAG_variable, DW_AT_name("xEntryTimeSet")
     642                            .dwattr $C$DW$66, DW_AT_TI_symbol_name("xEntryTimeSet")
     643                            .dwattr $C$DW$66, DW_AT_type(*$C$DW$T$30)
     644                            .dwattr $C$DW$66, DW_AT_location[DW_OP_breg13 16]
     645                    $C$DW$67        .dwtag  DW_TAG_variable, DW_AT_name("xTimeOut")
     646                            .dwattr $C$DW$67, DW_AT_TI_symbol_name("xTimeOut")
     647                            .dwattr $C$DW$67, DW_AT_type(*$C$DW$T$100)
     648                            .dwattr $C$DW$67, DW_AT_location[DW_OP_breg13 24]
     649                    $C$DW$68        .dwtag  DW_TAG_variable, DW_AT_name("pxQueue")
     650                            .dwattr $C$DW$68, DW_AT_TI_symbol_name("pxQueue")
     651                            .dwattr $C$DW$68, DW_AT_type(*$C$DW$T$71)
     652                            .dwattr $C$DW$68, DW_AT_location[DW_OP_breg13 32]
     653 000000f6 9303              STR       A4, [SP, #12]         ; [DPU_3_PIPE] |594|  ; [ORIG 16-BIT INS]
     654 000000f8 9202              STR       A3, [SP, #8]          ; [DPU_3_PIPE] |594|  ; [ORIG 16-BIT INS]
     655 000000fa 9101              STR       A2, [SP, #4]          ; [DPU_3_PIPE] |594|  ; [ORIG 16-BIT INS]
     656 000000fc 9000              STR       A1, [SP, #0]          ; [DPU_3_PIPE] |594|  ; [ORIG 16-BIT INS]
     657                            .dwpsn  file "../Source/queue.c",line 595,column 26,is_stmt,isa 1
     658 000000fe 2000              MOVS      A1, #0                ; [DPU_3_PIPE] |595|  ; [ORIG 16-BIT INS]
     659 00000100 9004              STR       A1, [SP, #16]         ; [DPU_3_PIPE] |595|  ; [ORIG 16-BIT INS]
     660                            .dwpsn  file "../Source/queue.c",line 597,column 25,is_stmt,isa 1
TI ARM Assembler PC v5.1.7 Tue Sep 16 08:38:40 2014

Tools Copyright (c) 1996-2014 Texas Instruments Incorporated
queue.asm                                                            PAGE   13

     661 00000102 9800              LDR       A1, [SP, #0]          ; [DPU_3_PIPE] |597|  ; [ORIG 16-BIT INS]
     662 00000104 9008              STR       A1, [SP, #32]         ; [DPU_3_PIPE] |597|  ; [ORIG 16-BIT INS]
     663                    ;* --------------------------------------------------------------------------*
     664                    ;*   BEGIN LOOP ||$C$L6||
     665                    ;*
     666                    ;*   Loop source line                : 612
     667                    ;*   Loop closing brace source line  : 776
     668                    ;*   Known Minimum Trip Count        : 1
     669                    ;*   Known Maximum Trip Count        : 4294967295
     670                    ;*   Known Max Trip Count Factor     : 1
     671                    ;* --------------------------------------------------------------------------*
     672 00000106           ||$C$L6||:    
     673                            .dwpsn  file "../Source/queue.c",line 614,column 3,is_stmt,isa 1
     674                    $C$DW$69        .dwtag  DW_TAG_TI_branch
     675                            .dwattr $C$DW$69, DW_AT_low_pc(0x00)
     676                            .dwattr $C$DW$69, DW_AT_name("vPortEnterCritical")
     677                            .dwattr $C$DW$69, DW_AT_TI_call
     678 00000106 FFFEF7FF!         BL        vPortEnterCritical    ; [DPU_3_PIPE] |614|  ; [KEEP 32-BIT INS]
     679                            ; CALL OCCURS {vPortEnterCritical }  ; [] |614| 
     680                            .dwpsn  file "../Source/queue.c",line 620,column 4,is_stmt,isa 1
     681 0000010a 9808              LDR       A1, [SP, #32]         ; [DPU_3_PIPE] |620|  ; [ORIG 16-BIT INS]
     682 0000010c 9908              LDR       A2, [SP, #32]         ; [DPU_3_PIPE] |620|  ; [ORIG 16-BIT INS]
     683 0000010e 6BC0              LDR       A1, [A1, #60]         ; [DPU_3_PIPE] |620|  ; [ORIG 16-BIT INS]
     684 00000110 6B89              LDR       A2, [A2, #56]         ; [DPU_3_PIPE] |620|  ; [ORIG 16-BIT INS]
     685 00000112 4288              CMP       A1, A2                ; [DPU_3_PIPE] |620|  ; [ORIG 16-BIT INS]
     686 00000114 D802              BHI       ||$C$L7||             ; [DPU_3_PIPE] |620|  ; [ORIG 16-BIT INS]
     687                            ; BRANCHCC OCCURS {||$C$L7||}    ; [] |620| 
     688                    ;* --------------------------------------------------------------------------*
     689 00000116 9803              LDR       A1, [SP, #12]         ; [DPU_3_PIPE] |620|  ; [ORIG 16-BIT INS]
     690 00000118 2802              CMP       A1, #2                ; [DPU_3_PIPE] |620|  ; [ORIG 16-BIT INS]
     691 0000011a D114              BNE       ||$C$L10||            ; [DPU_3_PIPE] |620|  ; [ORIG 16-BIT INS]
     692                            ; BRANCHCC OCCURS {||$C$L10||}   ; [] |620| 
     693                    ;* --------------------------------------------------------------------------*
     694 0000011c           ||$C$L7||:    
     695                            .dwpsn  file "../Source/queue.c",line 623,column 5,is_stmt,isa 1
     696 0000011c 9808              LDR       A1, [SP, #32]         ; [DPU_3_PIPE] |623|  ; [ORIG 16-BIT INS]
     697 0000011e 9901              LDR       A2, [SP, #4]          ; [DPU_3_PIPE] |623|  ; [ORIG 16-BIT INS]
     698 00000120 9A03              LDR       A3, [SP, #12]         ; [DPU_3_PIPE] |623|  ; [ORIG 16-BIT INS]
     699                    $C$DW$70        .dwtag  DW_TAG_TI_branch
     700                            .dwattr $C$DW$70, DW_AT_low_pc(0x00)
     701                            .dwattr $C$DW$70, DW_AT_name("prvCopyDataToQueue")
     702                            .dwattr $C$DW$70, DW_AT_TI_call
     703 00000122 F9B6F000          BL        prvCopyDataToQueue    ; [DPU_3_PIPE] |623|  ; [KEEP 32-BIT INS]
     704                            ; CALL OCCURS {prvCopyDataToQueue }  ; [] |623| 
     705                            .dwpsn  file "../Source/queue.c",line 670,column 6,is_stmt,isa 1
     706 00000126 9808              LDR       A1, [SP, #32]         ; [DPU_3_PIPE] |670|  ; [ORIG 16-BIT INS]
     707 00000128 6A41              LDR       A2, [A1, #36]         ; [DPU_3_PIPE] |670|  ; [ORIG 16-BIT INS]
     708 0000012a 2000              MOVS      A1, #0                ; [DPU_3_PIPE] |670|  ; [ORIG 16-BIT INS]
     709 0000012c B901              CBNZ      A2, ||$C$L8||         ; []  ; [ORIG 16-BIT INS]
     710                            ; BRANCHCC OCCURS {||$C$L8||}    ; [] |670| 
     711                    ;* --------------------------------------------------------------------------*
     712 0000012e 2001              MOVS      A1, #1                ; [DPU_3_PIPE] |670|  ; [ORIG 16-BIT INS]
     713                    ;* --------------------------------------------------------------------------*
     714 00000130           ||$C$L8||:    
     715 00000130 B928              CBNZ      A1, ||$C$L9||         ; []  ; [ORIG 16-BIT INS]
TI ARM Assembler PC v5.1.7 Tue Sep 16 08:38:40 2014

Tools Copyright (c) 1996-2014 Texas Instruments Incorporated
queue.asm                                                            PAGE   14

     716                            ; BRANCHCC OCCURS {||$C$L9||}    ; [] |670| 
     717                    ;* --------------------------------------------------------------------------*
     718                            .dwpsn  file "../Source/queue.c",line 672,column 7,is_stmt,isa 1
     719 00000132 9808              LDR       A1, [SP, #32]         ; [DPU_3_PIPE] |672|  ; [ORIG 16-BIT INS]
     720 00000134 3024              ADDS      A1, A1, #36           ; [DPU_3_PIPE] |672|  ; [ORIG 16-BIT INS]
     721                    $C$DW$71        .dwtag  DW_TAG_TI_branch
     722                            .dwattr $C$DW$71, DW_AT_low_pc(0x00)
     723                            .dwattr $C$DW$71, DW_AT_name("xTaskRemoveFromEventList")
     724                            .dwattr $C$DW$71, DW_AT_TI_call
     725 00000136 FFFEF7FF!         BL        xTaskRemoveFromEventList ; [DPU_3_PIPE] |672|  ; [KEEP 32-BIT INS]
     726                            ; CALL OCCURS {xTaskRemoveFromEventList }  ; [] |672| 
     727 0000013a 2801              CMP       A1, #1                ; [DPU_3_PIPE] |672|  ; [ORIG 16-BIT INS]
     728 0000013c D0FF              BEQ       ||$C$L9||             ; [DPU_3_PIPE] |672|  ; [ORIG 16-BIT INS]
     729                            ; BRANCHCC OCCURS {||$C$L9||}    ; [] |672| 
     730                    ;* --------------------------------------------------------------------------*
     731                            .dwpsn  file "../Source/queue.c",line 679,column 7,is_stmt,isa 1
     732                            .dwpsn  file "../Source/queue.c",line 684,column 6,is_stmt,isa 1
     733                    ;* --------------------------------------------------------------------------*
     734 0000013e           ||$C$L9||:    
     735                            .dwpsn  file "../Source/queue.c",line 692,column 5,is_stmt,isa 1
     736                    $C$DW$72        .dwtag  DW_TAG_TI_branch
     737                            .dwattr $C$DW$72, DW_AT_low_pc(0x00)
     738                            .dwattr $C$DW$72, DW_AT_name("vPortExitCritical")
     739                            .dwattr $C$DW$72, DW_AT_TI_call
     740 0000013e FFFEF7FF!         BL        vPortExitCritical     ; [DPU_3_PIPE] |692|  ; [KEEP 32-BIT INS]
     741                            ; CALL OCCURS {vPortExitCritical }  ; [] |692| 
     742                            .dwpsn  file "../Source/queue.c",line 696,column 5,is_stmt,isa 1
     743 00000142 2001              MOVS      A1, #1                ; [DPU_3_PIPE] |696|  ; [ORIG 16-BIT INS]
     744 00000144 E049              B         ||$C$L17||            ; [DPU_3_PIPE] |696|  ; [ORIG 16-BIT INS]
     745                            ; BRANCH OCCURS {||$C$L17||}     ; [] |696| 
     746                    ;* --------------------------------------------------------------------------*
     747                    ;* --------------------------------------------------------------------------*
     748 00000146           ||$C$L10||:    
     749                            .dwpsn  file "../Source/queue.c",line 700,column 5,is_stmt,isa 1
     750 00000146 9802              LDR       A1, [SP, #8]          ; [DPU_3_PIPE] |700|  ; [ORIG 16-BIT INS]
     751 00000148 B918              CBNZ      A1, ||$C$L11||        ; []  ; [ORIG 16-BIT INS]
     752                            ; BRANCHCC OCCURS {||$C$L11||}   ; [] |700| 
     753                    ;* --------------------------------------------------------------------------*
     754                            .dwpsn  file "../Source/queue.c",line 704,column 6,is_stmt,isa 1
     755                    $C$DW$73        .dwtag  DW_TAG_TI_branch
     756                            .dwattr $C$DW$73, DW_AT_low_pc(0x00)
     757                            .dwattr $C$DW$73, DW_AT_name("vPortExitCritical")
     758                            .dwattr $C$DW$73, DW_AT_TI_call
     759 0000014a FFFEF7FF!         BL        vPortExitCritical     ; [DPU_3_PIPE] |704|  ; [KEEP 32-BIT INS]
     760                            ; CALL OCCURS {vPortExitCritical }  ; [] |704| 
     761                            .dwpsn  file "../Source/queue.c",line 709,column 6,is_stmt,isa 1
     762 0000014e 2000              MOVS      A1, #0                ; [DPU_3_PIPE] |709|  ; [ORIG 16-BIT INS]
     763 00000150 E043              B         ||$C$L17||            ; [DPU_3_PIPE] |709|  ; [ORIG 16-BIT INS]
     764                            ; BRANCH OCCURS {||$C$L17||}     ; [] |709| 
     765                    ;* --------------------------------------------------------------------------*
     766                    ;* --------------------------------------------------------------------------*
     767 00000152           ||$C$L11||:    
     768                            .dwpsn  file "../Source/queue.c",line 711,column 10,is_stmt,isa 1
     769 00000152 9804              LDR       A1, [SP, #16]         ; [DPU_3_PIPE] |711|  ; [ORIG 16-BIT INS]
     770 00000154 B920              CBNZ      A1, ||$C$L12||        ; []  ; [ORIG 16-BIT INS]
TI ARM Assembler PC v5.1.7 Tue Sep 16 08:38:40 2014

Tools Copyright (c) 1996-2014 Texas Instruments Incorporated
queue.asm                                                            PAGE   15

     771                            ; BRANCHCC OCCURS {||$C$L12||}   ; [] |711| 
     772                    ;* --------------------------------------------------------------------------*
     773                            .dwpsn  file "../Source/queue.c",line 715,column 6,is_stmt,isa 1
     774 00000156 A806              ADD       A1, SP, #24           ; [DPU_3_PIPE] |715|  ; [ORIG 16-BIT INS]
     775                    $C$DW$74        .dwtag  DW_TAG_TI_branch
     776                            .dwattr $C$DW$74, DW_AT_low_pc(0x00)
     777                            .dwattr $C$DW$74, DW_AT_name("vTaskSetTimeOutState")
     778                            .dwattr $C$DW$74, DW_AT_TI_call
     779 00000158 FFFEF7FF!         BL        vTaskSetTimeOutState  ; [DPU_3_PIPE] |715|  ; [KEEP 32-BIT INS]
     780                            ; CALL OCCURS {vTaskSetTimeOutState }  ; [] |715| 
     781                            .dwpsn  file "../Source/queue.c",line 716,column 6,is_stmt,isa 1
     782 0000015c 2001              MOVS      A1, #1                ; [DPU_3_PIPE] |716|  ; [ORIG 16-BIT INS]
     783 0000015e 9004              STR       A1, [SP, #16]         ; [DPU_3_PIPE] |716|  ; [ORIG 16-BIT INS]
     784                            .dwpsn  file "../Source/queue.c",line 717,column 5,is_stmt,isa 1
     785                    ;* --------------------------------------------------------------------------*
     786 00000160           ||$C$L12||:    
     787                            .dwpsn  file "../Source/queue.c",line 725,column 3,is_stmt,isa 1
     788                    $C$DW$75        .dwtag  DW_TAG_TI_branch
     789                            .dwattr $C$DW$75, DW_AT_low_pc(0x00)
     790                            .dwattr $C$DW$75, DW_AT_name("vPortExitCritical")
     791                            .dwattr $C$DW$75, DW_AT_TI_call
     792 00000160 FFFEF7FF!         BL        vPortExitCritical     ; [DPU_3_PIPE] |725|  ; [KEEP 32-BIT INS]
     793                            ; CALL OCCURS {vPortExitCritical }  ; [] |725| 
     794                            .dwpsn  file "../Source/queue.c",line 730,column 3,is_stmt,isa 1
     795                    $C$DW$76        .dwtag  DW_TAG_TI_branch
     796                            .dwattr $C$DW$76, DW_AT_low_pc(0x00)
     797                            .dwattr $C$DW$76, DW_AT_name("vTaskSuspendAll")
     798                            .dwattr $C$DW$76, DW_AT_TI_call
     799 00000164 FFFEF7FF!         BL        vTaskSuspendAll       ; [DPU_3_PIPE] |730|  ; [KEEP 32-BIT INS]
     800                            ; CALL OCCURS {vTaskSuspendAll }  ; [] |730| 
     801                            .dwpsn  file "../Source/queue.c",line 731,column 3,is_stmt,isa 1
     802                    $C$DW$77        .dwtag  DW_TAG_TI_branch
     803                            .dwattr $C$DW$77, DW_AT_low_pc(0x00)
     804                            .dwattr $C$DW$77, DW_AT_name("vPortEnterCritical")
     805                            .dwattr $C$DW$77, DW_AT_TI_call
     806 00000168 FFFEF7FF!         BL        vPortEnterCritical    ; [DPU_3_PIPE] |731|  ; [KEEP 32-BIT INS]
     807                            ; CALL OCCURS {vPortEnterCritical }  ; [] |731| 
     808 0000016c 9808              LDR       A1, [SP, #32]         ; [DPU_3_PIPE] |731|  ; [ORIG 16-BIT INS]
     809 0000016e 6C40              LDR       A1, [A1, #68]         ; [DPU_3_PIPE] |731|  ; [ORIG 16-BIT INS]
     810 00000170 3FFFF1B0          CMP       A1, #-1               ; [DPU_3_PIPE] |731|  ; [KEEP 32-BIT INS]
     811 00000174 D102              BNE       ||$C$L13||            ; [DPU_3_PIPE] |731|  ; [ORIG 16-BIT INS]
     812                            ; BRANCHCC OCCURS {||$C$L13||}   ; [] |731| 
     813                    ;* --------------------------------------------------------------------------*
     814 00000176 9808              LDR       A1, [SP, #32]         ; [DPU_3_PIPE] |731|  ; [ORIG 16-BIT INS]
     815 00000178 2100              MOVS      A2, #0                ; [DPU_3_PIPE] |731|  ; [ORIG 16-BIT INS]
     816 0000017a 6441              STR       A2, [A1, #68]         ; [DPU_3_PIPE] |731|  ; [ORIG 16-BIT INS]
     817                    ;* --------------------------------------------------------------------------*
     818 0000017c           ||$C$L13||:    
     819 0000017c 9808              LDR       A1, [SP, #32]         ; [DPU_3_PIPE] |731|  ; [ORIG 16-BIT INS]
     820 0000017e 6C80              LDR       A1, [A1, #72]         ; [DPU_3_PIPE] |731|  ; [ORIG 16-BIT INS]
     821 00000180 3FFFF1B0          CMP       A1, #-1               ; [DPU_3_PIPE] |731|  ; [KEEP 32-BIT INS]
     822 00000184 D102              BNE       ||$C$L14||            ; [DPU_3_PIPE] |731|  ; [ORIG 16-BIT INS]
     823                            ; BRANCHCC OCCURS {||$C$L14||}   ; [] |731| 
     824                    ;* --------------------------------------------------------------------------*
     825 00000186 9808              LDR       A1, [SP, #32]         ; [DPU_3_PIPE] |731|  ; [ORIG 16-BIT INS]
TI ARM Assembler PC v5.1.7 Tue Sep 16 08:38:40 2014

Tools Copyright (c) 1996-2014 Texas Instruments Incorporated
queue.asm                                                            PAGE   16

     826 00000188 2100              MOVS      A2, #0                ; [DPU_3_PIPE] |731|  ; [ORIG 16-BIT INS]
     827 0000018a 6481              STR       A2, [A1, #72]         ; [DPU_3_PIPE] |731|  ; [ORIG 16-BIT INS]
     828                    ;* --------------------------------------------------------------------------*
     829                    ||$C$L14||:    
     830                    $C$DW$78        .dwtag  DW_TAG_TI_branch
     831                            .dwattr $C$DW$78, DW_AT_low_pc(0x00)
     832                            .dwattr $C$DW$78, DW_AT_name("vPortExitCritical")
     833                            .dwattr $C$DW$78, DW_AT_TI_call
     834 0000018c FFFEF7FF!         BL        vPortExitCritical     ; [DPU_3_PIPE] |731|  ; [KEEP 32-BIT INS]
     835                            ; CALL OCCURS {vPortExitCritical }  ; [] |731| 
     836                            .dwpsn  file "../Source/queue.c",line 734,column 3,is_stmt,isa 1
     837 00000190 A806              ADD       A1, SP, #24           ; [DPU_3_PIPE] |734|  ; [ORIG 16-BIT INS]
     838 00000192 A902              ADD       A2, SP, #8            ; [DPU_3_PIPE] |734|  ; [ORIG 16-BIT INS]
     839                    $C$DW$79        .dwtag  DW_TAG_TI_branch
     840                            .dwattr $C$DW$79, DW_AT_low_pc(0x00)
     841                            .dwattr $C$DW$79, DW_AT_name("xTaskCheckForTimeOut")
     842                            .dwattr $C$DW$79, DW_AT_TI_call
     843 00000194 FFFEF7FF!         BL        xTaskCheckForTimeOut  ; [DPU_3_PIPE] |734|  ; [KEEP 32-BIT INS]
     844                            ; CALL OCCURS {xTaskCheckForTimeOut }  ; [] |734| 
     845 00000198 B9C0              CBNZ      A1, ||$C$L16||        ; []  ; [ORIG 16-BIT INS]
     846                            ; BRANCHCC OCCURS {||$C$L16||}   ; [] |734| 
     847                    ;* --------------------------------------------------------------------------*
     848                            .dwpsn  file "../Source/queue.c",line 736,column 4,is_stmt,isa 1
     849 0000019a 9808              LDR       A1, [SP, #32]         ; [DPU_3_PIPE] |736|  ; [ORIG 16-BIT INS]
     850                    $C$DW$80        .dwtag  DW_TAG_TI_branch
     851                            .dwattr $C$DW$80, DW_AT_low_pc(0x00)
     852                            .dwattr $C$DW$80, DW_AT_name("prvIsQueueFull")
     853                            .dwattr $C$DW$80, DW_AT_TI_call
     854 0000019c FA43F000          BL        prvIsQueueFull        ; [DPU_3_PIPE] |736|  ; [KEEP 32-BIT INS]
     855                            ; CALL OCCURS {prvIsQueueFull }  ; [] |736| 
     856 000001a0 B170              CBZ       A1, ||$C$L15||        ; []  ; [ORIG 16-BIT INS]
     857                            ; BRANCHCC OCCURS {||$C$L15||}   ; [] |736| 
     858                    ;* --------------------------------------------------------------------------*
     859                            .dwpsn  file "../Source/queue.c",line 739,column 5,is_stmt,isa 1
     860 000001a2 9808              LDR       A1, [SP, #32]         ; [DPU_3_PIPE] |739|  ; [ORIG 16-BIT INS]
     861 000001a4 9902              LDR       A2, [SP, #8]          ; [DPU_3_PIPE] |739|  ; [ORIG 16-BIT INS]
     862 000001a6 3010              ADDS      A1, A1, #16           ; [DPU_3_PIPE] |739|  ; [ORIG 16-BIT INS]
     863                    $C$DW$81        .dwtag  DW_TAG_TI_branch
     864                            .dwattr $C$DW$81, DW_AT_low_pc(0x00)
     865                            .dwattr $C$DW$81, DW_AT_name("vTaskPlaceOnEventList")
     866                            .dwattr $C$DW$81, DW_AT_TI_call
     867 000001a8 FFFEF7FF!         BL        vTaskPlaceOnEventList ; [DPU_3_PIPE] |739|  ; [KEEP 32-BIT INS]
     868                            ; CALL OCCURS {vTaskPlaceOnEventList }  ; [] |739| 
     869                            .dwpsn  file "../Source/queue.c",line 746,column 5,is_stmt,isa 1
     870 000001ac 9808              LDR       A1, [SP, #32]         ; [DPU_3_PIPE] |746|  ; [ORIG 16-BIT INS]
     871                    $C$DW$82        .dwtag  DW_TAG_TI_branch
     872                            .dwattr $C$DW$82, DW_AT_low_pc(0x00)
     873                            .dwattr $C$DW$82, DW_AT_name("prvUnlockQueue")
     874                            .dwattr $C$DW$82, DW_AT_TI_call
     875 000001ae F9DBF000          BL        prvUnlockQueue        ; [DPU_3_PIPE] |746|  ; [KEEP 32-BIT INS]
     876                            ; CALL OCCURS {prvUnlockQueue }  ; [] |746| 
     877                            .dwpsn  file "../Source/queue.c",line 753,column 5,is_stmt,isa 1
     878                    $C$DW$83        .dwtag  DW_TAG_TI_branch
     879                            .dwattr $C$DW$83, DW_AT_low_pc(0x00)
     880                            .dwattr $C$DW$83, DW_AT_name("xTaskResumeAll")
TI ARM Assembler PC v5.1.7 Tue Sep 16 08:38:40 2014

Tools Copyright (c) 1996-2014 Texas Instruments Incorporated
queue.asm                                                            PAGE   17

     881                            .dwattr $C$DW$83, DW_AT_TI_call
     882 000001b2 FFFEF7FF!         BL        xTaskResumeAll        ; [DPU_3_PIPE] |753|  ; [KEEP 32-BIT INS]
     883                            ; CALL OCCURS {xTaskResumeAll }  ; [] |753| 
     884 000001b6 2800              CMP       A1, #0                ; [DPU_3_PIPE] |753|  ; [ORIG 16-BIT INS]
     885 000001b8 D1A5              BNE       ||$C$L6||             ; [DPU_3_PIPE] |753|  ; [ORIG 16-BIT INS]
     886                            ; BRANCHCC OCCURS {||$C$L6||}    ; [] |753| 
     887                    ;* --------------------------------------------------------------------------*
     888                            .dwpsn  file "../Source/queue.c",line 755,column 6,is_stmt,isa 1
     889                    $C$DW$84        .dwtag  DW_TAG_TI_branch
     890                            .dwattr $C$DW$84, DW_AT_low_pc(0x00)
     891                            .dwattr $C$DW$84, DW_AT_name("vPortYieldFromISR")
     892                            .dwattr $C$DW$84, DW_AT_TI_call
     893 000001ba FFFEF7FF!         BL        vPortYieldFromISR     ; [DPU_3_PIPE] |755|  ; [KEEP 32-BIT INS]
     894                            ; CALL OCCURS {vPortYieldFromISR }  ; [] |755| 
     895                            .dwpsn  file "../Source/queue.c",line 757,column 4,is_stmt,isa 1
     896 000001be E7A2              B         ||$C$L6||             ; [DPU_3_PIPE] |757|  ; [ORIG 16-BIT INS]
     897                            ; BRANCH OCCURS {||$C$L6||}      ; [] |757| 
     898                    ;* --------------------------------------------------------------------------*
     899 000001c0           ||$C$L15||:    
     900                            .dwpsn  file "../Source/queue.c",line 761,column 5,is_stmt,isa 1
     901 000001c0 9808              LDR       A1, [SP, #32]         ; [DPU_3_PIPE] |761|  ; [ORIG 16-BIT INS]
     902                    $C$DW$85        .dwtag  DW_TAG_TI_branch
     903                            .dwattr $C$DW$85, DW_AT_low_pc(0x00)
     904                            .dwattr $C$DW$85, DW_AT_name("prvUnlockQueue")
     905                            .dwattr $C$DW$85, DW_AT_TI_call
     906 000001c2 F9D1F000          BL        prvUnlockQueue        ; [DPU_3_PIPE] |761|  ; [KEEP 32-BIT INS]
     907                            ; CALL OCCURS {prvUnlockQueue }  ; [] |761| 
     908                            .dwpsn  file "../Source/queue.c",line 762,column 5,is_stmt,isa 1
     909                    $C$DW$86        .dwtag  DW_TAG_TI_branch
     910                            .dwattr $C$DW$86, DW_AT_low_pc(0x00)
     911                            .dwattr $C$DW$86, DW_AT_name("xTaskResumeAll")
     912                            .dwattr $C$DW$86, DW_AT_TI_call
     913 000001c6 FFFEF7FF!         BL        xTaskResumeAll        ; [DPU_3_PIPE] |762|  ; [KEEP 32-BIT INS]
     914                            ; CALL OCCURS {xTaskResumeAll }  ; [] |762| 
     915                            .dwpsn  file "../Source/queue.c",line 764,column 3,is_stmt,isa 1
     916 000001ca E79C              B         ||$C$L6||             ; [DPU_3_PIPE] |764|  ; [ORIG 16-BIT INS]
     917                            ; BRANCH OCCURS {||$C$L6||}      ; [] |764| 
     918                    ;* --------------------------------------------------------------------------*
     919 000001cc           ||$C$L16||:    
     920                            .dwpsn  file "../Source/queue.c",line 768,column 4,is_stmt,isa 1
     921 000001cc 9808              LDR       A1, [SP, #32]         ; [DPU_3_PIPE] |768|  ; [ORIG 16-BIT INS]
     922                    $C$DW$87        .dwtag  DW_TAG_TI_branch
     923                            .dwattr $C$DW$87, DW_AT_low_pc(0x00)
     924                            .dwattr $C$DW$87, DW_AT_name("prvUnlockQueue")
     925                            .dwattr $C$DW$87, DW_AT_TI_call
     926 000001ce F9CBF000          BL        prvUnlockQueue        ; [DPU_3_PIPE] |768|  ; [KEEP 32-BIT INS]
     927                            ; CALL OCCURS {prvUnlockQueue }  ; [] |768| 
     928                            .dwpsn  file "../Source/queue.c",line 769,column 4,is_stmt,isa 1
     929                    $C$DW$88        .dwtag  DW_TAG_TI_branch
     930                            .dwattr $C$DW$88, DW_AT_low_pc(0x00)
     931                            .dwattr $C$DW$88, DW_AT_name("xTaskResumeAll")
     932                            .dwattr $C$DW$88, DW_AT_TI_call
     933 000001d2 FFFEF7FF!         BL        xTaskResumeAll        ; [DPU_3_PIPE] |769|  ; [KEEP 32-BIT INS]
     934                            ; CALL OCCURS {xTaskResumeAll }  ; [] |769| 
     935                            .dwpsn  file "../Source/queue.c",line 774,column 4,is_stmt,isa 1
TI ARM Assembler PC v5.1.7 Tue Sep 16 08:38:40 2014

Tools Copyright (c) 1996-2014 Texas Instruments Incorporated
queue.asm                                                            PAGE   18

     936 000001d6 2000              MOVS      A1, #0                ; [DPU_3_PIPE] |774|  ; [ORIG 16-BIT INS]
     937 000001d8 E7FF              B         ||$C$L17||            ; [DPU_3_PIPE] |774|  ; [ORIG 16-BIT INS]
     938                            ; BRANCH OCCURS {||$C$L17||}     ; [] |774| 
     939                    ;* --------------------------------------------------------------------------*
     940                    ;* --------------------------------------------------------------------------*
     941 000001da           ||$C$L17||:    
     942                            .dwpsn  file "../Source/queue.c",line 777,column 1,is_stmt,isa 1
     943 000001da B009              ADD       SP, SP, #36           ; [DPU_3_PIPE]  ; [ORIG 16-BIT INS]
     944                            .dwcfi  cfa_offset, 4
     945                    $C$DW$89        .dwtag  DW_TAG_TI_branch
     946                            .dwattr $C$DW$89, DW_AT_low_pc(0x00)
     947                            .dwattr $C$DW$89, DW_AT_TI_return
     948 000001dc BD00              POP       {PC}                  ; [DPU_3_PIPE]  ; [ORIG 16-BIT INS]
     949                            .dwcfi  cfa_offset, 0
     950                            ; BRANCH OCCURS                  ; [] 
     951                            .dwattr $C$DW$57, DW_AT_TI_end_file("../Source/queue.c")
     952                            .dwattr $C$DW$57, DW_AT_TI_end_line(0x309)
     953                            .dwattr $C$DW$57, DW_AT_TI_end_column(0x01)
     954                            .dwendentry
     955                            .dwendtag $C$DW$57
     956                    
     957 000001de                   .sect   ".text"
     958                            .clink
     959                            .thumbfunc xQueueGenericSendFromISR
     960 000001de                   .thumb
     961                            .global xQueueGenericSendFromISR
     962                    
     963                    $C$DW$90        .dwtag  DW_TAG_subprogram, DW_AT_name("xQueueGenericSendFromISR")
     964                            .dwattr $C$DW$90, DW_AT_low_pc(xQueueGenericSendFromISR)
     965                            .dwattr $C$DW$90, DW_AT_high_pc(0x00)
     966                            .dwattr $C$DW$90, DW_AT_TI_symbol_name("xQueueGenericSendFromISR")
     967                            .dwattr $C$DW$90, DW_AT_external
     968                            .dwattr $C$DW$90, DW_AT_type(*$C$DW$T$30)
     969                            .dwattr $C$DW$90, DW_AT_TI_begin_file("../Source/queue.c")
     970                            .dwattr $C$DW$90, DW_AT_TI_begin_line(0x401)
     971                            .dwattr $C$DW$90, DW_AT_TI_begin_column(0x0c)
     972                            .dwattr $C$DW$90, DW_AT_decl_file("../Source/queue.c")
     973                            .dwattr $C$DW$90, DW_AT_decl_line(0x401)
     974                            .dwattr $C$DW$90, DW_AT_decl_column(0x0c)
     975                            .dwattr $C$DW$90, DW_AT_TI_max_frame_size(0x20)
     976                            .dwpsn  file "../Source/queue.c",line 1026,column 1,is_stmt,address xQueueGenericSendFromISR,i
     977                    
     978                            .dwfde $C$DW$CIE, xQueueGenericSendFromISR
     979                    $C$DW$91        .dwtag  DW_TAG_formal_parameter, DW_AT_name("xQueue")
     980                            .dwattr $C$DW$91, DW_AT_TI_symbol_name("xQueue")
     981                            .dwattr $C$DW$91, DW_AT_type(*$C$DW$T$72)
     982                            .dwattr $C$DW$91, DW_AT_location[DW_OP_reg0]
     983                    $C$DW$92        .dwtag  DW_TAG_formal_parameter, DW_AT_name("pvItemToQueue")
     984                            .dwattr $C$DW$92, DW_AT_TI_symbol_name("pvItemToQueue")
     985                            .dwattr $C$DW$92, DW_AT_type(*$C$DW$T$87)
     986                            .dwattr $C$DW$92, DW_AT_location[DW_OP_reg1]
     987                    $C$DW$93        .dwtag  DW_TAG_formal_parameter, DW_AT_name("pxHigherPriorityTaskWoken")
     988                            .dwattr $C$DW$93, DW_AT_TI_symbol_name("pxHigherPriorityTaskWoken")
     989                            .dwattr $C$DW$93, DW_AT_type(*$C$DW$T$142)
     990                            .dwattr $C$DW$93, DW_AT_location[DW_OP_reg2]
TI ARM Assembler PC v5.1.7 Tue Sep 16 08:38:40 2014

Tools Copyright (c) 1996-2014 Texas Instruments Incorporated
queue.asm                                                            PAGE   19

     991                    $C$DW$94        .dwtag  DW_TAG_formal_parameter, DW_AT_name("xCopyPosition")
     992                            .dwattr $C$DW$94, DW_AT_TI_symbol_name("xCopyPosition")
     993                            .dwattr $C$DW$94, DW_AT_type(*$C$DW$T$106)
     994                            .dwattr $C$DW$94, DW_AT_location[DW_OP_reg3]
     995                    
     996                    ;*****************************************************************************
     997                    ;* FUNCTION NAME: xQueueGenericSendFromISR                                   *
     998                    ;*                                                                           *
     999                    ;*   Regs Modified     : A1,A2,A3,A4,V9,SP,LR,SR,D0,D0_hi,D1,D1_hi,D2,D2_hi, *
    1000                    ;*                           D3,D3_hi,D4,D4_hi,D5,D5_hi,D6,D6_hi,D7,D7_hi,   *
    1001                    ;*                           FPEXC,FPSCR                                     *
    1002                    ;*   Regs Used         : A1,A2,A3,A4,V9,SP,LR,SR,D0,D0_hi,D1,D1_hi,D2,D2_hi, *
    1003                    ;*                           D3,D3_hi,D4,D4_hi,D5,D5_hi,D6,D6_hi,D7,D7_hi,   *
    1004                    ;*                           FPEXC,FPSCR                                     *
    1005                    ;*   Local Frame Size  : 0 Args + 28 Auto + 4 Save = 32 byte                 *
    1006                    ;*****************************************************************************
    1007 000001de           xQueueGenericSendFromISR:
    1008                    ;* --------------------------------------------------------------------------*
    1009                            .dwcfi  cfa_offset, 0
    1010 000001de B500              PUSH      {LR}                  ; [DPU_3_PIPE]  ; [ORIG 16-BIT INS]
    1011                            .dwcfi  cfa_offset, 4
    1012                            .dwcfi  save_reg_to_mem, 14, -4
    1013 000001e0 0D1CF1AD          SUB       SP, SP, #28           ; [DPU_3_PIPE]  ; [KEEP 32-BIT INS]
    1014                            .dwcfi  cfa_offset, 32
    1015                    $C$DW$95        .dwtag  DW_TAG_variable, DW_AT_name("xQueue")
    1016                            .dwattr $C$DW$95, DW_AT_TI_symbol_name("xQueue")
    1017                            .dwattr $C$DW$95, DW_AT_type(*$C$DW$T$72)
    1018                            .dwattr $C$DW$95, DW_AT_location[DW_OP_breg13 0]
    1019                    $C$DW$96        .dwtag  DW_TAG_variable, DW_AT_name("pvItemToQueue")
    1020                            .dwattr $C$DW$96, DW_AT_TI_symbol_name("pvItemToQueue")
    1021                            .dwattr $C$DW$96, DW_AT_type(*$C$DW$T$87)
    1022                            .dwattr $C$DW$96, DW_AT_location[DW_OP_breg13 4]
    1023                    $C$DW$97        .dwtag  DW_TAG_variable, DW_AT_name("pxHigherPriorityTaskWoken")
    1024                            .dwattr $C$DW$97, DW_AT_TI_symbol_name("pxHigherPriorityTaskWoken")
    1025                            .dwattr $C$DW$97, DW_AT_type(*$C$DW$T$142)
    1026                            .dwattr $C$DW$97, DW_AT_location[DW_OP_breg13 8]
    1027                    $C$DW$98        .dwtag  DW_TAG_variable, DW_AT_name("xCopyPosition")
    1028                            .dwattr $C$DW$98, DW_AT_TI_symbol_name("xCopyPosition")
    1029                            .dwattr $C$DW$98, DW_AT_type(*$C$DW$T$106)
    1030                            .dwattr $C$DW$98, DW_AT_location[DW_OP_breg13 12]
    1031                    $C$DW$99        .dwtag  DW_TAG_variable, DW_AT_name("xReturn")
    1032                            .dwattr $C$DW$99, DW_AT_TI_symbol_name("xReturn")
    1033                            .dwattr $C$DW$99, DW_AT_type(*$C$DW$T$30)
    1034                            .dwattr $C$DW$99, DW_AT_location[DW_OP_breg13 16]
    1035                    $C$DW$100       .dwtag  DW_TAG_variable, DW_AT_name("uxSavedInterruptStatus")
    1036                            .dwattr $C$DW$100, DW_AT_TI_symbol_name("uxSavedInterruptStatus")
    1037                            .dwattr $C$DW$100, DW_AT_type(*$C$DW$T$25)
    1038                            .dwattr $C$DW$100, DW_AT_location[DW_OP_breg13 20]
    1039                    $C$DW$101       .dwtag  DW_TAG_variable, DW_AT_name("pxQueue")
    1040                            .dwattr $C$DW$101, DW_AT_TI_symbol_name("pxQueue")
    1041                            .dwattr $C$DW$101, DW_AT_type(*$C$DW$T$71)
    1042                            .dwattr $C$DW$101, DW_AT_location[DW_OP_breg13 24]
    1043 000001e4 9303              STR       A4, [SP, #12]         ; [DPU_3_PIPE] |1026|  ; [ORIG 16-BIT INS]
    1044 000001e6 9202              STR       A3, [SP, #8]          ; [DPU_3_PIPE] |1026|  ; [ORIG 16-BIT INS]
    1045 000001e8 9101              STR       A2, [SP, #4]          ; [DPU_3_PIPE] |1026|  ; [ORIG 16-BIT INS]
TI ARM Assembler PC v5.1.7 Tue Sep 16 08:38:40 2014

Tools Copyright (c) 1996-2014 Texas Instruments Incorporated
queue.asm                                                            PAGE   20

    1046 000001ea 9000              STR       A1, [SP, #0]          ; [DPU_3_PIPE] |1026|  ; [ORIG 16-BIT INS]
    1047                            .dwpsn  file "../Source/queue.c",line 1029,column 25,is_stmt,isa 1
    1048 000001ec 9800              LDR       A1, [SP, #0]          ; [DPU_3_PIPE] |1029|  ; [ORIG 16-BIT INS]
    1049 000001ee 9006              STR       A1, [SP, #24]         ; [DPU_3_PIPE] |1029|  ; [ORIG 16-BIT INS]
    1050                            .dwpsn  file "../Source/queue.c",line 1056,column 2,is_stmt,isa 1
    1051                    $C$DW$102       .dwtag  DW_TAG_TI_branch
    1052                            .dwattr $C$DW$102, DW_AT_low_pc(0x00)
    1053                            .dwattr $C$DW$102, DW_AT_name("ulPortSetInterruptMask")
    1054                            .dwattr $C$DW$102, DW_AT_TI_call
    1055 000001f0 FFFEF7FF!         BL        ulPortSetInterruptMask ; [DPU_3_PIPE] |1056|  ; [KEEP 32-BIT INS]
    1056                            ; CALL OCCURS {ulPortSetInterruptMask }  ; [] |1056| 
    1057 000001f4 9005              STR       A1, [SP, #20]         ; [DPU_3_PIPE] |1056|  ; [ORIG 16-BIT INS]
    1058                            .dwpsn  file "../Source/queue.c",line 1058,column 3,is_stmt,isa 1
    1059 000001f6 9906              LDR       A2, [SP, #24]         ; [DPU_3_PIPE] |1058|  ; [ORIG 16-BIT INS]
    1060 000001f8 9806              LDR       A1, [SP, #24]         ; [DPU_3_PIPE] |1058|  ; [ORIG 16-BIT INS]
    1061 000001fa 6B89              LDR       A2, [A2, #56]         ; [DPU_3_PIPE] |1058|  ; [ORIG 16-BIT INS]
    1062 000001fc 6BC0              LDR       A1, [A1, #60]         ; [DPU_3_PIPE] |1058|  ; [ORIG 16-BIT INS]
    1063 000001fe 4288              CMP       A1, A2                ; [DPU_3_PIPE] |1058|  ; [ORIG 16-BIT INS]
    1064 00000200 D802              BHI       ||$C$L18||            ; [DPU_3_PIPE] |1058|  ; [ORIG 16-BIT INS]
    1065                            ; BRANCHCC OCCURS {||$C$L18||}   ; [] |1058| 
    1066                    ;* --------------------------------------------------------------------------*
    1067 00000202 9803              LDR       A1, [SP, #12]         ; [DPU_3_PIPE] |1058|  ; [ORIG 16-BIT INS]
    1068 00000204 2802              CMP       A1, #2                ; [DPU_3_PIPE] |1058|  ; [ORIG 16-BIT INS]
    1069 00000206 D121              BNE       ||$C$L22||            ; [DPU_3_PIPE] |1058|  ; [ORIG 16-BIT INS]
    1070                            ; BRANCHCC OCCURS {||$C$L22||}   ; [] |1058| 
    1071                    ;* --------------------------------------------------------------------------*
    1072 00000208           ||$C$L18||:    
    1073                            .dwpsn  file "../Source/queue.c",line 1062,column 4,is_stmt,isa 1
    1074 00000208 9806              LDR       A1, [SP, #24]         ; [DPU_3_PIPE] |1062|  ; [ORIG 16-BIT INS]
    1075 0000020a 9901              LDR       A2, [SP, #4]          ; [DPU_3_PIPE] |1062|  ; [ORIG 16-BIT INS]
    1076 0000020c 9A03              LDR       A3, [SP, #12]         ; [DPU_3_PIPE] |1062|  ; [ORIG 16-BIT INS]
    1077                    $C$DW$103       .dwtag  DW_TAG_TI_branch
    1078                            .dwattr $C$DW$103, DW_AT_low_pc(0x00)
    1079                            .dwattr $C$DW$103, DW_AT_name("prvCopyDataToQueue")
    1080                            .dwattr $C$DW$103, DW_AT_TI_call
    1081 0000020e F940F000          BL        prvCopyDataToQueue    ; [DPU_3_PIPE] |1062|  ; [KEEP 32-BIT INS]
    1082                            ; CALL OCCURS {prvCopyDataToQueue }  ; [] |1062| 
    1083                            .dwpsn  file "../Source/queue.c",line 1066,column 4,is_stmt,isa 1
    1084 00000212 9806              LDR       A1, [SP, #24]         ; [DPU_3_PIPE] |1066|  ; [ORIG 16-BIT INS]
    1085 00000214 6C80              LDR       A1, [A1, #72]         ; [DPU_3_PIPE] |1066|  ; [ORIG 16-BIT INS]
    1086 00000216 3FFFF1B0          CMP       A1, #-1               ; [DPU_3_PIPE] |1066|  ; [KEEP 32-BIT INS]
    1087 0000021a D110              BNE       ||$C$L20||            ; [DPU_3_PIPE] |1066|  ; [ORIG 16-BIT INS]
    1088                            ; BRANCHCC OCCURS {||$C$L20||}   ; [] |1066| 
    1089                    ;* --------------------------------------------------------------------------*
    1090                            .dwpsn  file "../Source/queue.c",line 1121,column 6,is_stmt,isa 1
    1091 0000021c 9806              LDR       A1, [SP, #24]         ; [DPU_3_PIPE] |1121|  ; [ORIG 16-BIT INS]
    1092 0000021e 6A41              LDR       A2, [A1, #36]         ; [DPU_3_PIPE] |1121|  ; [ORIG 16-BIT INS]
    1093 00000220 2000              MOVS      A1, #0                ; [DPU_3_PIPE] |1121|  ; [ORIG 16-BIT INS]
    1094 00000222 B901              CBNZ      A2, ||$C$L19||        ; []  ; [ORIG 16-BIT INS]
    1095                            ; BRANCHCC OCCURS {||$C$L19||}   ; [] |1121| 
    1096                    ;* --------------------------------------------------------------------------*
    1097 00000224 2001              MOVS      A1, #1                ; [DPU_3_PIPE] |1121|  ; [ORIG 16-BIT INS]
    1098                    ;* --------------------------------------------------------------------------*
    1099 00000226           ||$C$L19||:    
    1100 00000226 B970              CBNZ      A1, ||$C$L21||        ; []  ; [ORIG 16-BIT INS]
TI ARM Assembler PC v5.1.7 Tue Sep 16 08:38:40 2014

Tools Copyright (c) 1996-2014 Texas Instruments Incorporated
queue.asm                                                            PAGE   21

    1101                            ; BRANCHCC OCCURS {||$C$L21||}   ; [] |1121| 
    1102                    ;* --------------------------------------------------------------------------*
    1103                            .dwpsn  file "../Source/queue.c",line 1123,column 7,is_stmt,isa 1
    1104 00000228 9806              LDR       A1, [SP, #24]         ; [DPU_3_PIPE] |1123|  ; [ORIG 16-BIT INS]
    1105 0000022a 3024              ADDS      A1, A1, #36           ; [DPU_3_PIPE] |1123|  ; [ORIG 16-BIT INS]
    1106                    $C$DW$104       .dwtag  DW_TAG_TI_branch
    1107                            .dwattr $C$DW$104, DW_AT_low_pc(0x00)
    1108                            .dwattr $C$DW$104, DW_AT_name("xTaskRemoveFromEventList")
    1109                            .dwattr $C$DW$104, DW_AT_TI_call
    1110 0000022c FFFEF7FF!         BL        xTaskRemoveFromEventList ; [DPU_3_PIPE] |1123|  ; [KEEP 32-BIT INS]
    1111                            ; CALL OCCURS {xTaskRemoveFromEventList }  ; [] |1123| 
    1112 00000230 B148              CBZ       A1, ||$C$L21||        ; []  ; [ORIG 16-BIT INS]
    1113                            ; BRANCHCC OCCURS {||$C$L21||}   ; [] |1123| 
    1114                    ;* --------------------------------------------------------------------------*
    1115                            .dwpsn  file "../Source/queue.c",line 1127,column 8,is_stmt,isa 1
    1116 00000232 9802              LDR       A1, [SP, #8]          ; [DPU_3_PIPE] |1127|  ; [ORIG 16-BIT INS]
    1117 00000234 B138              CBZ       A1, ||$C$L21||        ; []  ; [ORIG 16-BIT INS]
    1118                            ; BRANCHCC OCCURS {||$C$L21||}   ; [] |1127| 
    1119                    ;* --------------------------------------------------------------------------*
    1120                            .dwpsn  file "../Source/queue.c",line 1129,column 9,is_stmt,isa 1
    1121 00000236 9802              LDR       A1, [SP, #8]          ; [DPU_3_PIPE] |1129|  ; [ORIG 16-BIT INS]
    1122 00000238 2101              MOVS      A2, #1                ; [DPU_3_PIPE] |1129|  ; [ORIG 16-BIT INS]
    1123 0000023a 6001              STR       A2, [A1, #0]          ; [DPU_3_PIPE] |1129|  ; [ORIG 16-BIT INS]
    1124                            .dwpsn  file "../Source/queue.c",line 1130,column 8,is_stmt,isa 1
    1125 0000023c E003              B         ||$C$L21||            ; [DPU_3_PIPE] |1130|  ; [ORIG 16-BIT INS]
    1126                            ; BRANCH OCCURS {||$C$L21||}     ; [] |1130| 
    1127                    ;* --------------------------------------------------------------------------*
    1128                    ;* --------------------------------------------------------------------------*
    1129 0000023e           ||$C$L20||:    
    1130                            .dwpsn  file "../Source/queue.c",line 1152,column 5,is_stmt,isa 1
    1131 0000023e 9906              LDR       A2, [SP, #24]         ; [DPU_3_PIPE] |1152|  ; [ORIG 16-BIT INS]
    1132 00000240 6C88              LDR       A1, [A2, #72]         ; [DPU_3_PIPE] |1152|  ; [ORIG 16-BIT INS]
    1133 00000242 1C40              ADDS      A1, A1, #1            ; [DPU_3_PIPE] |1152|  ; [ORIG 16-BIT INS]
    1134 00000244 6488              STR       A1, [A2, #72]         ; [DPU_3_PIPE] |1152|  ; [ORIG 16-BIT INS]
    1135                    ;* --------------------------------------------------------------------------*
    1136 00000246           ||$C$L21||:    
    1137                            .dwpsn  file "../Source/queue.c",line 1155,column 4,is_stmt,isa 1
    1138 00000246 2001              MOVS      A1, #1                ; [DPU_3_PIPE] |1155|  ; [ORIG 16-BIT INS]
    1139 00000248 9004              STR       A1, [SP, #16]         ; [DPU_3_PIPE] |1155|  ; [ORIG 16-BIT INS]
    1140                            .dwpsn  file "../Source/queue.c",line 1156,column 3,is_stmt,isa 1
    1141 0000024a E001              B         ||$C$L23||            ; [DPU_3_PIPE] |1156|  ; [ORIG 16-BIT INS]
    1142                            ; BRANCH OCCURS {||$C$L23||}     ; [] |1156| 
    1143                    ;* --------------------------------------------------------------------------*
    1144 0000024c           ||$C$L22||:    
    1145                            .dwpsn  file "../Source/queue.c",line 1160,column 4,is_stmt,isa 1
    1146 0000024c 2000              MOVS      A1, #0                ; [DPU_3_PIPE] |1160|  ; [ORIG 16-BIT INS]
    1147 0000024e 9004              STR       A1, [SP, #16]         ; [DPU_3_PIPE] |1160|  ; [ORIG 16-BIT INS]
    1148                    ;* --------------------------------------------------------------------------*
    1149 00000250           ||$C$L23||:    
    1150                            .dwpsn  file "../Source/queue.c",line 1163,column 2,is_stmt,isa 1
    1151 00000250 9805              LDR       A1, [SP, #20]         ; [DPU_3_PIPE] |1163|  ; [ORIG 16-BIT INS]
    1152                    $C$DW$105       .dwtag  DW_TAG_TI_branch
    1153                            .dwattr $C$DW$105, DW_AT_low_pc(0x00)
    1154                            .dwattr $C$DW$105, DW_AT_name("vPortClearInterruptMask")
    1155                            .dwattr $C$DW$105, DW_AT_TI_call
TI ARM Assembler PC v5.1.7 Tue Sep 16 08:38:40 2014

Tools Copyright (c) 1996-2014 Texas Instruments Incorporated
queue.asm                                                            PAGE   22

    1156 00000252 FFFEF7FF!         BL        vPortClearInterruptMask ; [DPU_3_PIPE] |1163|  ; [KEEP 32-BIT INS]
    1157                            ; CALL OCCURS {vPortClearInterruptMask }  ; [] |1163| 
    1158                            .dwpsn  file "../Source/queue.c",line 1165,column 2,is_stmt,isa 1
    1159 00000256 9804              LDR       A1, [SP, #16]         ; [DPU_3_PIPE] |1165|  ; [ORIG 16-BIT INS]
    1160                            .dwpsn  file "../Source/queue.c",line 1166,column 1,is_stmt,isa 1
    1161 00000258 B007              ADD       SP, SP, #28           ; [DPU_3_PIPE]  ; [ORIG 16-BIT INS]
    1162                            .dwcfi  cfa_offset, 4
    1163                    $C$DW$106       .dwtag  DW_TAG_TI_branch
    1164                            .dwattr $C$DW$106, DW_AT_low_pc(0x00)
    1165                            .dwattr $C$DW$106, DW_AT_TI_return
    1166 0000025a BD00              POP       {PC}                  ; [DPU_3_PIPE]  ; [ORIG 16-BIT INS]
    1167                            .dwcfi  cfa_offset, 0
    1168                            ; BRANCH OCCURS                  ; [] 
    1169                            .dwattr $C$DW$90, DW_AT_TI_end_file("../Source/queue.c")
    1170                            .dwattr $C$DW$90, DW_AT_TI_end_line(0x48e)
    1171                            .dwattr $C$DW$90, DW_AT_TI_end_column(0x01)
    1172                            .dwendentry
    1173                            .dwendtag $C$DW$90
    1174                    
    1175 0000025c                   .sect   ".text"
    1176                            .clink
    1177                            .thumbfunc xQueueGenericReceive
    1178 0000025c                   .thumb
    1179                            .global xQueueGenericReceive
    1180                    
    1181                    $C$DW$107       .dwtag  DW_TAG_subprogram, DW_AT_name("xQueueGenericReceive")
    1182                            .dwattr $C$DW$107, DW_AT_low_pc(xQueueGenericReceive)
    1183                            .dwattr $C$DW$107, DW_AT_high_pc(0x00)
    1184                            .dwattr $C$DW$107, DW_AT_TI_symbol_name("xQueueGenericReceive")
    1185                            .dwattr $C$DW$107, DW_AT_external
    1186                            .dwattr $C$DW$107, DW_AT_type(*$C$DW$T$30)
    1187                            .dwattr $C$DW$107, DW_AT_TI_begin_file("../Source/queue.c")
    1188                            .dwattr $C$DW$107, DW_AT_TI_begin_line(0x491)
    1189                            .dwattr $C$DW$107, DW_AT_TI_begin_column(0x0c)
    1190                            .dwattr $C$DW$107, DW_AT_decl_file("../Source/queue.c")
    1191                            .dwattr $C$DW$107, DW_AT_decl_line(0x491)
    1192                            .dwattr $C$DW$107, DW_AT_decl_column(0x0c)
    1193                            .dwattr $C$DW$107, DW_AT_TI_max_frame_size(0x30)
    1194                            .dwpsn  file "../Source/queue.c",line 1170,column 1,is_stmt,address xQueueGenericReceive,isa 1
    1195                    
    1196                            .dwfde $C$DW$CIE, xQueueGenericReceive
    1197                    $C$DW$108       .dwtag  DW_TAG_formal_parameter, DW_AT_name("xQueue")
    1198                            .dwattr $C$DW$108, DW_AT_TI_symbol_name("xQueue")
    1199                            .dwattr $C$DW$108, DW_AT_type(*$C$DW$T$72)
    1200                            .dwattr $C$DW$108, DW_AT_location[DW_OP_reg0]
    1201                    $C$DW$109       .dwtag  DW_TAG_formal_parameter, DW_AT_name("pvBuffer")
    1202                            .dwattr $C$DW$109, DW_AT_TI_symbol_name("pvBuffer")
    1203                            .dwattr $C$DW$109, DW_AT_type(*$C$DW$T$86)
    1204                            .dwattr $C$DW$109, DW_AT_location[DW_OP_reg1]
    1205                    $C$DW$110       .dwtag  DW_TAG_formal_parameter, DW_AT_name("xTicksToWait")
    1206                            .dwattr $C$DW$110, DW_AT_TI_symbol_name("xTicksToWait")
    1207                            .dwattr $C$DW$110, DW_AT_type(*$C$DW$T$38)
    1208                            .dwattr $C$DW$110, DW_AT_location[DW_OP_reg2]
    1209                    $C$DW$111       .dwtag  DW_TAG_formal_parameter, DW_AT_name("xJustPeeking")
    1210                            .dwattr $C$DW$111, DW_AT_TI_symbol_name("xJustPeeking")
TI ARM Assembler PC v5.1.7 Tue Sep 16 08:38:40 2014

Tools Copyright (c) 1996-2014 Texas Instruments Incorporated
queue.asm                                                            PAGE   23

    1211                            .dwattr $C$DW$111, DW_AT_type(*$C$DW$T$106)
    1212                            .dwattr $C$DW$111, DW_AT_location[DW_OP_reg3]
    1213                    
    1214                    ;*****************************************************************************
    1215                    ;* FUNCTION NAME: xQueueGenericReceive                                       *
    1216                    ;*                                                                           *
    1217                    ;*   Regs Modified     : A1,A2,A3,A4,V9,SP,LR,SR,D0,D0_hi,D1,D1_hi,D2,D2_hi, *
    1218                    ;*                           D3,D3_hi,D4,D4_hi,D5,D5_hi,D6,D6_hi,D7,D7_hi,   *
    1219                    ;*                           FPEXC,FPSCR                                     *
    1220                    ;*   Regs Used         : A1,A2,A3,A4,V9,SP,LR,SR,D0,D0_hi,D1,D1_hi,D2,D2_hi, *
    1221                    ;*                           D3,D3_hi,D4,D4_hi,D5,D5_hi,D6,D6_hi,D7,D7_hi,   *
    1222                    ;*                           FPEXC,FPSCR                                     *
    1223                    ;*   Local Frame Size  : 0 Args + 40 Auto + 4 Save = 44 byte                 *
    1224                    ;*****************************************************************************
    1225 0000025c           xQueueGenericReceive:
    1226                    ;* --------------------------------------------------------------------------*
    1227                            .dwcfi  cfa_offset, 0
    1228 0000025c B500              PUSH      {LR}                  ; [DPU_3_PIPE]  ; [ORIG 16-BIT INS]
    1229                            .dwcfi  cfa_offset, 4
    1230                            .dwcfi  save_reg_to_mem, 14, -4
    1231 0000025e 0D2CF1AD          SUB       SP, SP, #44           ; [DPU_3_PIPE]  ; [KEEP 32-BIT INS]
    1232                            .dwcfi  cfa_offset, 48
    1233                    $C$DW$112       .dwtag  DW_TAG_variable, DW_AT_name("xQueue")
    1234                            .dwattr $C$DW$112, DW_AT_TI_symbol_name("xQueue")
    1235                            .dwattr $C$DW$112, DW_AT_type(*$C$DW$T$72)
    1236                            .dwattr $C$DW$112, DW_AT_location[DW_OP_breg13 0]
    1237                    $C$DW$113       .dwtag  DW_TAG_variable, DW_AT_name("pvBuffer")
    1238                            .dwattr $C$DW$113, DW_AT_TI_symbol_name("pvBuffer")
    1239                            .dwattr $C$DW$113, DW_AT_type(*$C$DW$T$86)
    1240                            .dwattr $C$DW$113, DW_AT_location[DW_OP_breg13 4]
    1241                    $C$DW$114       .dwtag  DW_TAG_variable, DW_AT_name("xTicksToWait")
    1242                            .dwattr $C$DW$114, DW_AT_TI_symbol_name("xTicksToWait")
    1243                            .dwattr $C$DW$114, DW_AT_type(*$C$DW$T$38)
    1244                            .dwattr $C$DW$114, DW_AT_location[DW_OP_breg13 8]
    1245                    $C$DW$115       .dwtag  DW_TAG_variable, DW_AT_name("xJustPeeking")
    1246                            .dwattr $C$DW$115, DW_AT_TI_symbol_name("xJustPeeking")
    1247                            .dwattr $C$DW$115, DW_AT_type(*$C$DW$T$106)
    1248                            .dwattr $C$DW$115, DW_AT_location[DW_OP_breg13 12]
    1249                    $C$DW$116       .dwtag  DW_TAG_variable, DW_AT_name("xEntryTimeSet")
    1250                            .dwattr $C$DW$116, DW_AT_TI_symbol_name("xEntryTimeSet")
    1251                            .dwattr $C$DW$116, DW_AT_type(*$C$DW$T$30)
    1252                            .dwattr $C$DW$116, DW_AT_location[DW_OP_breg13 16]
    1253                    $C$DW$117       .dwtag  DW_TAG_variable, DW_AT_name("xTimeOut")
    1254                            .dwattr $C$DW$117, DW_AT_TI_symbol_name("xTimeOut")
    1255                            .dwattr $C$DW$117, DW_AT_type(*$C$DW$T$100)
    1256                            .dwattr $C$DW$117, DW_AT_location[DW_OP_breg13 24]
    1257                    $C$DW$118       .dwtag  DW_TAG_variable, DW_AT_name("pcOriginalReadPosition")
    1258                            .dwattr $C$DW$118, DW_AT_TI_symbol_name("pcOriginalReadPosition")
    1259                            .dwattr $C$DW$118, DW_AT_type(*$C$DW$T$23)
    1260                            .dwattr $C$DW$118, DW_AT_location[DW_OP_breg13 32]
    1261                    $C$DW$119       .dwtag  DW_TAG_variable, DW_AT_name("pxQueue")
    1262                            .dwattr $C$DW$119, DW_AT_TI_symbol_name("pxQueue")
    1263                            .dwattr $C$DW$119, DW_AT_type(*$C$DW$T$71)
    1264                            .dwattr $C$DW$119, DW_AT_location[DW_OP_breg13 36]
    1265 00000262 9303              STR       A4, [SP, #12]         ; [DPU_3_PIPE] |1170|  ; [ORIG 16-BIT INS]
TI ARM Assembler PC v5.1.7 Tue Sep 16 08:38:40 2014

Tools Copyright (c) 1996-2014 Texas Instruments Incorporated
queue.asm                                                            PAGE   24

    1266 00000264 9202              STR       A3, [SP, #8]          ; [DPU_3_PIPE] |1170|  ; [ORIG 16-BIT INS]
    1267 00000266 9101              STR       A2, [SP, #4]          ; [DPU_3_PIPE] |1170|  ; [ORIG 16-BIT INS]
    1268 00000268 9000              STR       A1, [SP, #0]          ; [DPU_3_PIPE] |1170|  ; [ORIG 16-BIT INS]
    1269                            .dwpsn  file "../Source/queue.c",line 1171,column 26,is_stmt,isa 1
    1270 0000026a 2000              MOVS      A1, #0                ; [DPU_3_PIPE] |1171|  ; [ORIG 16-BIT INS]
    1271 0000026c 9004              STR       A1, [SP, #16]         ; [DPU_3_PIPE] |1171|  ; [ORIG 16-BIT INS]
    1272                            .dwpsn  file "../Source/queue.c",line 1174,column 25,is_stmt,isa 1
    1273 0000026e 9800              LDR       A1, [SP, #0]          ; [DPU_3_PIPE] |1174|  ; [ORIG 16-BIT INS]
    1274 00000270 9009              STR       A1, [SP, #36]         ; [DPU_3_PIPE] |1174|  ; [ORIG 16-BIT INS]
    1275                    ;* --------------------------------------------------------------------------*
    1276                    ;*   BEGIN LOOP ||$C$L24||
    1277                    ;*
    1278                    ;*   Loop source line                : 1188
    1279                    ;*   Loop closing brace source line  : 1354
    1280                    ;*   Known Minimum Trip Count        : 1
    1281                    ;*   Known Maximum Trip Count        : 4294967295
    1282                    ;*   Known Max Trip Count Factor     : 1
    1283                    ;* --------------------------------------------------------------------------*
    1284 00000272           ||$C$L24||:    
    1285                            .dwpsn  file "../Source/queue.c",line 1190,column 3,is_stmt,isa 1
    1286                    $C$DW$120       .dwtag  DW_TAG_TI_branch
    1287                            .dwattr $C$DW$120, DW_AT_low_pc(0x00)
    1288                            .dwattr $C$DW$120, DW_AT_name("vPortEnterCritical")
    1289                            .dwattr $C$DW$120, DW_AT_TI_call
    1290 00000272 FFFEF7FF!         BL        vPortEnterCritical    ; [DPU_3_PIPE] |1190|  ; [KEEP 32-BIT INS]
    1291                            ; CALL OCCURS {vPortEnterCritical }  ; [] |1190| 
    1292                            .dwpsn  file "../Source/queue.c",line 1194,column 4,is_stmt,isa 1
    1293 00000276 9809              LDR       A1, [SP, #36]         ; [DPU_3_PIPE] |1194|  ; [ORIG 16-BIT INS]
    1294 00000278 6B80              LDR       A1, [A1, #56]         ; [DPU_3_PIPE] |1194|  ; [ORIG 16-BIT INS]
    1295 0000027a 2800              CMP       A1, #0                ; [DPU_3_PIPE] |1194|  ; [ORIG 16-BIT INS]
    1296 0000027c D02C              BEQ       ||$C$L29||            ; [DPU_3_PIPE] |1194|  ; [ORIG 16-BIT INS]
    1297                            ; BRANCHCC OCCURS {||$C$L29||}   ; [] |1194| 
    1298                    ;* --------------------------------------------------------------------------*
    1299                            .dwpsn  file "../Source/queue.c",line 1198,column 5,is_stmt,isa 1
    1300 0000027e 9809              LDR       A1, [SP, #36]         ; [DPU_3_PIPE] |1198|  ; [ORIG 16-BIT INS]
    1301 00000280 68C0              LDR       A1, [A1, #12]         ; [DPU_3_PIPE] |1198|  ; [ORIG 16-BIT INS]
    1302 00000282 9008              STR       A1, [SP, #32]         ; [DPU_3_PIPE] |1198|  ; [ORIG 16-BIT INS]
    1303                            .dwpsn  file "../Source/queue.c",line 1200,column 5,is_stmt,isa 1
    1304 00000284 9901              LDR       A2, [SP, #4]          ; [DPU_3_PIPE] |1200|  ; [ORIG 16-BIT INS]
    1305 00000286 9809              LDR       A1, [SP, #36]         ; [DPU_3_PIPE] |1200|  ; [ORIG 16-BIT INS]
    1306                    $C$DW$121       .dwtag  DW_TAG_TI_branch
    1307                            .dwattr $C$DW$121, DW_AT_low_pc(0x00)
    1308                            .dwattr $C$DW$121, DW_AT_name("prvCopyDataFromQueue")
    1309                            .dwattr $C$DW$121, DW_AT_TI_call
    1310 00000288 F94FF000          BL        prvCopyDataFromQueue  ; [DPU_3_PIPE] |1200|  ; [KEEP 32-BIT INS]
    1311                            ; CALL OCCURS {prvCopyDataFromQueue }  ; [] |1200| 
    1312                            .dwpsn  file "../Source/queue.c",line 1202,column 5,is_stmt,isa 1
    1313 0000028c 9803              LDR       A1, [SP, #12]         ; [DPU_3_PIPE] |1202|  ; [ORIG 16-BIT INS]
    1314 0000028e B980              CBNZ      A1, ||$C$L26||        ; []  ; [ORIG 16-BIT INS]
    1315                            ; BRANCHCC OCCURS {||$C$L26||}   ; [] |1202| 
    1316                    ;* --------------------------------------------------------------------------*
    1317                            .dwpsn  file "../Source/queue.c",line 1207,column 6,is_stmt,isa 1
    1318 00000290 9909              LDR       A2, [SP, #36]         ; [DPU_3_PIPE] |1207|  ; [ORIG 16-BIT INS]
    1319 00000292 6B88              LDR       A1, [A2, #56]         ; [DPU_3_PIPE] |1207|  ; [ORIG 16-BIT INS]
    1320 00000294 1E40              SUBS      A1, A1, #1            ; [DPU_3_PIPE] |1207|  ; [ORIG 16-BIT INS]
TI ARM Assembler PC v5.1.7 Tue Sep 16 08:38:40 2014

Tools Copyright (c) 1996-2014 Texas Instruments Incorporated
queue.asm                                                            PAGE   25

    1321 00000296 6388              STR       A1, [A2, #56]         ; [DPU_3_PIPE] |1207|  ; [ORIG 16-BIT INS]
    1322                            .dwpsn  file "../Source/queue.c",line 1224,column 6,is_stmt,isa 1
    1323 00000298 9809              LDR       A1, [SP, #36]         ; [DPU_3_PIPE] |1224|  ; [ORIG 16-BIT INS]
    1324 0000029a 6901              LDR       A2, [A1, #16]         ; [DPU_3_PIPE] |1224|  ; [ORIG 16-BIT INS]
    1325 0000029c 2000              MOVS      A1, #0                ; [DPU_3_PIPE] |1224|  ; [ORIG 16-BIT INS]
    1326 0000029e B901              CBNZ      A2, ||$C$L25||        ; []  ; [ORIG 16-BIT INS]
    1327                            ; BRANCHCC OCCURS {||$C$L25||}   ; [] |1224| 
    1328                    ;* --------------------------------------------------------------------------*
    1329 000002a0 2001              MOVS      A1, #1                ; [DPU_3_PIPE] |1224|  ; [ORIG 16-BIT INS]
    1330                    ;* --------------------------------------------------------------------------*
    1331 000002a2           ||$C$L25||:    
    1332 000002a2 B9A8              CBNZ      A1, ||$C$L28||        ; []  ; [ORIG 16-BIT INS]
    1333                            ; BRANCHCC OCCURS {||$C$L28||}   ; [] |1224| 
    1334                    ;* --------------------------------------------------------------------------*
    1335                            .dwpsn  file "../Source/queue.c",line 1226,column 7,is_stmt,isa 1
    1336 000002a4 9809              LDR       A1, [SP, #36]         ; [DPU_3_PIPE] |1226|  ; [ORIG 16-BIT INS]
    1337 000002a6 3010              ADDS      A1, A1, #16           ; [DPU_3_PIPE] |1226|  ; [ORIG 16-BIT INS]
    1338                    $C$DW$122       .dwtag  DW_TAG_TI_branch
    1339                            .dwattr $C$DW$122, DW_AT_low_pc(0x00)
    1340                            .dwattr $C$DW$122, DW_AT_name("xTaskRemoveFromEventList")
    1341                            .dwattr $C$DW$122, DW_AT_TI_call
    1342 000002a8 FFFEF7FF!         BL        xTaskRemoveFromEventList ; [DPU_3_PIPE] |1226|  ; [KEEP 32-BIT INS]
    1343                            ; CALL OCCURS {xTaskRemoveFromEventList }  ; [] |1226| 
    1344 000002ac 2801              CMP       A1, #1                ; [DPU_3_PIPE] |1226|  ; [ORIG 16-BIT INS]
    1345 000002ae D00F              BEQ       ||$C$L28||            ; [DPU_3_PIPE] |1226|  ; [ORIG 16-BIT INS]
    1346                            ; BRANCHCC OCCURS {||$C$L28||}   ; [] |1226| 
    1347                    ;* --------------------------------------------------------------------------*
    1348                            .dwpsn  file "../Source/queue.c",line 1229,column 7,is_stmt,isa 1
    1349                            .dwpsn  file "../Source/queue.c",line 1234,column 6,is_stmt,isa 1
    1350 000002b0 E00E              B         ||$C$L28||            ; [DPU_3_PIPE] |1234|  ; [ORIG 16-BIT INS]
    1351                            ; BRANCH OCCURS {||$C$L28||}     ; [] |1234| 
    1352                    ;* --------------------------------------------------------------------------*
    1353                    ;* --------------------------------------------------------------------------*
    1354 000002b2           ||$C$L26||:    
    1355                            .dwpsn  file "../Source/queue.c",line 1246,column 6,is_stmt,isa 1
    1356 000002b2 9808              LDR       A1, [SP, #32]         ; [DPU_3_PIPE] |1246|  ; [ORIG 16-BIT INS]
    1357 000002b4 9909              LDR       A2, [SP, #36]         ; [DPU_3_PIPE] |1246|  ; [ORIG 16-BIT INS]
    1358 000002b6 60C8              STR       A1, [A2, #12]         ; [DPU_3_PIPE] |1246|  ; [ORIG 16-BIT INS]
    1359                            .dwpsn  file "../Source/queue.c",line 1250,column 6,is_stmt,isa 1
    1360 000002b8 9809              LDR       A1, [SP, #36]         ; [DPU_3_PIPE] |1250|  ; [ORIG 16-BIT INS]
    1361 000002ba 6A41              LDR       A2, [A1, #36]         ; [DPU_3_PIPE] |1250|  ; [ORIG 16-BIT INS]
    1362 000002bc 2000              MOVS      A1, #0                ; [DPU_3_PIPE] |1250|  ; [ORIG 16-BIT INS]
    1363 000002be B901              CBNZ      A2, ||$C$L27||        ; []  ; [ORIG 16-BIT INS]
    1364                            ; BRANCHCC OCCURS {||$C$L27||}   ; [] |1250| 
    1365                    ;* --------------------------------------------------------------------------*
    1366 000002c0 2001              MOVS      A1, #1                ; [DPU_3_PIPE] |1250|  ; [ORIG 16-BIT INS]
    1367                    ;* --------------------------------------------------------------------------*
    1368 000002c2           ||$C$L27||:    
    1369 000002c2 B928              CBNZ      A1, ||$C$L28||        ; []  ; [ORIG 16-BIT INS]
    1370                            ; BRANCHCC OCCURS {||$C$L28||}   ; [] |1250| 
    1371                    ;* --------------------------------------------------------------------------*
    1372                            .dwpsn  file "../Source/queue.c",line 1254,column 7,is_stmt,isa 1
    1373 000002c4 9809              LDR       A1, [SP, #36]         ; [DPU_3_PIPE] |1254|  ; [ORIG 16-BIT INS]
    1374 000002c6 3024              ADDS      A1, A1, #36           ; [DPU_3_PIPE] |1254|  ; [ORIG 16-BIT INS]
    1375                    $C$DW$123       .dwtag  DW_TAG_TI_branch
TI ARM Assembler PC v5.1.7 Tue Sep 16 08:38:40 2014

Tools Copyright (c) 1996-2014 Texas Instruments Incorporated
queue.asm                                                            PAGE   26

    1376                            .dwattr $C$DW$123, DW_AT_low_pc(0x00)
    1377                            .dwattr $C$DW$123, DW_AT_name("xTaskRemoveFromEventList")
    1378                            .dwattr $C$DW$123, DW_AT_TI_call
    1379 000002c8 FFFEF7FF!         BL        xTaskRemoveFromEventList ; [DPU_3_PIPE] |1254|  ; [KEEP 32-BIT INS]
    1380                            ; CALL OCCURS {xTaskRemoveFromEventList }  ; [] |1254| 
    1381 000002cc 2800              CMP       A1, #0                ; [DPU_3_PIPE] |1254|  ; [ORIG 16-BIT INS]
    1382 000002ce D1FF              BNE       ||$C$L28||            ; [DPU_3_PIPE] |1254|  ; [ORIG 16-BIT INS]
    1383                            ; BRANCHCC OCCURS {||$C$L28||}   ; [] |1254| 
    1384                    ;* --------------------------------------------------------------------------*
    1385                            .dwpsn  file "../Source/queue.c",line 1258,column 7,is_stmt,isa 1
    1386                            .dwpsn  file "../Source/queue.c",line 1263,column 6,is_stmt,isa 1
    1387                    ;* --------------------------------------------------------------------------*
    1388 000002d0           ||$C$L28||:    
    1389                            .dwpsn  file "../Source/queue.c",line 1270,column 5,is_stmt,isa 1
    1390                    $C$DW$124       .dwtag  DW_TAG_TI_branch
    1391                            .dwattr $C$DW$124, DW_AT_low_pc(0x00)
    1392                            .dwattr $C$DW$124, DW_AT_name("vPortExitCritical")
    1393                            .dwattr $C$DW$124, DW_AT_TI_call
    1394 000002d0 FFFEF7FF!         BL        vPortExitCritical     ; [DPU_3_PIPE] |1270|  ; [KEEP 32-BIT INS]
    1395                            ; CALL OCCURS {vPortExitCritical }  ; [] |1270| 
    1396                            .dwpsn  file "../Source/queue.c",line 1271,column 5,is_stmt,isa 1
    1397 000002d4 2001              MOVS      A1, #1                ; [DPU_3_PIPE] |1271|  ; [ORIG 16-BIT INS]
    1398 000002d6 E049              B         ||$C$L36||            ; [DPU_3_PIPE] |1271|  ; [ORIG 16-BIT INS]
    1399                            ; BRANCH OCCURS {||$C$L36||}     ; [] |1271| 
    1400                    ;* --------------------------------------------------------------------------*
    1401                    ;* --------------------------------------------------------------------------*
    1402 000002d8           ||$C$L29||:    
    1403                            .dwpsn  file "../Source/queue.c",line 1275,column 5,is_stmt,isa 1
    1404 000002d8 9802              LDR       A1, [SP, #8]          ; [DPU_3_PIPE] |1275|  ; [ORIG 16-BIT INS]
    1405 000002da B918              CBNZ      A1, ||$C$L30||        ; []  ; [ORIG 16-BIT INS]
    1406                            ; BRANCHCC OCCURS {||$C$L30||}   ; [] |1275| 
    1407                    ;* --------------------------------------------------------------------------*
    1408                            .dwpsn  file "../Source/queue.c",line 1279,column 6,is_stmt,isa 1
    1409                    $C$DW$125       .dwtag  DW_TAG_TI_branch
    1410                            .dwattr $C$DW$125, DW_AT_low_pc(0x00)
    1411                            .dwattr $C$DW$125, DW_AT_name("vPortExitCritical")
    1412                            .dwattr $C$DW$125, DW_AT_TI_call
    1413 000002dc FFFEF7FF!         BL        vPortExitCritical     ; [DPU_3_PIPE] |1279|  ; [KEEP 32-BIT INS]
    1414                            ; CALL OCCURS {vPortExitCritical }  ; [] |1279| 
    1415                            .dwpsn  file "../Source/queue.c",line 1281,column 6,is_stmt,isa 1
    1416 000002e0 2000              MOVS      A1, #0                ; [DPU_3_PIPE] |1281|  ; [ORIG 16-BIT INS]
    1417 000002e2 E043              B         ||$C$L36||            ; [DPU_3_PIPE] |1281|  ; [ORIG 16-BIT INS]
    1418                            ; BRANCH OCCURS {||$C$L36||}     ; [] |1281| 
    1419                    ;* --------------------------------------------------------------------------*
    1420                    ;* --------------------------------------------------------------------------*
    1421 000002e4           ||$C$L30||:    
    1422                            .dwpsn  file "../Source/queue.c",line 1283,column 10,is_stmt,isa 1
    1423 000002e4 9804              LDR       A1, [SP, #16]         ; [DPU_3_PIPE] |1283|  ; [ORIG 16-BIT INS]
    1424 000002e6 B920              CBNZ      A1, ||$C$L31||        ; []  ; [ORIG 16-BIT INS]
    1425                            ; BRANCHCC OCCURS {||$C$L31||}   ; [] |1283| 
    1426                    ;* --------------------------------------------------------------------------*
    1427                            .dwpsn  file "../Source/queue.c",line 1287,column 6,is_stmt,isa 1
    1428 000002e8 A806              ADD       A1, SP, #24           ; [DPU_3_PIPE] |1287|  ; [ORIG 16-BIT INS]
    1429                    $C$DW$126       .dwtag  DW_TAG_TI_branch
    1430                            .dwattr $C$DW$126, DW_AT_low_pc(0x00)
TI ARM Assembler PC v5.1.7 Tue Sep 16 08:38:40 2014

Tools Copyright (c) 1996-2014 Texas Instruments Incorporated
queue.asm                                                            PAGE   27

    1431                            .dwattr $C$DW$126, DW_AT_name("vTaskSetTimeOutState")
    1432                            .dwattr $C$DW$126, DW_AT_TI_call
    1433 000002ea FFFEF7FF!         BL        vTaskSetTimeOutState  ; [DPU_3_PIPE] |1287|  ; [KEEP 32-BIT INS]
    1434                            ; CALL OCCURS {vTaskSetTimeOutState }  ; [] |1287| 
    1435                            .dwpsn  file "../Source/queue.c",line 1288,column 6,is_stmt,isa 1
    1436 000002ee 2001              MOVS      A1, #1                ; [DPU_3_PIPE] |1288|  ; [ORIG 16-BIT INS]
    1437 000002f0 9004              STR       A1, [SP, #16]         ; [DPU_3_PIPE] |1288|  ; [ORIG 16-BIT INS]
    1438                            .dwpsn  file "../Source/queue.c",line 1289,column 5,is_stmt,isa 1
    1439                    ;* --------------------------------------------------------------------------*
    1440 000002f2           ||$C$L31||:    
    1441                            .dwpsn  file "../Source/queue.c",line 1297,column 3,is_stmt,isa 1
    1442                    $C$DW$127       .dwtag  DW_TAG_TI_branch
    1443                            .dwattr $C$DW$127, DW_AT_low_pc(0x00)
    1444                            .dwattr $C$DW$127, DW_AT_name("vPortExitCritical")
    1445                            .dwattr $C$DW$127, DW_AT_TI_call
    1446 000002f2 FFFEF7FF!         BL        vPortExitCritical     ; [DPU_3_PIPE] |1297|  ; [KEEP 32-BIT INS]
    1447                            ; CALL OCCURS {vPortExitCritical }  ; [] |1297| 
    1448                            .dwpsn  file "../Source/queue.c",line 1302,column 3,is_stmt,isa 1
    1449                    $C$DW$128       .dwtag  DW_TAG_TI_branch
    1450                            .dwattr $C$DW$128, DW_AT_low_pc(0x00)
    1451                            .dwattr $C$DW$128, DW_AT_name("vTaskSuspendAll")
    1452                            .dwattr $C$DW$128, DW_AT_TI_call
    1453 000002f6 FFFEF7FF!         BL        vTaskSuspendAll       ; [DPU_3_PIPE] |1302|  ; [KEEP 32-BIT INS]
    1454                            ; CALL OCCURS {vTaskSuspendAll }  ; [] |1302| 
    1455                            .dwpsn  file "../Source/queue.c",line 1303,column 3,is_stmt,isa 1
    1456                    $C$DW$129       .dwtag  DW_TAG_TI_branch
    1457                            .dwattr $C$DW$129, DW_AT_low_pc(0x00)
    1458                            .dwattr $C$DW$129, DW_AT_name("vPortEnterCritical")
    1459                            .dwattr $C$DW$129, DW_AT_TI_call
    1460 000002fa FFFEF7FF!         BL        vPortEnterCritical    ; [DPU_3_PIPE] |1303|  ; [KEEP 32-BIT INS]
    1461                            ; CALL OCCURS {vPortEnterCritical }  ; [] |1303| 
    1462 000002fe 9809              LDR       A1, [SP, #36]         ; [DPU_3_PIPE] |1303|  ; [ORIG 16-BIT INS]
    1463 00000300 6C40              LDR       A1, [A1, #68]         ; [DPU_3_PIPE] |1303|  ; [ORIG 16-BIT INS]
    1464 00000302 3FFFF1B0          CMP       A1, #-1               ; [DPU_3_PIPE] |1303|  ; [KEEP 32-BIT INS]
    1465 00000306 D102              BNE       ||$C$L32||            ; [DPU_3_PIPE] |1303|  ; [ORIG 16-BIT INS]
    1466                            ; BRANCHCC OCCURS {||$C$L32||}   ; [] |1303| 
    1467                    ;* --------------------------------------------------------------------------*
    1468 00000308 9809              LDR       A1, [SP, #36]         ; [DPU_3_PIPE] |1303|  ; [ORIG 16-BIT INS]
    1469 0000030a 2100              MOVS      A2, #0                ; [DPU_3_PIPE] |1303|  ; [ORIG 16-BIT INS]
    1470 0000030c 6441              STR       A2, [A1, #68]         ; [DPU_3_PIPE] |1303|  ; [ORIG 16-BIT INS]
    1471                    ;* --------------------------------------------------------------------------*
    1472 0000030e           ||$C$L32||:    
    1473 0000030e 9809              LDR       A1, [SP, #36]         ; [DPU_3_PIPE] |1303|  ; [ORIG 16-BIT INS]
    1474 00000310 6C80              LDR       A1, [A1, #72]         ; [DPU_3_PIPE] |1303|  ; [ORIG 16-BIT INS]
    1475 00000312 3FFFF1B0          CMP       A1, #-1               ; [DPU_3_PIPE] |1303|  ; [KEEP 32-BIT INS]
    1476 00000316 D102              BNE       ||$C$L33||            ; [DPU_3_PIPE] |1303|  ; [ORIG 16-BIT INS]
    1477                            ; BRANCHCC OCCURS {||$C$L33||}   ; [] |1303| 
    1478                    ;* --------------------------------------------------------------------------*
    1479 00000318 9809              LDR       A1, [SP, #36]         ; [DPU_3_PIPE] |1303|  ; [ORIG 16-BIT INS]
    1480 0000031a 2100              MOVS      A2, #0                ; [DPU_3_PIPE] |1303|  ; [ORIG 16-BIT INS]
    1481 0000031c 6481              STR       A2, [A1, #72]         ; [DPU_3_PIPE] |1303|  ; [ORIG 16-BIT INS]
    1482                    ;* --------------------------------------------------------------------------*
    1483                    ||$C$L33||:    
    1484                    $C$DW$130       .dwtag  DW_TAG_TI_branch
    1485                            .dwattr $C$DW$130, DW_AT_low_pc(0x00)
TI ARM Assembler PC v5.1.7 Tue Sep 16 08:38:40 2014

Tools Copyright (c) 1996-2014 Texas Instruments Incorporated
queue.asm                                                            PAGE   28

    1486                            .dwattr $C$DW$130, DW_AT_name("vPortExitCritical")
    1487                            .dwattr $C$DW$130, DW_AT_TI_call
    1488 0000031e FFFEF7FF!         BL        vPortExitCritical     ; [DPU_3_PIPE] |1303|  ; [KEEP 32-BIT INS]
    1489                            ; CALL OCCURS {vPortExitCritical }  ; [] |1303| 
    1490                            .dwpsn  file "../Source/queue.c",line 1306,column 3,is_stmt,isa 1
    1491 00000322 A806              ADD       A1, SP, #24           ; [DPU_3_PIPE] |1306|  ; [ORIG 16-BIT INS]
    1492 00000324 A902              ADD       A2, SP, #8            ; [DPU_3_PIPE] |1306|  ; [ORIG 16-BIT INS]
    1493                    $C$DW$131       .dwtag  DW_TAG_TI_branch
    1494                            .dwattr $C$DW$131, DW_AT_low_pc(0x00)
    1495                            .dwattr $C$DW$131, DW_AT_name("xTaskCheckForTimeOut")
    1496                            .dwattr $C$DW$131, DW_AT_TI_call
    1497 00000326 FFFEF7FF!         BL        xTaskCheckForTimeOut  ; [DPU_3_PIPE] |1306|  ; [KEEP 32-BIT INS]
    1498                            ; CALL OCCURS {xTaskCheckForTimeOut }  ; [] |1306| 
    1499 0000032a B9C0              CBNZ      A1, ||$C$L35||        ; []  ; [ORIG 16-BIT INS]
    1500                            ; BRANCHCC OCCURS {||$C$L35||}   ; [] |1306| 
    1501                    ;* --------------------------------------------------------------------------*
    1502                            .dwpsn  file "../Source/queue.c",line 1308,column 4,is_stmt,isa 1
    1503 0000032c 9809              LDR       A1, [SP, #36]         ; [DPU_3_PIPE] |1308|  ; [ORIG 16-BIT INS]
    1504                    $C$DW$132       .dwtag  DW_TAG_TI_branch
    1505                            .dwattr $C$DW$132, DW_AT_low_pc(0x00)
    1506                            .dwattr $C$DW$132, DW_AT_name("prvIsQueueEmpty")
    1507                            .dwattr $C$DW$132, DW_AT_TI_call
    1508 0000032e F95CF000          BL        prvIsQueueEmpty       ; [DPU_3_PIPE] |1308|  ; [KEEP 32-BIT INS]
    1509                            ; CALL OCCURS {prvIsQueueEmpty }  ; [] |1308| 
    1510 00000332 B170              CBZ       A1, ||$C$L34||        ; []  ; [ORIG 16-BIT INS]
    1511                            ; BRANCHCC OCCURS {||$C$L34||}   ; [] |1308| 
    1512                    ;* --------------------------------------------------------------------------*
    1513                            .dwpsn  file "../Source/queue.c",line 1329,column 5,is_stmt,isa 1
    1514 00000334 9809              LDR       A1, [SP, #36]         ; [DPU_3_PIPE] |1329|  ; [ORIG 16-BIT INS]
    1515 00000336 9902              LDR       A2, [SP, #8]          ; [DPU_3_PIPE] |1329|  ; [ORIG 16-BIT INS]
    1516 00000338 3024              ADDS      A1, A1, #36           ; [DPU_3_PIPE] |1329|  ; [ORIG 16-BIT INS]
    1517                    $C$DW$133       .dwtag  DW_TAG_TI_branch
    1518                            .dwattr $C$DW$133, DW_AT_low_pc(0x00)
    1519                            .dwattr $C$DW$133, DW_AT_name("vTaskPlaceOnEventList")
    1520                            .dwattr $C$DW$133, DW_AT_TI_call
    1521 0000033a FFFEF7FF!         BL        vTaskPlaceOnEventList ; [DPU_3_PIPE] |1329|  ; [KEEP 32-BIT INS]
    1522                            ; CALL OCCURS {vTaskPlaceOnEventList }  ; [] |1329| 
    1523                            .dwpsn  file "../Source/queue.c",line 1330,column 5,is_stmt,isa 1
    1524 0000033e 9809              LDR       A1, [SP, #36]         ; [DPU_3_PIPE] |1330|  ; [ORIG 16-BIT INS]
    1525                    $C$DW$134       .dwtag  DW_TAG_TI_branch
    1526                            .dwattr $C$DW$134, DW_AT_low_pc(0x00)
    1527                            .dwattr $C$DW$134, DW_AT_name("prvUnlockQueue")
    1528                            .dwattr $C$DW$134, DW_AT_TI_call
    1529 00000340 F912F000          BL        prvUnlockQueue        ; [DPU_3_PIPE] |1330|  ; [KEEP 32-BIT INS]
    1530                            ; CALL OCCURS {prvUnlockQueue }  ; [] |1330| 
    1531                            .dwpsn  file "../Source/queue.c",line 1331,column 5,is_stmt,isa 1
    1532                    $C$DW$135       .dwtag  DW_TAG_TI_branch
    1533                            .dwattr $C$DW$135, DW_AT_low_pc(0x00)
    1534                            .dwattr $C$DW$135, DW_AT_name("xTaskResumeAll")
    1535                            .dwattr $C$DW$135, DW_AT_TI_call
    1536 00000344 FFFEF7FF!         BL        xTaskResumeAll        ; [DPU_3_PIPE] |1331|  ; [KEEP 32-BIT INS]
    1537                            ; CALL OCCURS {xTaskResumeAll }  ; [] |1331| 
    1538 00000348 2800              CMP       A1, #0                ; [DPU_3_PIPE] |1331|  ; [ORIG 16-BIT INS]
    1539 0000034a D192              BNE       ||$C$L24||            ; [DPU_3_PIPE] |1331|  ; [ORIG 16-BIT INS]
    1540                            ; BRANCHCC OCCURS {||$C$L24||}   ; [] |1331| 
TI ARM Assembler PC v5.1.7 Tue Sep 16 08:38:40 2014

Tools Copyright (c) 1996-2014 Texas Instruments Incorporated
queue.asm                                                            PAGE   29

    1541                    ;* --------------------------------------------------------------------------*
    1542                            .dwpsn  file "../Source/queue.c",line 1333,column 6,is_stmt,isa 1
    1543                    $C$DW$136       .dwtag  DW_TAG_TI_branch
    1544                            .dwattr $C$DW$136, DW_AT_low_pc(0x00)
    1545                            .dwattr $C$DW$136, DW_AT_name("vPortYieldFromISR")
    1546                            .dwattr $C$DW$136, DW_AT_TI_call
    1547 0000034c FFFEF7FF!         BL        vPortYieldFromISR     ; [DPU_3_PIPE] |1333|  ; [KEEP 32-BIT INS]
    1548                            ; CALL OCCURS {vPortYieldFromISR }  ; [] |1333| 
    1549                            .dwpsn  file "../Source/queue.c",line 1334,column 5,is_stmt,isa 1
    1550 00000350 E78F              B         ||$C$L24||            ; [DPU_3_PIPE] |1334|  ; [ORIG 16-BIT INS]
    1551                            ; BRANCH OCCURS {||$C$L24||}     ; [] |1334| 
    1552                    ;* --------------------------------------------------------------------------*
    1553                    ;* --------------------------------------------------------------------------*
    1554 00000352           ||$C$L34||:    
    1555                            .dwpsn  file "../Source/queue.c",line 1343,column 5,is_stmt,isa 1
    1556 00000352 9809              LDR       A1, [SP, #36]         ; [DPU_3_PIPE] |1343|  ; [ORIG 16-BIT INS]
    1557                    $C$DW$137       .dwtag  DW_TAG_TI_branch
    1558                            .dwattr $C$DW$137, DW_AT_low_pc(0x00)
    1559                            .dwattr $C$DW$137, DW_AT_name("prvUnlockQueue")
    1560                            .dwattr $C$DW$137, DW_AT_TI_call
    1561 00000354 F908F000          BL        prvUnlockQueue        ; [DPU_3_PIPE] |1343|  ; [KEEP 32-BIT INS]
    1562                            ; CALL OCCURS {prvUnlockQueue }  ; [] |1343| 
    1563                            .dwpsn  file "../Source/queue.c",line 1344,column 5,is_stmt,isa 1
    1564                    $C$DW$138       .dwtag  DW_TAG_TI_branch
    1565                            .dwattr $C$DW$138, DW_AT_low_pc(0x00)
    1566                            .dwattr $C$DW$138, DW_AT_name("xTaskResumeAll")
    1567                            .dwattr $C$DW$138, DW_AT_TI_call
    1568 00000358 FFFEF7FF!         BL        xTaskResumeAll        ; [DPU_3_PIPE] |1344|  ; [KEEP 32-BIT INS]
    1569                            ; CALL OCCURS {xTaskResumeAll }  ; [] |1344| 
    1570                            .dwpsn  file "../Source/queue.c",line 1346,column 3,is_stmt,isa 1
    1571 0000035c E789              B         ||$C$L24||            ; [DPU_3_PIPE] |1346|  ; [ORIG 16-BIT INS]
    1572                            ; BRANCH OCCURS {||$C$L24||}     ; [] |1346| 
    1573                    ;* --------------------------------------------------------------------------*
    1574 0000035e           ||$C$L35||:    
    1575                            .dwpsn  file "../Source/queue.c",line 1349,column 4,is_stmt,isa 1
    1576 0000035e 9809              LDR       A1, [SP, #36]         ; [DPU_3_PIPE] |1349|  ; [ORIG 16-BIT INS]
    1577                    $C$DW$139       .dwtag  DW_TAG_TI_branch
    1578                            .dwattr $C$DW$139, DW_AT_low_pc(0x00)
    1579                            .dwattr $C$DW$139, DW_AT_name("prvUnlockQueue")
    1580                            .dwattr $C$DW$139, DW_AT_TI_call
    1581 00000360 F902F000          BL        prvUnlockQueue        ; [DPU_3_PIPE] |1349|  ; [KEEP 32-BIT INS]
    1582                            ; CALL OCCURS {prvUnlockQueue }  ; [] |1349| 
    1583                            .dwpsn  file "../Source/queue.c",line 1350,column 4,is_stmt,isa 1
    1584                    $C$DW$140       .dwtag  DW_TAG_TI_branch
    1585                            .dwattr $C$DW$140, DW_AT_low_pc(0x00)
    1586                            .dwattr $C$DW$140, DW_AT_name("xTaskResumeAll")
    1587                            .dwattr $C$DW$140, DW_AT_TI_call
    1588 00000364 FFFEF7FF!         BL        xTaskResumeAll        ; [DPU_3_PIPE] |1350|  ; [KEEP 32-BIT INS]
    1589                            ; CALL OCCURS {xTaskResumeAll }  ; [] |1350| 
    1590                            .dwpsn  file "../Source/queue.c",line 1352,column 4,is_stmt,isa 1
    1591 00000368 2000              MOVS      A1, #0                ; [DPU_3_PIPE] |1352|  ; [ORIG 16-BIT INS]
    1592 0000036a E7FF              B         ||$C$L36||            ; [DPU_3_PIPE] |1352|  ; [ORIG 16-BIT INS]
    1593                            ; BRANCH OCCURS {||$C$L36||}     ; [] |1352| 
    1594                    ;* --------------------------------------------------------------------------*
    1595                    ;* --------------------------------------------------------------------------*
TI ARM Assembler PC v5.1.7 Tue Sep 16 08:38:40 2014

Tools Copyright (c) 1996-2014 Texas Instruments Incorporated
queue.asm                                                            PAGE   30

    1596 0000036c           ||$C$L36||:    
    1597                            .dwpsn  file "../Source/queue.c",line 1355,column 1,is_stmt,isa 1
    1598 0000036c B00B              ADD       SP, SP, #44           ; [DPU_3_PIPE]  ; [ORIG 16-BIT INS]
    1599                            .dwcfi  cfa_offset, 4
    1600                    $C$DW$141       .dwtag  DW_TAG_TI_branch
    1601                            .dwattr $C$DW$141, DW_AT_low_pc(0x00)
    1602                            .dwattr $C$DW$141, DW_AT_TI_return
    1603 0000036e BD00              POP       {PC}                  ; [DPU_3_PIPE]  ; [ORIG 16-BIT INS]
    1604                            .dwcfi  cfa_offset, 0
    1605                            ; BRANCH OCCURS                  ; [] 
    1606                            .dwattr $C$DW$107, DW_AT_TI_end_file("../Source/queue.c")
    1607                            .dwattr $C$DW$107, DW_AT_TI_end_line(0x54b)
    1608                            .dwattr $C$DW$107, DW_AT_TI_end_column(0x01)
    1609                            .dwendentry
    1610                            .dwendtag $C$DW$107
    1611                    
    1612 00000370                   .sect   ".text"
    1613                            .clink
    1614                            .thumbfunc xQueueReceiveFromISR
    1615 00000370                   .thumb
    1616                            .global xQueueReceiveFromISR
    1617                    
    1618                    $C$DW$142       .dwtag  DW_TAG_subprogram, DW_AT_name("xQueueReceiveFromISR")
    1619                            .dwattr $C$DW$142, DW_AT_low_pc(xQueueReceiveFromISR)
    1620                            .dwattr $C$DW$142, DW_AT_high_pc(0x00)
    1621                            .dwattr $C$DW$142, DW_AT_TI_symbol_name("xQueueReceiveFromISR")
    1622                            .dwattr $C$DW$142, DW_AT_external
    1623                            .dwattr $C$DW$142, DW_AT_type(*$C$DW$T$30)
    1624                            .dwattr $C$DW$142, DW_AT_TI_begin_file("../Source/queue.c")
    1625                            .dwattr $C$DW$142, DW_AT_TI_begin_line(0x54e)
    1626                            .dwattr $C$DW$142, DW_AT_TI_begin_column(0x0c)
    1627                            .dwattr $C$DW$142, DW_AT_decl_file("../Source/queue.c")
    1628                            .dwattr $C$DW$142, DW_AT_decl_line(0x54e)
    1629                            .dwattr $C$DW$142, DW_AT_decl_column(0x0c)
    1630                            .dwattr $C$DW$142, DW_AT_TI_max_frame_size(0x20)
    1631                            .dwpsn  file "../Source/queue.c",line 1359,column 1,is_stmt,address xQueueReceiveFromISR,isa 1
    1632                    
    1633                            .dwfde $C$DW$CIE, xQueueReceiveFromISR
    1634                    $C$DW$143       .dwtag  DW_TAG_formal_parameter, DW_AT_name("xQueue")
    1635                            .dwattr $C$DW$143, DW_AT_TI_symbol_name("xQueue")
    1636                            .dwattr $C$DW$143, DW_AT_type(*$C$DW$T$72)
    1637                            .dwattr $C$DW$143, DW_AT_location[DW_OP_reg0]
    1638                    $C$DW$144       .dwtag  DW_TAG_formal_parameter, DW_AT_name("pvBuffer")
    1639                            .dwattr $C$DW$144, DW_AT_TI_symbol_name("pvBuffer")
    1640                            .dwattr $C$DW$144, DW_AT_type(*$C$DW$T$86)
    1641                            .dwattr $C$DW$144, DW_AT_location[DW_OP_reg1]
    1642                    $C$DW$145       .dwtag  DW_TAG_formal_parameter, DW_AT_name("pxHigherPriorityTaskWoken")
    1643                            .dwattr $C$DW$145, DW_AT_TI_symbol_name("pxHigherPriorityTaskWoken")
    1644                            .dwattr $C$DW$145, DW_AT_type(*$C$DW$T$142)
    1645                            .dwattr $C$DW$145, DW_AT_location[DW_OP_reg2]
    1646                    
    1647                    ;*****************************************************************************
    1648                    ;* FUNCTION NAME: xQueueReceiveFromISR                                       *
    1649                    ;*                                                                           *
    1650                    ;*   Regs Modified     : A1,A2,A3,A4,V9,SP,LR,SR,D0,D0_hi,D1,D1_hi,D2,D2_hi, *
TI ARM Assembler PC v5.1.7 Tue Sep 16 08:38:40 2014

Tools Copyright (c) 1996-2014 Texas Instruments Incorporated
queue.asm                                                            PAGE   31

    1651                    ;*                           D3,D3_hi,D4,D4_hi,D5,D5_hi,D6,D6_hi,D7,D7_hi,   *
    1652                    ;*                           FPEXC,FPSCR                                     *
    1653                    ;*   Regs Used         : A1,A2,A3,A4,V9,SP,LR,SR,D0,D0_hi,D1,D1_hi,D2,D2_hi, *
    1654                    ;*                           D3,D3_hi,D4,D4_hi,D5,D5_hi,D6,D6_hi,D7,D7_hi,   *
    1655                    ;*                           FPEXC,FPSCR                                     *
    1656                    ;*   Local Frame Size  : 0 Args + 24 Auto + 4 Save = 28 byte                 *
    1657                    ;*****************************************************************************
    1658 00000370           xQueueReceiveFromISR:
    1659                    ;* --------------------------------------------------------------------------*
    1660                            .dwcfi  cfa_offset, 0
    1661 00000370 B500              PUSH      {LR}                  ; [DPU_3_PIPE]  ; [ORIG 16-BIT INS]
    1662                            .dwcfi  cfa_offset, 4
    1663                            .dwcfi  save_reg_to_mem, 14, -4
    1664 00000372 0D1CF1AD          SUB       SP, SP, #28           ; [DPU_3_PIPE]  ; [KEEP 32-BIT INS]
    1665                            .dwcfi  cfa_offset, 32
    1666                    $C$DW$146       .dwtag  DW_TAG_variable, DW_AT_name("xQueue")
    1667                            .dwattr $C$DW$146, DW_AT_TI_symbol_name("xQueue")
    1668                            .dwattr $C$DW$146, DW_AT_type(*$C$DW$T$72)
    1669                            .dwattr $C$DW$146, DW_AT_location[DW_OP_breg13 0]
    1670                    $C$DW$147       .dwtag  DW_TAG_variable, DW_AT_name("pvBuffer")
    1671                            .dwattr $C$DW$147, DW_AT_TI_symbol_name("pvBuffer")
    1672                            .dwattr $C$DW$147, DW_AT_type(*$C$DW$T$86)
    1673                            .dwattr $C$DW$147, DW_AT_location[DW_OP_breg13 4]
    1674                    $C$DW$148       .dwtag  DW_TAG_variable, DW_AT_name("pxHigherPriorityTaskWoken")
    1675                            .dwattr $C$DW$148, DW_AT_TI_symbol_name("pxHigherPriorityTaskWoken")
    1676                            .dwattr $C$DW$148, DW_AT_type(*$C$DW$T$142)
    1677                            .dwattr $C$DW$148, DW_AT_location[DW_OP_breg13 8]
    1678                    $C$DW$149       .dwtag  DW_TAG_variable, DW_AT_name("xReturn")
    1679                            .dwattr $C$DW$149, DW_AT_TI_symbol_name("xReturn")
    1680                            .dwattr $C$DW$149, DW_AT_type(*$C$DW$T$30)
    1681                            .dwattr $C$DW$149, DW_AT_location[DW_OP_breg13 12]
    1682                    $C$DW$150       .dwtag  DW_TAG_variable, DW_AT_name("uxSavedInterruptStatus")
    1683                            .dwattr $C$DW$150, DW_AT_TI_symbol_name("uxSavedInterruptStatus")
    1684                            .dwattr $C$DW$150, DW_AT_type(*$C$DW$T$25)
    1685                            .dwattr $C$DW$150, DW_AT_location[DW_OP_breg13 16]
    1686                    $C$DW$151       .dwtag  DW_TAG_variable, DW_AT_name("pxQueue")
    1687                            .dwattr $C$DW$151, DW_AT_TI_symbol_name("pxQueue")
    1688                            .dwattr $C$DW$151, DW_AT_type(*$C$DW$T$71)
    1689                            .dwattr $C$DW$151, DW_AT_location[DW_OP_breg13 20]
    1690 00000376 9202              STR       A3, [SP, #8]          ; [DPU_3_PIPE] |1359|  ; [ORIG 16-BIT INS]
    1691 00000378 9101              STR       A2, [SP, #4]          ; [DPU_3_PIPE] |1359|  ; [ORIG 16-BIT INS]
    1692 0000037a 9000              STR       A1, [SP, #0]          ; [DPU_3_PIPE] |1359|  ; [ORIG 16-BIT INS]
    1693                            .dwpsn  file "../Source/queue.c",line 1362,column 25,is_stmt,isa 1
    1694 0000037c 9800              LDR       A1, [SP, #0]          ; [DPU_3_PIPE] |1362|  ; [ORIG 16-BIT INS]
    1695 0000037e 9005              STR       A1, [SP, #20]         ; [DPU_3_PIPE] |1362|  ; [ORIG 16-BIT INS]
    1696                            .dwpsn  file "../Source/queue.c",line 1383,column 2,is_stmt,isa 1
    1697                    $C$DW$152       .dwtag  DW_TAG_TI_branch
    1698                            .dwattr $C$DW$152, DW_AT_low_pc(0x00)
    1699                            .dwattr $C$DW$152, DW_AT_name("ulPortSetInterruptMask")
    1700                            .dwattr $C$DW$152, DW_AT_TI_call
    1701 00000380 FFFEF7FF!         BL        ulPortSetInterruptMask ; [DPU_3_PIPE] |1383|  ; [KEEP 32-BIT INS]
    1702                            ; CALL OCCURS {ulPortSetInterruptMask }  ; [] |1383| 
    1703 00000384 9004              STR       A1, [SP, #16]         ; [DPU_3_PIPE] |1383|  ; [ORIG 16-BIT INS]
    1704                            .dwpsn  file "../Source/queue.c",line 1386,column 3,is_stmt,isa 1
    1705 00000386 9805              LDR       A1, [SP, #20]         ; [DPU_3_PIPE] |1386|  ; [ORIG 16-BIT INS]
TI ARM Assembler PC v5.1.7 Tue Sep 16 08:38:40 2014

Tools Copyright (c) 1996-2014 Texas Instruments Incorporated
queue.asm                                                            PAGE   32

    1706 00000388 6B80              LDR       A1, [A1, #56]         ; [DPU_3_PIPE] |1386|  ; [ORIG 16-BIT INS]
    1707 0000038a 2800              CMP       A1, #0                ; [DPU_3_PIPE] |1386|  ; [ORIG 16-BIT INS]
    1708 0000038c D024              BEQ       ||$C$L40||            ; [DPU_3_PIPE] |1386|  ; [ORIG 16-BIT INS]
    1709                            ; BRANCHCC OCCURS {||$C$L40||}   ; [] |1386| 
    1710                    ;* --------------------------------------------------------------------------*
    1711                            .dwpsn  file "../Source/queue.c",line 1390,column 4,is_stmt,isa 1
    1712 0000038e 9805              LDR       A1, [SP, #20]         ; [DPU_3_PIPE] |1390|  ; [ORIG 16-BIT INS]
    1713 00000390 9901              LDR       A2, [SP, #4]          ; [DPU_3_PIPE] |1390|  ; [ORIG 16-BIT INS]
    1714                    $C$DW$153       .dwtag  DW_TAG_TI_branch
    1715                            .dwattr $C$DW$153, DW_AT_low_pc(0x00)
    1716                            .dwattr $C$DW$153, DW_AT_name("prvCopyDataFromQueue")
    1717                            .dwattr $C$DW$153, DW_AT_TI_call
    1718 00000392 F8CAF000          BL        prvCopyDataFromQueue  ; [DPU_3_PIPE] |1390|  ; [KEEP 32-BIT INS]
    1719                            ; CALL OCCURS {prvCopyDataFromQueue }  ; [] |1390| 
    1720                            .dwpsn  file "../Source/queue.c",line 1391,column 4,is_stmt,isa 1
    1721 00000396 9905              LDR       A2, [SP, #20]         ; [DPU_3_PIPE] |1391|  ; [ORIG 16-BIT INS]
    1722 00000398 6B88              LDR       A1, [A2, #56]         ; [DPU_3_PIPE] |1391|  ; [ORIG 16-BIT INS]
    1723 0000039a 1E40              SUBS      A1, A1, #1            ; [DPU_3_PIPE] |1391|  ; [ORIG 16-BIT INS]
    1724 0000039c 6388              STR       A1, [A2, #56]         ; [DPU_3_PIPE] |1391|  ; [ORIG 16-BIT INS]
    1725                            .dwpsn  file "../Source/queue.c",line 1397,column 4,is_stmt,isa 1
    1726 0000039e 9805              LDR       A1, [SP, #20]         ; [DPU_3_PIPE] |1397|  ; [ORIG 16-BIT INS]
    1727 000003a0 6C40              LDR       A1, [A1, #68]         ; [DPU_3_PIPE] |1397|  ; [ORIG 16-BIT INS]
    1728 000003a2 3FFFF1B0          CMP       A1, #-1               ; [DPU_3_PIPE] |1397|  ; [KEEP 32-BIT INS]
    1729 000003a6 D110              BNE       ||$C$L38||            ; [DPU_3_PIPE] |1397|  ; [ORIG 16-BIT INS]
    1730                            ; BRANCHCC OCCURS {||$C$L38||}   ; [] |1397| 
    1731                    ;* --------------------------------------------------------------------------*
    1732                            .dwpsn  file "../Source/queue.c",line 1399,column 5,is_stmt,isa 1
    1733 000003a8 9805              LDR       A1, [SP, #20]         ; [DPU_3_PIPE] |1399|  ; [ORIG 16-BIT INS]
    1734 000003aa 6901              LDR       A2, [A1, #16]         ; [DPU_3_PIPE] |1399|  ; [ORIG 16-BIT INS]
    1735 000003ac 2000              MOVS      A1, #0                ; [DPU_3_PIPE] |1399|  ; [ORIG 16-BIT INS]
    1736 000003ae B901              CBNZ      A2, ||$C$L37||        ; []  ; [ORIG 16-BIT INS]
    1737                            ; BRANCHCC OCCURS {||$C$L37||}   ; [] |1399| 
    1738                    ;* --------------------------------------------------------------------------*
    1739 000003b0 2001              MOVS      A1, #1                ; [DPU_3_PIPE] |1399|  ; [ORIG 16-BIT INS]
    1740                    ;* --------------------------------------------------------------------------*
    1741 000003b2           ||$C$L37||:    
    1742 000003b2 B970              CBNZ      A1, ||$C$L39||        ; []  ; [ORIG 16-BIT INS]
    1743                            ; BRANCHCC OCCURS {||$C$L39||}   ; [] |1399| 
    1744                    ;* --------------------------------------------------------------------------*
    1745                            .dwpsn  file "../Source/queue.c",line 1401,column 6,is_stmt,isa 1
    1746 000003b4 9805              LDR       A1, [SP, #20]         ; [DPU_3_PIPE] |1401|  ; [ORIG 16-BIT INS]
    1747 000003b6 3010              ADDS      A1, A1, #16           ; [DPU_3_PIPE] |1401|  ; [ORIG 16-BIT INS]
    1748                    $C$DW$154       .dwtag  DW_TAG_TI_branch
    1749                            .dwattr $C$DW$154, DW_AT_low_pc(0x00)
    1750                            .dwattr $C$DW$154, DW_AT_name("xTaskRemoveFromEventList")
    1751                            .dwattr $C$DW$154, DW_AT_TI_call
    1752 000003b8 FFFEF7FF!         BL        xTaskRemoveFromEventList ; [DPU_3_PIPE] |1401|  ; [KEEP 32-BIT INS]
    1753                            ; CALL OCCURS {xTaskRemoveFromEventList }  ; [] |1401| 
    1754 000003bc B148              CBZ       A1, ||$C$L39||        ; []  ; [ORIG 16-BIT INS]
    1755                            ; BRANCHCC OCCURS {||$C$L39||}   ; [] |1401| 
    1756                    ;* --------------------------------------------------------------------------*
    1757                            .dwpsn  file "../Source/queue.c",line 1405,column 7,is_stmt,isa 1
    1758 000003be 9802              LDR       A1, [SP, #8]          ; [DPU_3_PIPE] |1405|  ; [ORIG 16-BIT INS]
    1759 000003c0 B138              CBZ       A1, ||$C$L39||        ; []  ; [ORIG 16-BIT INS]
    1760                            ; BRANCHCC OCCURS {||$C$L39||}   ; [] |1405| 
TI ARM Assembler PC v5.1.7 Tue Sep 16 08:38:40 2014

Tools Copyright (c) 1996-2014 Texas Instruments Incorporated
queue.asm                                                            PAGE   33

    1761                    ;* --------------------------------------------------------------------------*
    1762                            .dwpsn  file "../Source/queue.c",line 1407,column 8,is_stmt,isa 1
    1763 000003c2 9802              LDR       A1, [SP, #8]          ; [DPU_3_PIPE] |1407|  ; [ORIG 16-BIT INS]
    1764 000003c4 2101              MOVS      A2, #1                ; [DPU_3_PIPE] |1407|  ; [ORIG 16-BIT INS]
    1765 000003c6 6001              STR       A2, [A1, #0]          ; [DPU_3_PIPE] |1407|  ; [ORIG 16-BIT INS]
    1766                            .dwpsn  file "../Source/queue.c",line 1408,column 7,is_stmt,isa 1
    1767 000003c8 E003              B         ||$C$L39||            ; [DPU_3_PIPE] |1408|  ; [ORIG 16-BIT INS]
    1768                            ; BRANCH OCCURS {||$C$L39||}     ; [] |1408| 
    1769                    ;* --------------------------------------------------------------------------*
    1770                    ;* --------------------------------------------------------------------------*
    1771 000003ca           ||$C$L38||:    
    1772                            .dwpsn  file "../Source/queue.c",line 1428,column 5,is_stmt,isa 1
    1773 000003ca 9905              LDR       A2, [SP, #20]         ; [DPU_3_PIPE] |1428|  ; [ORIG 16-BIT INS]
    1774 000003cc 6C48              LDR       A1, [A2, #68]         ; [DPU_3_PIPE] |1428|  ; [ORIG 16-BIT INS]
    1775 000003ce 1C40              ADDS      A1, A1, #1            ; [DPU_3_PIPE] |1428|  ; [ORIG 16-BIT INS]
    1776 000003d0 6448              STR       A1, [A2, #68]         ; [DPU_3_PIPE] |1428|  ; [ORIG 16-BIT INS]
    1777                    ;* --------------------------------------------------------------------------*
    1778 000003d2           ||$C$L39||:    
    1779                            .dwpsn  file "../Source/queue.c",line 1431,column 4,is_stmt,isa 1
    1780 000003d2 2001              MOVS      A1, #1                ; [DPU_3_PIPE] |1431|  ; [ORIG 16-BIT INS]
    1781 000003d4 9003              STR       A1, [SP, #12]         ; [DPU_3_PIPE] |1431|  ; [ORIG 16-BIT INS]
    1782                            .dwpsn  file "../Source/queue.c",line 1432,column 3,is_stmt,isa 1
    1783 000003d6 E001              B         ||$C$L41||            ; [DPU_3_PIPE] |1432|  ; [ORIG 16-BIT INS]
    1784                            ; BRANCH OCCURS {||$C$L41||}     ; [] |1432| 
    1785                    ;* --------------------------------------------------------------------------*
    1786 000003d8           ||$C$L40||:    
    1787                            .dwpsn  file "../Source/queue.c",line 1435,column 4,is_stmt,isa 1
    1788 000003d8 2000              MOVS      A1, #0                ; [DPU_3_PIPE] |1435|  ; [ORIG 16-BIT INS]
    1789 000003da 9003              STR       A1, [SP, #12]         ; [DPU_3_PIPE] |1435|  ; [ORIG 16-BIT INS]
    1790                    ;* --------------------------------------------------------------------------*
    1791 000003dc           ||$C$L41||:    
    1792                            .dwpsn  file "../Source/queue.c",line 1439,column 2,is_stmt,isa 1
    1793 000003dc 9804              LDR       A1, [SP, #16]         ; [DPU_3_PIPE] |1439|  ; [ORIG 16-BIT INS]
    1794                    $C$DW$155       .dwtag  DW_TAG_TI_branch
    1795                            .dwattr $C$DW$155, DW_AT_low_pc(0x00)
    1796                            .dwattr $C$DW$155, DW_AT_name("vPortClearInterruptMask")
    1797                            .dwattr $C$DW$155, DW_AT_TI_call
    1798 000003de FFFEF7FF!         BL        vPortClearInterruptMask ; [DPU_3_PIPE] |1439|  ; [KEEP 32-BIT INS]
    1799                            ; CALL OCCURS {vPortClearInterruptMask }  ; [] |1439| 
    1800                            .dwpsn  file "../Source/queue.c",line 1441,column 2,is_stmt,isa 1
    1801 000003e2 9803              LDR       A1, [SP, #12]         ; [DPU_3_PIPE] |1441|  ; [ORIG 16-BIT INS]
    1802                            .dwpsn  file "../Source/queue.c",line 1442,column 1,is_stmt,isa 1
    1803 000003e4 B007              ADD       SP, SP, #28           ; [DPU_3_PIPE]  ; [ORIG 16-BIT INS]
    1804                            .dwcfi  cfa_offset, 4
    1805                    $C$DW$156       .dwtag  DW_TAG_TI_branch
    1806                            .dwattr $C$DW$156, DW_AT_low_pc(0x00)
    1807                            .dwattr $C$DW$156, DW_AT_TI_return
    1808 000003e6 BD00              POP       {PC}                  ; [DPU_3_PIPE]  ; [ORIG 16-BIT INS]
    1809                            .dwcfi  cfa_offset, 0
    1810                            ; BRANCH OCCURS                  ; [] 
    1811                            .dwattr $C$DW$142, DW_AT_TI_end_file("../Source/queue.c")
    1812                            .dwattr $C$DW$142, DW_AT_TI_end_line(0x5a2)
    1813                            .dwattr $C$DW$142, DW_AT_TI_end_column(0x01)
    1814                            .dwendentry
    1815                            .dwendtag $C$DW$142
TI ARM Assembler PC v5.1.7 Tue Sep 16 08:38:40 2014

Tools Copyright (c) 1996-2014 Texas Instruments Incorporated
queue.asm                                                            PAGE   34

    1816                    
    1817 000003e8                   .sect   ".text"
    1818                            .clink
    1819                            .thumbfunc xQueuePeekFromISR
    1820 000003e8                   .thumb
    1821                            .global xQueuePeekFromISR
    1822                    
    1823                    $C$DW$157       .dwtag  DW_TAG_subprogram, DW_AT_name("xQueuePeekFromISR")
    1824                            .dwattr $C$DW$157, DW_AT_low_pc(xQueuePeekFromISR)
    1825                            .dwattr $C$DW$157, DW_AT_high_pc(0x00)
    1826                            .dwattr $C$DW$157, DW_AT_TI_symbol_name("xQueuePeekFromISR")
    1827                            .dwattr $C$DW$157, DW_AT_external
    1828                            .dwattr $C$DW$157, DW_AT_type(*$C$DW$T$30)
    1829                            .dwattr $C$DW$157, DW_AT_TI_begin_file("../Source/queue.c")
    1830                            .dwattr $C$DW$157, DW_AT_TI_begin_line(0x5a5)
    1831                            .dwattr $C$DW$157, DW_AT_TI_begin_column(0x0c)
    1832                            .dwattr $C$DW$157, DW_AT_decl_file("../Source/queue.c")
    1833                            .dwattr $C$DW$157, DW_AT_decl_line(0x5a5)
    1834                            .dwattr $C$DW$157, DW_AT_decl_column(0x0c)
    1835                            .dwattr $C$DW$157, DW_AT_TI_max_frame_size(0x20)
    1836                            .dwpsn  file "../Source/queue.c",line 1446,column 1,is_stmt,address xQueuePeekFromISR,isa 1
    1837                    
    1838                            .dwfde $C$DW$CIE, xQueuePeekFromISR
    1839                    $C$DW$158       .dwtag  DW_TAG_formal_parameter, DW_AT_name("xQueue")
    1840                            .dwattr $C$DW$158, DW_AT_TI_symbol_name("xQueue")
    1841                            .dwattr $C$DW$158, DW_AT_type(*$C$DW$T$72)
    1842                            .dwattr $C$DW$158, DW_AT_location[DW_OP_reg0]
    1843                    $C$DW$159       .dwtag  DW_TAG_formal_parameter, DW_AT_name("pvBuffer")
    1844                            .dwattr $C$DW$159, DW_AT_TI_symbol_name("pvBuffer")
    1845                            .dwattr $C$DW$159, DW_AT_type(*$C$DW$T$86)
    1846                            .dwattr $C$DW$159, DW_AT_location[DW_OP_reg1]
    1847                    
    1848                    ;*****************************************************************************
    1849                    ;* FUNCTION NAME: xQueuePeekFromISR                                          *
    1850                    ;*                                                                           *
    1851                    ;*   Regs Modified     : A1,A2,A3,A4,V9,SP,LR,SR,D0,D0_hi,D1,D1_hi,D2,D2_hi, *
    1852                    ;*                           D3,D3_hi,D4,D4_hi,D5,D5_hi,D6,D6_hi,D7,D7_hi,   *
    1853                    ;*                           FPEXC,FPSCR                                     *
    1854                    ;*   Regs Used         : A1,A2,A3,A4,V9,SP,LR,SR,D0,D0_hi,D1,D1_hi,D2,D2_hi, *
    1855                    ;*                           D3,D3_hi,D4,D4_hi,D5,D5_hi,D6,D6_hi,D7,D7_hi,   *
    1856                    ;*                           FPEXC,FPSCR                                     *
    1857                    ;*   Local Frame Size  : 0 Args + 24 Auto + 4 Save = 28 byte                 *
    1858                    ;*****************************************************************************
    1859 000003e8           xQueuePeekFromISR:
    1860                    ;* --------------------------------------------------------------------------*
    1861                            .dwcfi  cfa_offset, 0
    1862 000003e8 B500              PUSH      {LR}                  ; [DPU_3_PIPE]  ; [ORIG 16-BIT INS]
    1863                            .dwcfi  cfa_offset, 4
    1864                            .dwcfi  save_reg_to_mem, 14, -4
    1865 000003ea 0D1CF1AD          SUB       SP, SP, #28           ; [DPU_3_PIPE]  ; [KEEP 32-BIT INS]
    1866                            .dwcfi  cfa_offset, 32
    1867                    $C$DW$160       .dwtag  DW_TAG_variable, DW_AT_name("xQueue")
    1868                            .dwattr $C$DW$160, DW_AT_TI_symbol_name("xQueue")
    1869                            .dwattr $C$DW$160, DW_AT_type(*$C$DW$T$72)
    1870                            .dwattr $C$DW$160, DW_AT_location[DW_OP_breg13 0]
TI ARM Assembler PC v5.1.7 Tue Sep 16 08:38:40 2014

Tools Copyright (c) 1996-2014 Texas Instruments Incorporated
queue.asm                                                            PAGE   35

    1871                    $C$DW$161       .dwtag  DW_TAG_variable, DW_AT_name("pvBuffer")
    1872                            .dwattr $C$DW$161, DW_AT_TI_symbol_name("pvBuffer")
    1873                            .dwattr $C$DW$161, DW_AT_type(*$C$DW$T$86)
    1874                            .dwattr $C$DW$161, DW_AT_location[DW_OP_breg13 4]
    1875                    $C$DW$162       .dwtag  DW_TAG_variable, DW_AT_name("xReturn")
    1876                            .dwattr $C$DW$162, DW_AT_TI_symbol_name("xReturn")
    1877                            .dwattr $C$DW$162, DW_AT_type(*$C$DW$T$30)
    1878                            .dwattr $C$DW$162, DW_AT_location[DW_OP_breg13 8]
    1879                    $C$DW$163       .dwtag  DW_TAG_variable, DW_AT_name("uxSavedInterruptStatus")
    1880                            .dwattr $C$DW$163, DW_AT_TI_symbol_name("uxSavedInterruptStatus")
    1881                            .dwattr $C$DW$163, DW_AT_type(*$C$DW$T$25)
    1882                            .dwattr $C$DW$163, DW_AT_location[DW_OP_breg13 12]
    1883                    $C$DW$164       .dwtag  DW_TAG_variable, DW_AT_name("pcOriginalReadPosition")
    1884                            .dwattr $C$DW$164, DW_AT_TI_symbol_name("pcOriginalReadPosition")
    1885                            .dwattr $C$DW$164, DW_AT_type(*$C$DW$T$23)
    1886                            .dwattr $C$DW$164, DW_AT_location[DW_OP_breg13 16]
    1887                    $C$DW$165       .dwtag  DW_TAG_variable, DW_AT_name("pxQueue")
    1888                            .dwattr $C$DW$165, DW_AT_TI_symbol_name("pxQueue")
    1889                            .dwattr $C$DW$165, DW_AT_type(*$C$DW$T$71)
    1890                            .dwattr $C$DW$165, DW_AT_location[DW_OP_breg13 20]
    1891 000003ee 9101              STR       A2, [SP, #4]          ; [DPU_3_PIPE] |1446|  ; [ORIG 16-BIT INS]
    1892 000003f0 9000              STR       A1, [SP, #0]          ; [DPU_3_PIPE] |1446|  ; [ORIG 16-BIT INS]
    1893                            .dwpsn  file "../Source/queue.c",line 1450,column 25,is_stmt,isa 1
    1894 000003f2 9800              LDR       A1, [SP, #0]          ; [DPU_3_PIPE] |1450|  ; [ORIG 16-BIT INS]
    1895 000003f4 9005              STR       A1, [SP, #20]         ; [DPU_3_PIPE] |1450|  ; [ORIG 16-BIT INS]
    1896                            .dwpsn  file "../Source/queue.c",line 1471,column 2,is_stmt,isa 1
    1897                    $C$DW$166       .dwtag  DW_TAG_TI_branch
    1898                            .dwattr $C$DW$166, DW_AT_low_pc(0x00)
    1899                            .dwattr $C$DW$166, DW_AT_name("ulPortSetInterruptMask")
    1900                            .dwattr $C$DW$166, DW_AT_TI_call
    1901 000003f6 FFFEF7FF!         BL        ulPortSetInterruptMask ; [DPU_3_PIPE] |1471|  ; [KEEP 32-BIT INS]
    1902                            ; CALL OCCURS {ulPortSetInterruptMask }  ; [] |1471| 
    1903 000003fa 9003              STR       A1, [SP, #12]         ; [DPU_3_PIPE] |1471|  ; [ORIG 16-BIT INS]
    1904                            .dwpsn  file "../Source/queue.c",line 1474,column 3,is_stmt,isa 1
    1905 000003fc 9805              LDR       A1, [SP, #20]         ; [DPU_3_PIPE] |1474|  ; [ORIG 16-BIT INS]
    1906 000003fe 6B80              LDR       A1, [A1, #56]         ; [DPU_3_PIPE] |1474|  ; [ORIG 16-BIT INS]
    1907 00000400 B160              CBZ       A1, ||$C$L42||        ; []  ; [ORIG 16-BIT INS]
    1908                            ; BRANCHCC OCCURS {||$C$L42||}   ; [] |1474| 
    1909                    ;* --------------------------------------------------------------------------*
    1910                            .dwpsn  file "../Source/queue.c",line 1480,column 4,is_stmt,isa 1
    1911 00000402 9805              LDR       A1, [SP, #20]         ; [DPU_3_PIPE] |1480|  ; [ORIG 16-BIT INS]
    1912 00000404 68C0              LDR       A1, [A1, #12]         ; [DPU_3_PIPE] |1480|  ; [ORIG 16-BIT INS]
    1913 00000406 9004              STR       A1, [SP, #16]         ; [DPU_3_PIPE] |1480|  ; [ORIG 16-BIT INS]
    1914                            .dwpsn  file "../Source/queue.c",line 1481,column 4,is_stmt,isa 1
    1915 00000408 9901              LDR       A2, [SP, #4]          ; [DPU_3_PIPE] |1481|  ; [ORIG 16-BIT INS]
    1916 0000040a 9805              LDR       A1, [SP, #20]         ; [DPU_3_PIPE] |1481|  ; [ORIG 16-BIT INS]
    1917                    $C$DW$167       .dwtag  DW_TAG_TI_branch
    1918                            .dwattr $C$DW$167, DW_AT_low_pc(0x00)
    1919                            .dwattr $C$DW$167, DW_AT_name("prvCopyDataFromQueue")
    1920                            .dwattr $C$DW$167, DW_AT_TI_call
    1921 0000040c F88DF000          BL        prvCopyDataFromQueue  ; [DPU_3_PIPE] |1481|  ; [KEEP 32-BIT INS]
    1922                            ; CALL OCCURS {prvCopyDataFromQueue }  ; [] |1481| 
    1923                            .dwpsn  file "../Source/queue.c",line 1482,column 4,is_stmt,isa 1
    1924 00000410 9804              LDR       A1, [SP, #16]         ; [DPU_3_PIPE] |1482|  ; [ORIG 16-BIT INS]
    1925 00000412 9905              LDR       A2, [SP, #20]         ; [DPU_3_PIPE] |1482|  ; [ORIG 16-BIT INS]
TI ARM Assembler PC v5.1.7 Tue Sep 16 08:38:40 2014

Tools Copyright (c) 1996-2014 Texas Instruments Incorporated
queue.asm                                                            PAGE   36

    1926 00000414 60C8              STR       A1, [A2, #12]         ; [DPU_3_PIPE] |1482|  ; [ORIG 16-BIT INS]
    1927                            .dwpsn  file "../Source/queue.c",line 1484,column 4,is_stmt,isa 1
    1928 00000416 2001              MOVS      A1, #1                ; [DPU_3_PIPE] |1484|  ; [ORIG 16-BIT INS]
    1929 00000418 9002              STR       A1, [SP, #8]          ; [DPU_3_PIPE] |1484|  ; [ORIG 16-BIT INS]
    1930                            .dwpsn  file "../Source/queue.c",line 1485,column 3,is_stmt,isa 1
    1931 0000041a E001              B         ||$C$L43||            ; [DPU_3_PIPE] |1485|  ; [ORIG 16-BIT INS]
    1932                            ; BRANCH OCCURS {||$C$L43||}     ; [] |1485| 
    1933                    ;* --------------------------------------------------------------------------*
    1934 0000041c           ||$C$L42||:    
    1935                            .dwpsn  file "../Source/queue.c",line 1488,column 4,is_stmt,isa 1
    1936 0000041c 2000              MOVS      A1, #0                ; [DPU_3_PIPE] |1488|  ; [ORIG 16-BIT INS]
    1937 0000041e 9002              STR       A1, [SP, #8]          ; [DPU_3_PIPE] |1488|  ; [ORIG 16-BIT INS]
    1938                    ;* --------------------------------------------------------------------------*
    1939 00000420           ||$C$L43||:    
    1940                            .dwpsn  file "../Source/queue.c",line 1492,column 2,is_stmt,isa 1
    1941 00000420 9803              LDR       A1, [SP, #12]         ; [DPU_3_PIPE] |1492|  ; [ORIG 16-BIT INS]
    1942                    $C$DW$168       .dwtag  DW_TAG_TI_branch
    1943                            .dwattr $C$DW$168, DW_AT_low_pc(0x00)
    1944                            .dwattr $C$DW$168, DW_AT_name("vPortClearInterruptMask")
    1945                            .dwattr $C$DW$168, DW_AT_TI_call
    1946 00000422 FFFEF7FF!         BL        vPortClearInterruptMask ; [DPU_3_PIPE] |1492|  ; [KEEP 32-BIT INS]
    1947                            ; CALL OCCURS {vPortClearInterruptMask }  ; [] |1492| 
    1948                            .dwpsn  file "../Source/queue.c",line 1494,column 2,is_stmt,isa 1
    1949 00000426 9802              LDR       A1, [SP, #8]          ; [DPU_3_PIPE] |1494|  ; [ORIG 16-BIT INS]
    1950                            .dwpsn  file "../Source/queue.c",line 1495,column 1,is_stmt,isa 1
    1951 00000428 B007              ADD       SP, SP, #28           ; [DPU_3_PIPE]  ; [ORIG 16-BIT INS]
    1952                            .dwcfi  cfa_offset, 4
    1953                    $C$DW$169       .dwtag  DW_TAG_TI_branch
    1954                            .dwattr $C$DW$169, DW_AT_low_pc(0x00)
    1955                            .dwattr $C$DW$169, DW_AT_TI_return
    1956 0000042a BD00              POP       {PC}                  ; [DPU_3_PIPE]  ; [ORIG 16-BIT INS]
    1957                            .dwcfi  cfa_offset, 0
    1958                            ; BRANCH OCCURS                  ; [] 
    1959                            .dwattr $C$DW$157, DW_AT_TI_end_file("../Source/queue.c")
    1960                            .dwattr $C$DW$157, DW_AT_TI_end_line(0x5d7)
    1961                            .dwattr $C$DW$157, DW_AT_TI_end_column(0x01)
    1962                            .dwendentry
    1963                            .dwendtag $C$DW$157
    1964                    
    1965 0000042c                   .sect   ".text"
    1966                            .clink
    1967                            .thumbfunc uxQueueMessagesWaiting
    1968 0000042c                   .thumb
    1969                            .global uxQueueMessagesWaiting
    1970                    
    1971                    $C$DW$170       .dwtag  DW_TAG_subprogram, DW_AT_name("uxQueueMessagesWaiting")
    1972                            .dwattr $C$DW$170, DW_AT_low_pc(uxQueueMessagesWaiting)
    1973                            .dwattr $C$DW$170, DW_AT_high_pc(0x00)
    1974                            .dwattr $C$DW$170, DW_AT_TI_symbol_name("uxQueueMessagesWaiting")
    1975                            .dwattr $C$DW$170, DW_AT_external
    1976                            .dwattr $C$DW$170, DW_AT_type(*$C$DW$T$25)
    1977                            .dwattr $C$DW$170, DW_AT_TI_begin_file("../Source/queue.c")
    1978                            .dwattr $C$DW$170, DW_AT_TI_begin_line(0x5da)
    1979                            .dwattr $C$DW$170, DW_AT_TI_begin_column(0x0d)
    1980                            .dwattr $C$DW$170, DW_AT_decl_file("../Source/queue.c")
TI ARM Assembler PC v5.1.7 Tue Sep 16 08:38:40 2014

Tools Copyright (c) 1996-2014 Texas Instruments Incorporated
queue.asm                                                            PAGE   37

    1981                            .dwattr $C$DW$170, DW_AT_decl_line(0x5da)
    1982                            .dwattr $C$DW$170, DW_AT_decl_column(0x0d)
    1983                            .dwattr $C$DW$170, DW_AT_TI_max_frame_size(0x10)
    1984                            .dwpsn  file "../Source/queue.c",line 1499,column 1,is_stmt,address uxQueueMessagesWaiting,isa
    1985                    
    1986                            .dwfde $C$DW$CIE, uxQueueMessagesWaiting
    1987                    $C$DW$171       .dwtag  DW_TAG_formal_parameter, DW_AT_name("xQueue")
    1988                            .dwattr $C$DW$171, DW_AT_TI_symbol_name("xQueue")
    1989                            .dwattr $C$DW$171, DW_AT_type(*$C$DW$T$73)
    1990                            .dwattr $C$DW$171, DW_AT_location[DW_OP_reg0]
    1991                    
    1992                    ;*****************************************************************************
    1993                    ;* FUNCTION NAME: uxQueueMessagesWaiting                                     *
    1994                    ;*                                                                           *
    1995                    ;*   Regs Modified     : A1,A2,A3,A4,V9,SP,LR,SR,D0,D0_hi,D1,D1_hi,D2,D2_hi, *
    1996                    ;*                           D3,D3_hi,D4,D4_hi,D5,D5_hi,D6,D6_hi,D7,D7_hi,   *
    1997                    ;*                           FPEXC,FPSCR                                     *
    1998                    ;*   Regs Used         : A1,A2,A3,A4,V9,SP,LR,SR,D0,D0_hi,D1,D1_hi,D2,D2_hi, *
    1999                    ;*                           D3,D3_hi,D4,D4_hi,D5,D5_hi,D6,D6_hi,D7,D7_hi,   *
    2000                    ;*                           FPEXC,FPSCR                                     *
    2001                    ;*   Local Frame Size  : 0 Args + 8 Auto + 4 Save = 12 byte                  *
    2002                    ;*****************************************************************************
    2003 0000042c           uxQueueMessagesWaiting:
    2004                    ;* --------------------------------------------------------------------------*
    2005                            .dwcfi  cfa_offset, 0
    2006 0000042c B50E              PUSH      {A2, A3, A4, LR}      ; [DPU_3_PIPE]  ; [ORIG 16-BIT INS]
    2007                            .dwcfi  cfa_offset, 16
    2008                            .dwcfi  save_reg_to_mem, 14, -4
    2009                            .dwcfi  save_reg_to_mem, 3, -8
    2010                            .dwcfi  save_reg_to_mem, 2, -12
    2011                            .dwcfi  save_reg_to_mem, 1, -16
    2012                    $C$DW$172       .dwtag  DW_TAG_variable, DW_AT_name("xQueue")
    2013                            .dwattr $C$DW$172, DW_AT_TI_symbol_name("xQueue")
    2014                            .dwattr $C$DW$172, DW_AT_type(*$C$DW$T$73)
    2015                            .dwattr $C$DW$172, DW_AT_location[DW_OP_breg13 0]
    2016                    $C$DW$173       .dwtag  DW_TAG_variable, DW_AT_name("uxReturn")
    2017                            .dwattr $C$DW$173, DW_AT_TI_symbol_name("uxReturn")
    2018                            .dwattr $C$DW$173, DW_AT_type(*$C$DW$T$25)
    2019                            .dwattr $C$DW$173, DW_AT_location[DW_OP_breg13 4]
    2020 0000042e 9000              STR       A1, [SP, #0]          ; [DPU_3_PIPE] |1499|  ; [ORIG 16-BIT INS]
    2021                            .dwpsn  file "../Source/queue.c",line 1504,column 2,is_stmt,isa 1
    2022                    $C$DW$174       .dwtag  DW_TAG_TI_branch
    2023                            .dwattr $C$DW$174, DW_AT_low_pc(0x00)
    2024                            .dwattr $C$DW$174, DW_AT_name("vPortEnterCritical")
    2025                            .dwattr $C$DW$174, DW_AT_TI_call
    2026 00000430 FFFEF7FF!         BL        vPortEnterCritical    ; [DPU_3_PIPE] |1504|  ; [KEEP 32-BIT INS]
    2027                            ; CALL OCCURS {vPortEnterCritical }  ; [] |1504| 
    2028                            .dwpsn  file "../Source/queue.c",line 1506,column 3,is_stmt,isa 1
    2029 00000434 9800              LDR       A1, [SP, #0]          ; [DPU_3_PIPE] |1506|  ; [ORIG 16-BIT INS]
    2030 00000436 6B80              LDR       A1, [A1, #56]         ; [DPU_3_PIPE] |1506|  ; [ORIG 16-BIT INS]
    2031 00000438 9001              STR       A1, [SP, #4]          ; [DPU_3_PIPE] |1506|  ; [ORIG 16-BIT INS]
    2032                            .dwpsn  file "../Source/queue.c",line 1508,column 2,is_stmt,isa 1
    2033                    $C$DW$175       .dwtag  DW_TAG_TI_branch
    2034                            .dwattr $C$DW$175, DW_AT_low_pc(0x00)
    2035                            .dwattr $C$DW$175, DW_AT_name("vPortExitCritical")
TI ARM Assembler PC v5.1.7 Tue Sep 16 08:38:40 2014

Tools Copyright (c) 1996-2014 Texas Instruments Incorporated
queue.asm                                                            PAGE   38

    2036                            .dwattr $C$DW$175, DW_AT_TI_call
    2037 0000043a FFFEF7FF!         BL        vPortExitCritical     ; [DPU_3_PIPE] |1508|  ; [KEEP 32-BIT INS]
    2038                            ; CALL OCCURS {vPortExitCritical }  ; [] |1508| 
    2039                            .dwpsn  file "../Source/queue.c",line 1510,column 2,is_stmt,isa 1
    2040 0000043e 9801              LDR       A1, [SP, #4]          ; [DPU_3_PIPE] |1510|  ; [ORIG 16-BIT INS]
    2041                            .dwpsn  file "../Source/queue.c",line 1511,column 1,is_stmt,isa 1
    2042                    $C$DW$176       .dwtag  DW_TAG_TI_branch
    2043                            .dwattr $C$DW$176, DW_AT_low_pc(0x00)
    2044                            .dwattr $C$DW$176, DW_AT_TI_return
    2045 00000440 BD0E              POP       {A2, A3, A4, PC}      ; [DPU_3_PIPE]  ; [ORIG 16-BIT INS]
    2046                            .dwcfi  cfa_offset, 0
    2047                            ; BRANCH OCCURS                  ; [] 
    2048                            .dwattr $C$DW$170, DW_AT_TI_end_file("../Source/queue.c")
    2049                            .dwattr $C$DW$170, DW_AT_TI_end_line(0x5e7)
    2050                            .dwattr $C$DW$170, DW_AT_TI_end_column(0x01)
    2051                            .dwendentry
    2052                            .dwendtag $C$DW$170
    2053                    
    2054 00000442                   .sect   ".text"
    2055                            .clink
    2056                            .thumbfunc uxQueueSpacesAvailable
    2057 00000442                   .thumb
    2058                            .global uxQueueSpacesAvailable
    2059                    
    2060                    $C$DW$177       .dwtag  DW_TAG_subprogram, DW_AT_name("uxQueueSpacesAvailable")
    2061                            .dwattr $C$DW$177, DW_AT_low_pc(uxQueueSpacesAvailable)
    2062                            .dwattr $C$DW$177, DW_AT_high_pc(0x00)
    2063                            .dwattr $C$DW$177, DW_AT_TI_symbol_name("uxQueueSpacesAvailable")
    2064                            .dwattr $C$DW$177, DW_AT_external
    2065                            .dwattr $C$DW$177, DW_AT_type(*$C$DW$T$25)
    2066                            .dwattr $C$DW$177, DW_AT_TI_begin_file("../Source/queue.c")
    2067                            .dwattr $C$DW$177, DW_AT_TI_begin_line(0x5ea)
    2068                            .dwattr $C$DW$177, DW_AT_TI_begin_column(0x0d)
    2069                            .dwattr $C$DW$177, DW_AT_decl_file("../Source/queue.c")
    2070                            .dwattr $C$DW$177, DW_AT_decl_line(0x5ea)
    2071                            .dwattr $C$DW$177, DW_AT_decl_column(0x0d)
    2072                            .dwattr $C$DW$177, DW_AT_TI_max_frame_size(0x10)
    2073                            .dwpsn  file "../Source/queue.c",line 1515,column 1,is_stmt,address uxQueueSpacesAvailable,isa
    2074                    
    2075                            .dwfde $C$DW$CIE, uxQueueSpacesAvailable
    2076                    $C$DW$178       .dwtag  DW_TAG_formal_parameter, DW_AT_name("xQueue")
    2077                            .dwattr $C$DW$178, DW_AT_TI_symbol_name("xQueue")
    2078                            .dwattr $C$DW$178, DW_AT_type(*$C$DW$T$73)
    2079                            .dwattr $C$DW$178, DW_AT_location[DW_OP_reg0]
    2080                    
    2081                    ;*****************************************************************************
    2082                    ;* FUNCTION NAME: uxQueueSpacesAvailable                                     *
    2083                    ;*                                                                           *
    2084                    ;*   Regs Modified     : A1,A2,A3,A4,V9,SP,LR,SR,D0,D0_hi,D1,D1_hi,D2,D2_hi, *
    2085                    ;*                           D3,D3_hi,D4,D4_hi,D5,D5_hi,D6,D6_hi,D7,D7_hi,   *
    2086                    ;*                           FPEXC,FPSCR                                     *
    2087                    ;*   Regs Used         : A1,A2,A3,A4,V9,SP,LR,SR,D0,D0_hi,D1,D1_hi,D2,D2_hi, *
    2088                    ;*                           D3,D3_hi,D4,D4_hi,D5,D5_hi,D6,D6_hi,D7,D7_hi,   *
    2089                    ;*                           FPEXC,FPSCR                                     *
    2090                    ;*   Local Frame Size  : 0 Args + 12 Auto + 4 Save = 16 byte                 *
TI ARM Assembler PC v5.1.7 Tue Sep 16 08:38:40 2014

Tools Copyright (c) 1996-2014 Texas Instruments Incorporated
queue.asm                                                            PAGE   39

    2091                    ;*****************************************************************************
    2092 00000442           uxQueueSpacesAvailable:
    2093                    ;* --------------------------------------------------------------------------*
    2094                            .dwcfi  cfa_offset, 0
    2095 00000442 B50E              PUSH      {A2, A3, A4, LR}      ; [DPU_3_PIPE]  ; [ORIG 16-BIT INS]
    2096                            .dwcfi  cfa_offset, 16
    2097                            .dwcfi  save_reg_to_mem, 14, -4
    2098                            .dwcfi  save_reg_to_mem, 3, -8
    2099                            .dwcfi  save_reg_to_mem, 2, -12
    2100                            .dwcfi  save_reg_to_mem, 1, -16
    2101                    $C$DW$179       .dwtag  DW_TAG_variable, DW_AT_name("xQueue")
    2102                            .dwattr $C$DW$179, DW_AT_TI_symbol_name("xQueue")
    2103                            .dwattr $C$DW$179, DW_AT_type(*$C$DW$T$73)
    2104                            .dwattr $C$DW$179, DW_AT_location[DW_OP_breg13 0]
    2105                    $C$DW$180       .dwtag  DW_TAG_variable, DW_AT_name("uxReturn")
    2106                            .dwattr $C$DW$180, DW_AT_TI_symbol_name("uxReturn")
    2107                            .dwattr $C$DW$180, DW_AT_type(*$C$DW$T$25)
    2108                            .dwattr $C$DW$180, DW_AT_location[DW_OP_breg13 4]
    2109                    $C$DW$181       .dwtag  DW_TAG_variable, DW_AT_name("pxQueue")
    2110                            .dwattr $C$DW$181, DW_AT_TI_symbol_name("pxQueue")
    2111                            .dwattr $C$DW$181, DW_AT_type(*$C$DW$T$70)
    2112                            .dwattr $C$DW$181, DW_AT_location[DW_OP_breg13 8]
    2113 00000444 9000              STR       A1, [SP, #0]          ; [DPU_3_PIPE] |1515|  ; [ORIG 16-BIT INS]
    2114                            .dwpsn  file "../Source/queue.c",line 1519,column 2,is_stmt,isa 1
    2115 00000446 9800              LDR       A1, [SP, #0]          ; [DPU_3_PIPE] |1519|  ; [ORIG 16-BIT INS]
    2116 00000448 9002              STR       A1, [SP, #8]          ; [DPU_3_PIPE] |1519|  ; [ORIG 16-BIT INS]
    2117                            .dwpsn  file "../Source/queue.c",line 1522,column 2,is_stmt,isa 1
    2118                    $C$DW$182       .dwtag  DW_TAG_TI_branch
    2119                            .dwattr $C$DW$182, DW_AT_low_pc(0x00)
    2120                            .dwattr $C$DW$182, DW_AT_name("vPortEnterCritical")
    2121                            .dwattr $C$DW$182, DW_AT_TI_call
    2122 0000044a FFFEF7FF!         BL        vPortEnterCritical    ; [DPU_3_PIPE] |1522|  ; [KEEP 32-BIT INS]
    2123                            ; CALL OCCURS {vPortEnterCritical }  ; [] |1522| 
    2124                            .dwpsn  file "../Source/queue.c",line 1524,column 3,is_stmt,isa 1
    2125 0000044e 9902              LDR       A2, [SP, #8]          ; [DPU_3_PIPE] |1524|  ; [ORIG 16-BIT INS]
    2126 00000450 9802              LDR       A1, [SP, #8]          ; [DPU_3_PIPE] |1524|  ; [ORIG 16-BIT INS]
    2127 00000452 6B89              LDR       A2, [A2, #56]         ; [DPU_3_PIPE] |1524|  ; [ORIG 16-BIT INS]
    2128 00000454 6BC0              LDR       A1, [A1, #60]         ; [DPU_3_PIPE] |1524|  ; [ORIG 16-BIT INS]
    2129 00000456 1A40              SUBS      A1, A1, A2            ; [DPU_3_PIPE] |1524|  ; [ORIG 16-BIT INS]
    2130 00000458 9001              STR       A1, [SP, #4]          ; [DPU_3_PIPE] |1524|  ; [ORIG 16-BIT INS]
    2131                            .dwpsn  file "../Source/queue.c",line 1526,column 2,is_stmt,isa 1
    2132                    $C$DW$183       .dwtag  DW_TAG_TI_branch
    2133                            .dwattr $C$DW$183, DW_AT_low_pc(0x00)
    2134                            .dwattr $C$DW$183, DW_AT_name("vPortExitCritical")
    2135                            .dwattr $C$DW$183, DW_AT_TI_call
    2136 0000045a FFFEF7FF!         BL        vPortExitCritical     ; [DPU_3_PIPE] |1526|  ; [KEEP 32-BIT INS]
    2137                            ; CALL OCCURS {vPortExitCritical }  ; [] |1526| 
    2138                            .dwpsn  file "../Source/queue.c",line 1528,column 2,is_stmt,isa 1
    2139 0000045e 9801              LDR       A1, [SP, #4]          ; [DPU_3_PIPE] |1528|  ; [ORIG 16-BIT INS]
    2140                            .dwpsn  file "../Source/queue.c",line 1529,column 1,is_stmt,isa 1
    2141                    $C$DW$184       .dwtag  DW_TAG_TI_branch
    2142                            .dwattr $C$DW$184, DW_AT_low_pc(0x00)
    2143                            .dwattr $C$DW$184, DW_AT_TI_return
    2144 00000460 BD0E              POP       {A2, A3, A4, PC}      ; [DPU_3_PIPE]  ; [ORIG 16-BIT INS]
    2145                            .dwcfi  cfa_offset, 0
TI ARM Assembler PC v5.1.7 Tue Sep 16 08:38:40 2014

Tools Copyright (c) 1996-2014 Texas Instruments Incorporated
queue.asm                                                            PAGE   40

    2146                            ; BRANCH OCCURS                  ; [] 
    2147                            .dwattr $C$DW$177, DW_AT_TI_end_file("../Source/queue.c")
    2148                            .dwattr $C$DW$177, DW_AT_TI_end_line(0x5f9)
    2149                            .dwattr $C$DW$177, DW_AT_TI_end_column(0x01)
    2150                            .dwendentry
    2151                            .dwendtag $C$DW$177
    2152                    
    2153 00000462                   .sect   ".text"
    2154                            .clink
    2155                            .thumbfunc uxQueueMessagesWaitingFromISR
    2156 00000462                   .thumb
    2157                            .global uxQueueMessagesWaitingFromISR
    2158                    
    2159                    $C$DW$185       .dwtag  DW_TAG_subprogram, DW_AT_name("uxQueueMessagesWaitingFromISR")
    2160                            .dwattr $C$DW$185, DW_AT_low_pc(uxQueueMessagesWaitingFromISR)
    2161                            .dwattr $C$DW$185, DW_AT_high_pc(0x00)
    2162                            .dwattr $C$DW$185, DW_AT_TI_symbol_name("uxQueueMessagesWaitingFromISR")
    2163                            .dwattr $C$DW$185, DW_AT_external
    2164                            .dwattr $C$DW$185, DW_AT_type(*$C$DW$T$25)
    2165                            .dwattr $C$DW$185, DW_AT_TI_begin_file("../Source/queue.c")
    2166                            .dwattr $C$DW$185, DW_AT_TI_begin_line(0x5fc)
    2167                            .dwattr $C$DW$185, DW_AT_TI_begin_column(0x0d)
    2168                            .dwattr $C$DW$185, DW_AT_decl_file("../Source/queue.c")
    2169                            .dwattr $C$DW$185, DW_AT_decl_line(0x5fc)
    2170                            .dwattr $C$DW$185, DW_AT_decl_column(0x0d)
    2171                            .dwattr $C$DW$185, DW_AT_TI_max_frame_size(0x08)
    2172                            .dwpsn  file "../Source/queue.c",line 1533,column 1,is_stmt,address uxQueueMessagesWaitingFrom
    2173                    
    2174                            .dwfde $C$DW$CIE, uxQueueMessagesWaitingFromISR
    2175                    $C$DW$186       .dwtag  DW_TAG_formal_parameter, DW_AT_name("xQueue")
    2176                            .dwattr $C$DW$186, DW_AT_TI_symbol_name("xQueue")
    2177                            .dwattr $C$DW$186, DW_AT_type(*$C$DW$T$73)
    2178                            .dwattr $C$DW$186, DW_AT_location[DW_OP_reg0]
    2179                    
    2180                    ;*****************************************************************************
    2181                    ;* FUNCTION NAME: uxQueueMessagesWaitingFromISR                              *
    2182                    ;*                                                                           *
    2183                    ;*   Regs Modified     : A1,SP                                               *
    2184                    ;*   Regs Used         : A1,SP,LR                                            *
    2185                    ;*   Local Frame Size  : 0 Args + 8 Auto + 0 Save = 8 byte                   *
    2186                    ;*****************************************************************************
    2187 00000462           uxQueueMessagesWaitingFromISR:
    2188                    ;* --------------------------------------------------------------------------*
    2189                            .dwcfi  cfa_offset, 0
    2190 00000462 0D08F1AD          SUB       SP, SP, #8            ; [DPU_3_PIPE]  ; [KEEP 32-BIT INS]
    2191                            .dwcfi  cfa_offset, 8
    2192                    $C$DW$187       .dwtag  DW_TAG_variable, DW_AT_name("xQueue")
    2193                            .dwattr $C$DW$187, DW_AT_TI_symbol_name("xQueue")
    2194                            .dwattr $C$DW$187, DW_AT_type(*$C$DW$T$73)
    2195                            .dwattr $C$DW$187, DW_AT_location[DW_OP_breg13 0]
    2196                    $C$DW$188       .dwtag  DW_TAG_variable, DW_AT_name("uxReturn")
    2197                            .dwattr $C$DW$188, DW_AT_TI_symbol_name("uxReturn")
    2198                            .dwattr $C$DW$188, DW_AT_type(*$C$DW$T$25)
    2199                            .dwattr $C$DW$188, DW_AT_location[DW_OP_breg13 4]
    2200 00000466 9000              STR       A1, [SP, #0]          ; [DPU_3_PIPE] |1533|  ; [ORIG 16-BIT INS]
TI ARM Assembler PC v5.1.7 Tue Sep 16 08:38:40 2014

Tools Copyright (c) 1996-2014 Texas Instruments Incorporated
queue.asm                                                            PAGE   41

    2201                            .dwpsn  file "../Source/queue.c",line 1538,column 2,is_stmt,isa 1
    2202 00000468 9800              LDR       A1, [SP, #0]          ; [DPU_3_PIPE] |1538|  ; [ORIG 16-BIT INS]
    2203 0000046a 6B80              LDR       A1, [A1, #56]         ; [DPU_3_PIPE] |1538|  ; [ORIG 16-BIT INS]
    2204 0000046c 9001              STR       A1, [SP, #4]          ; [DPU_3_PIPE] |1538|  ; [ORIG 16-BIT INS]
    2205                            .dwpsn  file "../Source/queue.c",line 1540,column 2,is_stmt,isa 1
    2206 0000046e 9801              LDR       A1, [SP, #4]          ; [DPU_3_PIPE] |1540|  ; [ORIG 16-BIT INS]
    2207                            .dwpsn  file "../Source/queue.c",line 1541,column 1,is_stmt,isa 1
    2208 00000470 B002              ADD       SP, SP, #8            ; [DPU_3_PIPE]  ; [ORIG 16-BIT INS]
    2209                            .dwcfi  cfa_offset, 0
    2210                    $C$DW$189       .dwtag  DW_TAG_TI_branch
    2211                            .dwattr $C$DW$189, DW_AT_low_pc(0x00)
    2212                            .dwattr $C$DW$189, DW_AT_TI_return
    2213 00000472 4770              BX        LR                    ; [DPU_3_PIPE]  ; [ORIG 16-BIT INS]
    2214                            ; BRANCH OCCURS                  ; [] 
    2215                            .dwattr $C$DW$185, DW_AT_TI_end_file("../Source/queue.c")
    2216                            .dwattr $C$DW$185, DW_AT_TI_end_line(0x605)
    2217                            .dwattr $C$DW$185, DW_AT_TI_end_column(0x01)
    2218                            .dwendentry
    2219                            .dwendtag $C$DW$185
    2220                    
    2221 00000474                   .sect   ".text"
    2222                            .clink
    2223                            .thumbfunc vQueueDelete
    2224 00000474                   .thumb
    2225                            .global vQueueDelete
    2226                    
    2227                    $C$DW$190       .dwtag  DW_TAG_subprogram, DW_AT_name("vQueueDelete")
    2228                            .dwattr $C$DW$190, DW_AT_low_pc(vQueueDelete)
    2229                            .dwattr $C$DW$190, DW_AT_high_pc(0x00)
    2230                            .dwattr $C$DW$190, DW_AT_TI_symbol_name("vQueueDelete")
    2231                            .dwattr $C$DW$190, DW_AT_external
    2232                            .dwattr $C$DW$190, DW_AT_TI_begin_file("../Source/queue.c")
    2233                            .dwattr $C$DW$190, DW_AT_TI_begin_line(0x608)
    2234                            .dwattr $C$DW$190, DW_AT_TI_begin_column(0x06)
    2235                            .dwattr $C$DW$190, DW_AT_decl_file("../Source/queue.c")
    2236                            .dwattr $C$DW$190, DW_AT_decl_line(0x608)
    2237                            .dwattr $C$DW$190, DW_AT_decl_column(0x06)
    2238                            .dwattr $C$DW$190, DW_AT_TI_max_frame_size(0x10)
    2239                            .dwpsn  file "../Source/queue.c",line 1545,column 1,is_stmt,address vQueueDelete,isa 1
    2240                    
    2241                            .dwfde $C$DW$CIE, vQueueDelete
    2242                    $C$DW$191       .dwtag  DW_TAG_formal_parameter, DW_AT_name("xQueue")
    2243                            .dwattr $C$DW$191, DW_AT_TI_symbol_name("xQueue")
    2244                            .dwattr $C$DW$191, DW_AT_type(*$C$DW$T$72)
    2245                            .dwattr $C$DW$191, DW_AT_location[DW_OP_reg0]
    2246                    
    2247                    ;*****************************************************************************
    2248                    ;* FUNCTION NAME: vQueueDelete                                               *
    2249                    ;*                                                                           *
    2250                    ;*   Regs Modified     : A1,A2,A3,A4,V9,SP,LR,SR,D0,D0_hi,D1,D1_hi,D2,D2_hi, *
    2251                    ;*                           D3,D3_hi,D4,D4_hi,D5,D5_hi,D6,D6_hi,D7,D7_hi,   *
    2252                    ;*                           FPEXC,FPSCR                                     *
    2253                    ;*   Regs Used         : A1,A2,A3,A4,V9,SP,LR,SR,D0,D0_hi,D1,D1_hi,D2,D2_hi, *
    2254                    ;*                           D3,D3_hi,D4,D4_hi,D5,D5_hi,D6,D6_hi,D7,D7_hi,   *
    2255                    ;*                           FPEXC,FPSCR                                     *
TI ARM Assembler PC v5.1.7 Tue Sep 16 08:38:40 2014

Tools Copyright (c) 1996-2014 Texas Instruments Incorporated
queue.asm                                                            PAGE   42

    2256                    ;*   Local Frame Size  : 0 Args + 8 Auto + 4 Save = 12 byte                  *
    2257                    ;*****************************************************************************
    2258 00000474           vQueueDelete:
    2259                    ;* --------------------------------------------------------------------------*
    2260                            .dwcfi  cfa_offset, 0
    2261 00000474 B50E              PUSH      {A2, A3, A4, LR}      ; [DPU_3_PIPE]  ; [ORIG 16-BIT INS]
    2262                            .dwcfi  cfa_offset, 16
    2263                            .dwcfi  save_reg_to_mem, 14, -4
    2264                            .dwcfi  save_reg_to_mem, 3, -8
    2265                            .dwcfi  save_reg_to_mem, 2, -12
    2266                            .dwcfi  save_reg_to_mem, 1, -16
    2267                    $C$DW$192       .dwtag  DW_TAG_variable, DW_AT_name("xQueue")
    2268                            .dwattr $C$DW$192, DW_AT_TI_symbol_name("xQueue")
    2269                            .dwattr $C$DW$192, DW_AT_type(*$C$DW$T$72)
    2270                            .dwattr $C$DW$192, DW_AT_location[DW_OP_breg13 0]
    2271                    $C$DW$193       .dwtag  DW_TAG_variable, DW_AT_name("pxQueue")
    2272                            .dwattr $C$DW$193, DW_AT_TI_symbol_name("pxQueue")
    2273                            .dwattr $C$DW$193, DW_AT_type(*$C$DW$T$71)
    2274                            .dwattr $C$DW$193, DW_AT_location[DW_OP_breg13 4]
    2275 00000476 9000              STR       A1, [SP, #0]          ; [DPU_3_PIPE] |1545|  ; [ORIG 16-BIT INS]
    2276                            .dwpsn  file "../Source/queue.c",line 1546,column 25,is_stmt,isa 1
    2277 00000478 9800              LDR       A1, [SP, #0]          ; [DPU_3_PIPE] |1546|  ; [ORIG 16-BIT INS]
    2278 0000047a 9001              STR       A1, [SP, #4]          ; [DPU_3_PIPE] |1546|  ; [ORIG 16-BIT INS]
    2279                            .dwpsn  file "../Source/queue.c",line 1556,column 2,is_stmt,isa 1
    2280 0000047c 9801              LDR       A1, [SP, #4]          ; [DPU_3_PIPE] |1556|  ; [ORIG 16-BIT INS]
    2281 0000047e 6800              LDR       A1, [A1, #0]          ; [DPU_3_PIPE] |1556|  ; [ORIG 16-BIT INS]
    2282 00000480 B118              CBZ       A1, ||$C$L44||        ; []  ; [ORIG 16-BIT INS]
    2283                            ; BRANCHCC OCCURS {||$C$L44||}   ; [] |1556| 
    2284                    ;* --------------------------------------------------------------------------*
    2285                            .dwpsn  file "../Source/queue.c",line 1558,column 3,is_stmt,isa 1
    2286 00000482 9801              LDR       A1, [SP, #4]          ; [DPU_3_PIPE] |1558|  ; [ORIG 16-BIT INS]
    2287 00000484 6800              LDR       A1, [A1, #0]          ; [DPU_3_PIPE] |1558|  ; [ORIG 16-BIT INS]
    2288                    $C$DW$194       .dwtag  DW_TAG_TI_branch
    2289                            .dwattr $C$DW$194, DW_AT_low_pc(0x00)
    2290                            .dwattr $C$DW$194, DW_AT_name("vPortFree")
    2291                            .dwattr $C$DW$194, DW_AT_TI_call
    2292 00000486 FFFEF7FF!         BL        vPortFree             ; [DPU_3_PIPE] |1558|  ; [KEEP 32-BIT INS]
    2293                            ; CALL OCCURS {vPortFree }       ; [] |1558| 
    2294                    ;* --------------------------------------------------------------------------*
    2295 0000048a           ||$C$L44||:    
    2296                            .dwpsn  file "../Source/queue.c",line 1560,column 2,is_stmt,isa 1
    2297 0000048a 9801              LDR       A1, [SP, #4]          ; [DPU_3_PIPE] |1560|  ; [ORIG 16-BIT INS]
    2298                    $C$DW$195       .dwtag  DW_TAG_TI_branch
    2299                            .dwattr $C$DW$195, DW_AT_low_pc(0x00)
    2300                            .dwattr $C$DW$195, DW_AT_name("vPortFree")
    2301                            .dwattr $C$DW$195, DW_AT_TI_call
    2302 0000048c FFFEF7FF!         BL        vPortFree             ; [DPU_3_PIPE] |1560|  ; [KEEP 32-BIT INS]
    2303                            ; CALL OCCURS {vPortFree }       ; [] |1560| 
    2304                            .dwpsn  file "../Source/queue.c",line 1561,column 1,is_stmt,isa 1
    2305                    $C$DW$196       .dwtag  DW_TAG_TI_branch
    2306                            .dwattr $C$DW$196, DW_AT_low_pc(0x00)
    2307                            .dwattr $C$DW$196, DW_AT_TI_return
    2308 00000490 BD0E              POP       {A2, A3, A4, PC}      ; [DPU_3_PIPE]  ; [ORIG 16-BIT INS]
    2309                            .dwcfi  cfa_offset, 0
    2310                            ; BRANCH OCCURS                  ; [] 
TI ARM Assembler PC v5.1.7 Tue Sep 16 08:38:40 2014

Tools Copyright (c) 1996-2014 Texas Instruments Incorporated
queue.asm                                                            PAGE   43

    2311                            .dwattr $C$DW$190, DW_AT_TI_end_file("../Source/queue.c")
    2312                            .dwattr $C$DW$190, DW_AT_TI_end_line(0x619)
    2313                            .dwattr $C$DW$190, DW_AT_TI_end_column(0x01)
    2314                            .dwendentry
    2315                            .dwendtag $C$DW$190
    2316                    
    2317 00000492                   .sect   ".text"
    2318                            .clink
    2319                            .thumbfunc prvCopyDataToQueue
    2320 00000492                   .thumb
    2321                    
    2322                    $C$DW$197       .dwtag  DW_TAG_subprogram, DW_AT_name("prvCopyDataToQueue")
    2323                            .dwattr $C$DW$197, DW_AT_low_pc(prvCopyDataToQueue)
    2324                            .dwattr $C$DW$197, DW_AT_high_pc(0x00)
    2325                            .dwattr $C$DW$197, DW_AT_TI_symbol_name("prvCopyDataToQueue")
    2326                            .dwattr $C$DW$197, DW_AT_TI_begin_file("../Source/queue.c")
    2327                            .dwattr $C$DW$197, DW_AT_TI_begin_line(0x63a)
    2328                            .dwattr $C$DW$197, DW_AT_TI_begin_column(0x0d)
    2329                            .dwattr $C$DW$197, DW_AT_decl_file("../Source/queue.c")
    2330                            .dwattr $C$DW$197, DW_AT_decl_line(0x63a)
    2331                            .dwattr $C$DW$197, DW_AT_decl_column(0x0d)
    2332                            .dwattr $C$DW$197, DW_AT_TI_max_frame_size(0x10)
    2333                            .dwpsn  file "../Source/queue.c",line 1595,column 1,is_stmt,address prvCopyDataToQueue,isa 1
    2334                    
    2335                            .dwfde $C$DW$CIE, prvCopyDataToQueue
    2336                    $C$DW$198       .dwtag  DW_TAG_formal_parameter, DW_AT_name("pxQueue")
    2337                            .dwattr $C$DW$198, DW_AT_TI_symbol_name("pxQueue")
    2338                            .dwattr $C$DW$198, DW_AT_type(*$C$DW$T$71)
    2339                            .dwattr $C$DW$198, DW_AT_location[DW_OP_reg0]
    2340                    $C$DW$199       .dwtag  DW_TAG_formal_parameter, DW_AT_name("pvItemToQueue")
    2341                            .dwattr $C$DW$199, DW_AT_TI_symbol_name("pvItemToQueue")
    2342                            .dwattr $C$DW$199, DW_AT_type(*$C$DW$T$81)
    2343                            .dwattr $C$DW$199, DW_AT_location[DW_OP_reg1]
    2344                    $C$DW$200       .dwtag  DW_TAG_formal_parameter, DW_AT_name("xPosition")
    2345                            .dwattr $C$DW$200, DW_AT_TI_symbol_name("xPosition")
    2346                            .dwattr $C$DW$200, DW_AT_type(*$C$DW$T$106)
    2347                            .dwattr $C$DW$200, DW_AT_location[DW_OP_reg2]
    2348                    
    2349                    ;*****************************************************************************
    2350                    ;* FUNCTION NAME: prvCopyDataToQueue                                         *
    2351                    ;*                                                                           *
    2352                    ;*   Regs Modified     : A1,A2,A3,A4,V9,SP,LR,SR,D0,D0_hi,D1,D1_hi,D2,D2_hi, *
    2353                    ;*                           D3,D3_hi,D4,D4_hi,D5,D5_hi,D6,D6_hi,D7,D7_hi,   *
    2354                    ;*                           FPEXC,FPSCR                                     *
    2355                    ;*   Regs Used         : A1,A2,A3,A4,V9,SP,LR,SR,D0,D0_hi,D1,D1_hi,D2,D2_hi, *
    2356                    ;*                           D3,D3_hi,D4,D4_hi,D5,D5_hi,D6,D6_hi,D7,D7_hi,   *
    2357                    ;*                           FPEXC,FPSCR                                     *
    2358                    ;*   Local Frame Size  : 0 Args + 12 Auto + 4 Save = 16 byte                 *
    2359                    ;*****************************************************************************
    2360 00000492           prvCopyDataToQueue:
    2361                    ;* --------------------------------------------------------------------------*
    2362                            .dwcfi  cfa_offset, 0
    2363 00000492 B50E              PUSH      {A2, A3, A4, LR}      ; [DPU_3_PIPE]  ; [ORIG 16-BIT INS]
    2364                            .dwcfi  cfa_offset, 16
    2365                            .dwcfi  save_reg_to_mem, 14, -4
TI ARM Assembler PC v5.1.7 Tue Sep 16 08:38:40 2014

Tools Copyright (c) 1996-2014 Texas Instruments Incorporated
queue.asm                                                            PAGE   44

    2366                            .dwcfi  save_reg_to_mem, 3, -8
    2367                            .dwcfi  save_reg_to_mem, 2, -12
    2368                            .dwcfi  save_reg_to_mem, 1, -16
    2369                    $C$DW$201       .dwtag  DW_TAG_variable, DW_AT_name("pxQueue")
    2370                            .dwattr $C$DW$201, DW_AT_TI_symbol_name("pxQueue")
    2371                            .dwattr $C$DW$201, DW_AT_type(*$C$DW$T$71)
    2372                            .dwattr $C$DW$201, DW_AT_location[DW_OP_breg13 0]
    2373                    $C$DW$202       .dwtag  DW_TAG_variable, DW_AT_name("pvItemToQueue")
    2374                            .dwattr $C$DW$202, DW_AT_TI_symbol_name("pvItemToQueue")
    2375                            .dwattr $C$DW$202, DW_AT_type(*$C$DW$T$81)
    2376                            .dwattr $C$DW$202, DW_AT_location[DW_OP_breg13 4]
    2377                    $C$DW$203       .dwtag  DW_TAG_variable, DW_AT_name("xPosition")
    2378                            .dwattr $C$DW$203, DW_AT_TI_symbol_name("xPosition")
    2379                            .dwattr $C$DW$203, DW_AT_type(*$C$DW$T$106)
    2380                            .dwattr $C$DW$203, DW_AT_location[DW_OP_breg13 8]
    2381 00000494 9202              STR       A3, [SP, #8]          ; [DPU_3_PIPE] |1595|  ; [ORIG 16-BIT INS]
    2382 00000496 9101              STR       A2, [SP, #4]          ; [DPU_3_PIPE] |1595|  ; [ORIG 16-BIT INS]
    2383 00000498 9000              STR       A1, [SP, #0]          ; [DPU_3_PIPE] |1595|  ; [ORIG 16-BIT INS]
    2384                            .dwpsn  file "../Source/queue.c",line 1596,column 2,is_stmt,isa 1
    2385 0000049a 9800              LDR       A1, [SP, #0]          ; [DPU_3_PIPE] |1596|  ; [ORIG 16-BIT INS]
    2386 0000049c 6C00              LDR       A1, [A1, #64]         ; [DPU_3_PIPE] |1596|  ; [ORIG 16-BIT INS]
    2387 0000049e 2800              CMP       A1, #0                ; [DPU_3_PIPE] |1596|  ; [ORIG 16-BIT INS]
    2388 000004a0 D03E              BEQ       ||$C$L47||            ; [DPU_3_PIPE] |1596|  ; [ORIG 16-BIT INS]
    2389                            ; BRANCHCC OCCURS {||$C$L47||}   ; [] |1596| 
    2390                    ;* --------------------------------------------------------------------------*
    2391                            .dwpsn  file "../Source/queue.c",line 1612,column 2,is_stmt,isa 1
    2392                            .dwpsn  file "../Source/queue.c",line 1613,column 7,is_stmt,isa 1
    2393 000004a2 9802              LDR       A1, [SP, #8]          ; [DPU_3_PIPE] |1613|  ; [ORIG 16-BIT INS]
    2394 000004a4 B9B8              CBNZ      A1, ||$C$L45||        ; []  ; [ORIG 16-BIT INS]
    2395                            ; BRANCHCC OCCURS {||$C$L45||}   ; [] |1613| 
    2396                    ;* --------------------------------------------------------------------------*
    2397                            .dwpsn  file "../Source/queue.c",line 1615,column 3,is_stmt,isa 1
    2398 000004a6 9800              LDR       A1, [SP, #0]          ; [DPU_3_PIPE] |1615|  ; [ORIG 16-BIT INS]
    2399 000004a8 9A00              LDR       A3, [SP, #0]          ; [DPU_3_PIPE] |1615|  ; [ORIG 16-BIT INS]
    2400 000004aa 9901              LDR       A2, [SP, #4]          ; [DPU_3_PIPE] |1615|  ; [ORIG 16-BIT INS]
    2401 000004ac 6880              LDR       A1, [A1, #8]          ; [DPU_3_PIPE] |1615|  ; [ORIG 16-BIT INS]
    2402 000004ae 6C12              LDR       A3, [A3, #64]         ; [DPU_3_PIPE] |1615|  ; [ORIG 16-BIT INS]
    2403                    $C$DW$204       .dwtag  DW_TAG_TI_branch
    2404                            .dwattr $C$DW$204, DW_AT_low_pc(0x00)
    2405                            .dwattr $C$DW$204, DW_AT_name("memcpy")
    2406                            .dwattr $C$DW$204, DW_AT_TI_call
    2407 000004b0 FFFEF7FF!         BL        memcpy                ; [DPU_3_PIPE] |1615|  ; [KEEP 32-BIT INS]
    2408                            ; CALL OCCURS {memcpy }          ; [] |1615| 
    2409                            .dwpsn  file "../Source/queue.c",line 1616,column 3,is_stmt,isa 1
    2410 000004b4 9900              LDR       A2, [SP, #0]          ; [DPU_3_PIPE] |1616|  ; [ORIG 16-BIT INS]
    2411 000004b6 9800              LDR       A1, [SP, #0]          ; [DPU_3_PIPE] |1616|  ; [ORIG 16-BIT INS]
    2412 000004b8 688A              LDR       A3, [A2, #8]          ; [DPU_3_PIPE] |1616|  ; [ORIG 16-BIT INS]
    2413 000004ba 6C00              LDR       A1, [A1, #64]         ; [DPU_3_PIPE] |1616|  ; [ORIG 16-BIT INS]
    2414 000004bc 1880              ADDS      A1, A1, A3            ; [DPU_3_PIPE] |1616|  ; [ORIG 16-BIT INS]
    2415 000004be 6088              STR       A1, [A2, #8]          ; [DPU_3_PIPE] |1616|  ; [ORIG 16-BIT INS]
    2416                            .dwpsn  file "../Source/queue.c",line 1617,column 3,is_stmt,isa 1
    2417 000004c0 9800              LDR       A1, [SP, #0]          ; [DPU_3_PIPE] |1617|  ; [ORIG 16-BIT INS]
    2418 000004c2 9900              LDR       A2, [SP, #0]          ; [DPU_3_PIPE] |1617|  ; [ORIG 16-BIT INS]
    2419 000004c4 6840              LDR       A1, [A1, #4]          ; [DPU_3_PIPE] |1617|  ; [ORIG 16-BIT INS]
    2420 000004c6 6889              LDR       A2, [A2, #8]          ; [DPU_3_PIPE] |1617|  ; [ORIG 16-BIT INS]
TI ARM Assembler PC v5.1.7 Tue Sep 16 08:38:40 2014

Tools Copyright (c) 1996-2014 Texas Instruments Incorporated
queue.asm                                                            PAGE   45

    2421 000004c8 4288              CMP       A1, A2                ; [DPU_3_PIPE] |1617|  ; [ORIG 16-BIT INS]
    2422 000004ca D829              BHI       ||$C$L47||            ; [DPU_3_PIPE] |1617|  ; [ORIG 16-BIT INS]
    2423                            ; BRANCHCC OCCURS {||$C$L47||}   ; [] |1617| 
    2424                    ;* --------------------------------------------------------------------------*
    2425                            .dwpsn  file "../Source/queue.c",line 1619,column 4,is_stmt,isa 1
    2426 000004cc 9800              LDR       A1, [SP, #0]          ; [DPU_3_PIPE] |1619|  ; [ORIG 16-BIT INS]
    2427 000004ce 9900              LDR       A2, [SP, #0]          ; [DPU_3_PIPE] |1619|  ; [ORIG 16-BIT INS]
    2428 000004d0 6800              LDR       A1, [A1, #0]          ; [DPU_3_PIPE] |1619|  ; [ORIG 16-BIT INS]
    2429 000004d2 6088              STR       A1, [A2, #8]          ; [DPU_3_PIPE] |1619|  ; [ORIG 16-BIT INS]
    2430                            .dwpsn  file "../Source/queue.c",line 1620,column 3,is_stmt,isa 1
    2431 000004d4 E024              B         ||$C$L47||            ; [DPU_3_PIPE] |1620|  ; [ORIG 16-BIT INS]
    2432                            ; BRANCH OCCURS {||$C$L47||}     ; [] |1620| 
    2433                    ;* --------------------------------------------------------------------------*
    2434                    ;* --------------------------------------------------------------------------*
    2435 000004d6           ||$C$L45||:    
    2436                            .dwpsn  file "../Source/queue.c",line 1628,column 3,is_stmt,isa 1
    2437 000004d6 9800              LDR       A1, [SP, #0]          ; [DPU_3_PIPE] |1628|  ; [ORIG 16-BIT INS]
    2438 000004d8 9A00              LDR       A3, [SP, #0]          ; [DPU_3_PIPE] |1628|  ; [ORIG 16-BIT INS]
    2439 000004da 9901              LDR       A2, [SP, #4]          ; [DPU_3_PIPE] |1628|  ; [ORIG 16-BIT INS]
    2440 000004dc 68C0              LDR       A1, [A1, #12]         ; [DPU_3_PIPE] |1628|  ; [ORIG 16-BIT INS]
    2441 000004de 6C12              LDR       A3, [A3, #64]         ; [DPU_3_PIPE] |1628|  ; [ORIG 16-BIT INS]
    2442                    $C$DW$205       .dwtag  DW_TAG_TI_branch
    2443                            .dwattr $C$DW$205, DW_AT_low_pc(0x00)
    2444                            .dwattr $C$DW$205, DW_AT_name("memcpy")
    2445                            .dwattr $C$DW$205, DW_AT_TI_call
    2446 000004e0 FFFEF7FF!         BL        memcpy                ; [DPU_3_PIPE] |1628|  ; [KEEP 32-BIT INS]
    2447                            ; CALL OCCURS {memcpy }          ; [] |1628| 
    2448                            .dwpsn  file "../Source/queue.c",line 1629,column 3,is_stmt,isa 1
    2449 000004e4 9800              LDR       A1, [SP, #0]          ; [DPU_3_PIPE] |1629|  ; [ORIG 16-BIT INS]
    2450 000004e6 9900              LDR       A2, [SP, #0]          ; [DPU_3_PIPE] |1629|  ; [ORIG 16-BIT INS]
    2451 000004e8 6C02              LDR       A3, [A1, #64]         ; [DPU_3_PIPE] |1629|  ; [ORIG 16-BIT INS]
    2452 000004ea 68C8              LDR       A1, [A2, #12]         ; [DPU_3_PIPE] |1629|  ; [ORIG 16-BIT INS]
    2453 000004ec 1A80              SUBS      A1, A1, A3            ; [DPU_3_PIPE] |1629|  ; [ORIG 16-BIT INS]
    2454 000004ee 60C8              STR       A1, [A2, #12]         ; [DPU_3_PIPE] |1629|  ; [ORIG 16-BIT INS]
    2455                            .dwpsn  file "../Source/queue.c",line 1630,column 3,is_stmt,isa 1
    2456 000004f0 9800              LDR       A1, [SP, #0]          ; [DPU_3_PIPE] |1630|  ; [ORIG 16-BIT INS]
    2457 000004f2 9900              LDR       A2, [SP, #0]          ; [DPU_3_PIPE] |1630|  ; [ORIG 16-BIT INS]
    2458 000004f4 6800              LDR       A1, [A1, #0]          ; [DPU_3_PIPE] |1630|  ; [ORIG 16-BIT INS]
    2459 000004f6 68C9              LDR       A2, [A2, #12]         ; [DPU_3_PIPE] |1630|  ; [ORIG 16-BIT INS]
    2460 000004f8 4288              CMP       A1, A2                ; [DPU_3_PIPE] |1630|  ; [ORIG 16-BIT INS]
    2461 000004fa D906              BLS       ||$C$L46||            ; [DPU_3_PIPE] |1630|  ; [ORIG 16-BIT INS]
    2462                            ; BRANCHCC OCCURS {||$C$L46||}   ; [] |1630| 
    2463                    ;* --------------------------------------------------------------------------*
    2464                            .dwpsn  file "../Source/queue.c",line 1632,column 4,is_stmt,isa 1
    2465 000004fc 9900              LDR       A2, [SP, #0]          ; [DPU_3_PIPE] |1632|  ; [ORIG 16-BIT INS]
    2466 000004fe 9800              LDR       A1, [SP, #0]          ; [DPU_3_PIPE] |1632|  ; [ORIG 16-BIT INS]
    2467 00000500 6C0A              LDR       A3, [A2, #64]         ; [DPU_3_PIPE] |1632|  ; [ORIG 16-BIT INS]
    2468 00000502 6840              LDR       A1, [A1, #4]          ; [DPU_3_PIPE] |1632|  ; [ORIG 16-BIT INS]
    2469 00000504 9900              LDR       A2, [SP, #0]          ; [DPU_3_PIPE] |1632|  ; [ORIG 16-BIT INS]
    2470 00000506 1A80              SUBS      A1, A1, A3            ; [DPU_3_PIPE] |1632|  ; [ORIG 16-BIT INS]
    2471 00000508 60C8              STR       A1, [A2, #12]         ; [DPU_3_PIPE] |1632|  ; [ORIG 16-BIT INS]
    2472                            .dwpsn  file "../Source/queue.c",line 1633,column 3,is_stmt,isa 1
    2473                    ;* --------------------------------------------------------------------------*
    2474 0000050a           ||$C$L46||:    
    2475                            .dwpsn  file "../Source/queue.c",line 1639,column 3,is_stmt,isa 1
TI ARM Assembler PC v5.1.7 Tue Sep 16 08:38:40 2014

Tools Copyright (c) 1996-2014 Texas Instruments Incorporated
queue.asm                                                            PAGE   46

    2476 0000050a 9802              LDR       A1, [SP, #8]          ; [DPU_3_PIPE] |1639|  ; [ORIG 16-BIT INS]
    2477 0000050c 2802              CMP       A1, #2                ; [DPU_3_PIPE] |1639|  ; [ORIG 16-BIT INS]
    2478 0000050e D107              BNE       ||$C$L47||            ; [DPU_3_PIPE] |1639|  ; [ORIG 16-BIT INS]
    2479                            ; BRANCHCC OCCURS {||$C$L47||}   ; [] |1639| 
    2480                    ;* --------------------------------------------------------------------------*
    2481                            .dwpsn  file "../Source/queue.c",line 1641,column 4,is_stmt,isa 1
    2482 00000510 9800              LDR       A1, [SP, #0]          ; [DPU_3_PIPE] |1641|  ; [ORIG 16-BIT INS]
    2483 00000512 6B80              LDR       A1, [A1, #56]         ; [DPU_3_PIPE] |1641|  ; [ORIG 16-BIT INS]
    2484 00000514 B120              CBZ       A1, ||$C$L47||        ; []  ; [ORIG 16-BIT INS]
    2485                            ; BRANCHCC OCCURS {||$C$L47||}   ; [] |1641| 
    2486                    ;* --------------------------------------------------------------------------*
    2487                            .dwpsn  file "../Source/queue.c",line 1647,column 5,is_stmt,isa 1
    2488 00000516 9900              LDR       A2, [SP, #0]          ; [DPU_3_PIPE] |1647|  ; [ORIG 16-BIT INS]
    2489 00000518 6B88              LDR       A1, [A2, #56]         ; [DPU_3_PIPE] |1647|  ; [ORIG 16-BIT INS]
    2490 0000051a 1E40              SUBS      A1, A1, #1            ; [DPU_3_PIPE] |1647|  ; [ORIG 16-BIT INS]
    2491 0000051c 6388              STR       A1, [A2, #56]         ; [DPU_3_PIPE] |1647|  ; [ORIG 16-BIT INS]
    2492                            .dwpsn  file "../Source/queue.c",line 1648,column 4,is_stmt,isa 1
    2493 0000051e E7FF              B         ||$C$L47||            ; [DPU_3_PIPE] |1648|  ; [ORIG 16-BIT INS]
    2494                            ; BRANCH OCCURS {||$C$L47||}     ; [] |1648| 
    2495                    ;* --------------------------------------------------------------------------*
    2496                    ;* --------------------------------------------------------------------------*
    2497 00000520           ||$C$L47||:    
    2498                            .dwpsn  file "../Source/queue.c",line 1660,column 2,is_stmt,isa 1
    2499 00000520 9900              LDR       A2, [SP, #0]          ; [DPU_3_PIPE] |1660|  ; [ORIG 16-BIT INS]
    2500 00000522 6B88              LDR       A1, [A2, #56]         ; [DPU_3_PIPE] |1660|  ; [ORIG 16-BIT INS]
    2501 00000524 1C40              ADDS      A1, A1, #1            ; [DPU_3_PIPE] |1660|  ; [ORIG 16-BIT INS]
    2502 00000526 6388              STR       A1, [A2, #56]         ; [DPU_3_PIPE] |1660|  ; [ORIG 16-BIT INS]
    2503                            .dwpsn  file "../Source/queue.c",line 1661,column 1,is_stmt,isa 1
    2504                    $C$DW$206       .dwtag  DW_TAG_TI_branch
    2505                            .dwattr $C$DW$206, DW_AT_low_pc(0x00)
    2506                            .dwattr $C$DW$206, DW_AT_TI_return
    2507 00000528 BD0E              POP       {A2, A3, A4, PC}      ; [DPU_3_PIPE]  ; [ORIG 16-BIT INS]
    2508                            .dwcfi  cfa_offset, 0
    2509                            ; BRANCH OCCURS                  ; [] 
    2510                            .dwattr $C$DW$197, DW_AT_TI_end_file("../Source/queue.c")
    2511                            .dwattr $C$DW$197, DW_AT_TI_end_line(0x67d)
    2512                            .dwattr $C$DW$197, DW_AT_TI_end_column(0x01)
    2513                            .dwendentry
    2514                            .dwendtag $C$DW$197
    2515                    
    2516 0000052a                   .sect   ".text"
    2517                            .clink
    2518                            .thumbfunc prvCopyDataFromQueue
    2519 0000052a                   .thumb
    2520                    
    2521                    $C$DW$207       .dwtag  DW_TAG_subprogram, DW_AT_name("prvCopyDataFromQueue")
    2522                            .dwattr $C$DW$207, DW_AT_low_pc(prvCopyDataFromQueue)
    2523                            .dwattr $C$DW$207, DW_AT_high_pc(0x00)
    2524                            .dwattr $C$DW$207, DW_AT_TI_symbol_name("prvCopyDataFromQueue")
    2525                            .dwattr $C$DW$207, DW_AT_TI_begin_file("../Source/queue.c")
    2526                            .dwattr $C$DW$207, DW_AT_TI_begin_line(0x680)
    2527                            .dwattr $C$DW$207, DW_AT_TI_begin_column(0x0d)
    2528                            .dwattr $C$DW$207, DW_AT_decl_file("../Source/queue.c")
    2529                            .dwattr $C$DW$207, DW_AT_decl_line(0x680)
    2530                            .dwattr $C$DW$207, DW_AT_decl_column(0x0d)
TI ARM Assembler PC v5.1.7 Tue Sep 16 08:38:40 2014

Tools Copyright (c) 1996-2014 Texas Instruments Incorporated
queue.asm                                                            PAGE   47

    2531                            .dwattr $C$DW$207, DW_AT_TI_max_frame_size(0x10)
    2532                            .dwpsn  file "../Source/queue.c",line 1665,column 1,is_stmt,address prvCopyDataFromQueue,isa 1
    2533                    
    2534                            .dwfde $C$DW$CIE, prvCopyDataFromQueue
    2535                    $C$DW$208       .dwtag  DW_TAG_formal_parameter, DW_AT_name("pxQueue")
    2536                            .dwattr $C$DW$208, DW_AT_TI_symbol_name("pxQueue")
    2537                            .dwattr $C$DW$208, DW_AT_type(*$C$DW$T$71)
    2538                            .dwattr $C$DW$208, DW_AT_location[DW_OP_reg0]
    2539                    $C$DW$209       .dwtag  DW_TAG_formal_parameter, DW_AT_name("pvBuffer")
    2540                            .dwattr $C$DW$209, DW_AT_TI_symbol_name("pvBuffer")
    2541                            .dwattr $C$DW$209, DW_AT_type(*$C$DW$T$86)
    2542                            .dwattr $C$DW$209, DW_AT_location[DW_OP_reg1]
    2543                    
    2544                    ;*****************************************************************************
    2545                    ;* FUNCTION NAME: prvCopyDataFromQueue                                       *
    2546                    ;*                                                                           *
    2547                    ;*   Regs Modified     : A1,A2,A3,A4,V9,SP,LR,SR,D0,D0_hi,D1,D1_hi,D2,D2_hi, *
    2548                    ;*                           D3,D3_hi,D4,D4_hi,D5,D5_hi,D6,D6_hi,D7,D7_hi,   *
    2549                    ;*                           FPEXC,FPSCR                                     *
    2550                    ;*   Regs Used         : A1,A2,A3,A4,V9,SP,LR,SR,D0,D0_hi,D1,D1_hi,D2,D2_hi, *
    2551                    ;*                           D3,D3_hi,D4,D4_hi,D5,D5_hi,D6,D6_hi,D7,D7_hi,   *
    2552                    ;*                           FPEXC,FPSCR                                     *
    2553                    ;*   Local Frame Size  : 0 Args + 8 Auto + 4 Save = 12 byte                  *
    2554                    ;*****************************************************************************
    2555 0000052a           prvCopyDataFromQueue:
    2556                    ;* --------------------------------------------------------------------------*
    2557                            .dwcfi  cfa_offset, 0
    2558 0000052a B50E              PUSH      {A2, A3, A4, LR}      ; [DPU_3_PIPE]  ; [ORIG 16-BIT INS]
    2559                            .dwcfi  cfa_offset, 16
    2560                            .dwcfi  save_reg_to_mem, 14, -4
    2561                            .dwcfi  save_reg_to_mem, 3, -8
    2562                            .dwcfi  save_reg_to_mem, 2, -12
    2563                            .dwcfi  save_reg_to_mem, 1, -16
    2564                    $C$DW$210       .dwtag  DW_TAG_variable, DW_AT_name("pxQueue")
    2565                            .dwattr $C$DW$210, DW_AT_TI_symbol_name("pxQueue")
    2566                            .dwattr $C$DW$210, DW_AT_type(*$C$DW$T$71)
    2567                            .dwattr $C$DW$210, DW_AT_location[DW_OP_breg13 0]
    2568                    $C$DW$211       .dwtag  DW_TAG_variable, DW_AT_name("pvBuffer")
    2569                            .dwattr $C$DW$211, DW_AT_TI_symbol_name("pvBuffer")
    2570                            .dwattr $C$DW$211, DW_AT_type(*$C$DW$T$86)
    2571                            .dwattr $C$DW$211, DW_AT_location[DW_OP_breg13 4]
    2572 0000052c 9101              STR       A2, [SP, #4]          ; [DPU_3_PIPE] |1665|  ; [ORIG 16-BIT INS]
    2573 0000052e 9000              STR       A1, [SP, #0]          ; [DPU_3_PIPE] |1665|  ; [ORIG 16-BIT INS]
    2574                            .dwpsn  file "../Source/queue.c",line 1666,column 2,is_stmt,isa 1
    2575 00000530 9800              LDR       A1, [SP, #0]          ; [DPU_3_PIPE] |1666|  ; [ORIG 16-BIT INS]
    2576 00000532 6800              LDR       A1, [A1, #0]          ; [DPU_3_PIPE] |1666|  ; [ORIG 16-BIT INS]
    2577 00000534 B1B8              CBZ       A1, ||$C$L49||        ; []  ; [ORIG 16-BIT INS]
    2578                            ; BRANCHCC OCCURS {||$C$L49||}   ; [] |1666| 
    2579                    ;* --------------------------------------------------------------------------*
    2580                            .dwpsn  file "../Source/queue.c",line 1668,column 3,is_stmt,isa 1
    2581 00000536 9900              LDR       A2, [SP, #0]          ; [DPU_3_PIPE] |1668|  ; [ORIG 16-BIT INS]
    2582 00000538 9800              LDR       A1, [SP, #0]          ; [DPU_3_PIPE] |1668|  ; [ORIG 16-BIT INS]
    2583 0000053a 68CA              LDR       A3, [A2, #12]         ; [DPU_3_PIPE] |1668|  ; [ORIG 16-BIT INS]
    2584 0000053c 6C00              LDR       A1, [A1, #64]         ; [DPU_3_PIPE] |1668|  ; [ORIG 16-BIT INS]
    2585 0000053e 1880              ADDS      A1, A1, A3            ; [DPU_3_PIPE] |1668|  ; [ORIG 16-BIT INS]
TI ARM Assembler PC v5.1.7 Tue Sep 16 08:38:40 2014

Tools Copyright (c) 1996-2014 Texas Instruments Incorporated
queue.asm                                                            PAGE   48

    2586 00000540 60C8              STR       A1, [A2, #12]         ; [DPU_3_PIPE] |1668|  ; [ORIG 16-BIT INS]
    2587                            .dwpsn  file "../Source/queue.c",line 1669,column 3,is_stmt,isa 1
    2588 00000542 9800              LDR       A1, [SP, #0]          ; [DPU_3_PIPE] |1669|  ; [ORIG 16-BIT INS]
    2589 00000544 9900              LDR       A2, [SP, #0]          ; [DPU_3_PIPE] |1669|  ; [ORIG 16-BIT INS]
    2590 00000546 6840              LDR       A1, [A1, #4]          ; [DPU_3_PIPE] |1669|  ; [ORIG 16-BIT INS]
    2591 00000548 68C9              LDR       A2, [A2, #12]         ; [DPU_3_PIPE] |1669|  ; [ORIG 16-BIT INS]
    2592 0000054a 4288              CMP       A1, A2                ; [DPU_3_PIPE] |1669|  ; [ORIG 16-BIT INS]
    2593 0000054c D803              BHI       ||$C$L48||            ; [DPU_3_PIPE] |1669|  ; [ORIG 16-BIT INS]
    2594                            ; BRANCHCC OCCURS {||$C$L48||}   ; [] |1669| 
    2595                    ;* --------------------------------------------------------------------------*
    2596                            .dwpsn  file "../Source/queue.c",line 1671,column 4,is_stmt,isa 1
    2597 0000054e 9800              LDR       A1, [SP, #0]          ; [DPU_3_PIPE] |1671|  ; [ORIG 16-BIT INS]
    2598 00000550 9900              LDR       A2, [SP, #0]          ; [DPU_3_PIPE] |1671|  ; [ORIG 16-BIT INS]
    2599 00000552 6800              LDR       A1, [A1, #0]          ; [DPU_3_PIPE] |1671|  ; [ORIG 16-BIT INS]
    2600 00000554 60C8              STR       A1, [A2, #12]         ; [DPU_3_PIPE] |1671|  ; [ORIG 16-BIT INS]
    2601                            .dwpsn  file "../Source/queue.c",line 1672,column 3,is_stmt,isa 1
    2602                    ;* --------------------------------------------------------------------------*
    2603 00000556           ||$C$L48||:    
    2604                            .dwpsn  file "../Source/queue.c",line 1677,column 3,is_stmt,isa 1
    2605 00000556 9900              LDR       A2, [SP, #0]          ; [DPU_3_PIPE] |1677|  ; [ORIG 16-BIT INS]
    2606 00000558 9A00              LDR       A3, [SP, #0]          ; [DPU_3_PIPE] |1677|  ; [ORIG 16-BIT INS]
    2607 0000055a 9801              LDR       A1, [SP, #4]          ; [DPU_3_PIPE] |1677|  ; [ORIG 16-BIT INS]
    2608 0000055c 68C9              LDR       A2, [A2, #12]         ; [DPU_3_PIPE] |1677|  ; [ORIG 16-BIT INS]
    2609 0000055e 6C12              LDR       A3, [A3, #64]         ; [DPU_3_PIPE] |1677|  ; [ORIG 16-BIT INS]
    2610                    $C$DW$212       .dwtag  DW_TAG_TI_branch
    2611                            .dwattr $C$DW$212, DW_AT_low_pc(0x00)
    2612                            .dwattr $C$DW$212, DW_AT_name("memcpy")
    2613                            .dwattr $C$DW$212, DW_AT_TI_call
    2614 00000560 FFFEF7FF!         BL        memcpy                ; [DPU_3_PIPE] |1677|  ; [KEEP 32-BIT INS]
    2615                            ; CALL OCCURS {memcpy }          ; [] |1677| 
    2616                            .dwpsn  file "../Source/queue.c",line 1678,column 2,is_stmt,isa 1
    2617 00000564 E7FF              B         ||$C$L49||            ; [DPU_3_PIPE] |1678|  ; [ORIG 16-BIT INS]
    2618                            ; BRANCH OCCURS {||$C$L49||}     ; [] |1678| 
    2619                    ;* --------------------------------------------------------------------------*
    2620                    ;* --------------------------------------------------------------------------*
    2621                    ||$C$L49||:    
    2622                    $C$DW$213       .dwtag  DW_TAG_TI_branch
    2623                            .dwattr $C$DW$213, DW_AT_low_pc(0x00)
    2624                            .dwattr $C$DW$213, DW_AT_TI_return
    2625 00000566 BD0E              POP       {A2, A3, A4, PC}      ; [DPU_3_PIPE]  ; [ORIG 16-BIT INS]
    2626                            .dwcfi  cfa_offset, 0
    2627                            ; BRANCH OCCURS                  ; [] 
    2628                            .dwattr $C$DW$207, DW_AT_TI_end_file("../Source/queue.c")
    2629                            .dwattr $C$DW$207, DW_AT_TI_end_line(0x693)
    2630                            .dwattr $C$DW$207, DW_AT_TI_end_column(0x01)
    2631                            .dwendentry
    2632                            .dwendtag $C$DW$207
    2633                    
    2634 00000568                   .sect   ".text"
    2635                            .clink
    2636                            .thumbfunc prvUnlockQueue
    2637 00000568                   .thumb
    2638                    
    2639                    $C$DW$214       .dwtag  DW_TAG_subprogram, DW_AT_name("prvUnlockQueue")
    2640                            .dwattr $C$DW$214, DW_AT_low_pc(prvUnlockQueue)
TI ARM Assembler PC v5.1.7 Tue Sep 16 08:38:40 2014

Tools Copyright (c) 1996-2014 Texas Instruments Incorporated
queue.asm                                                            PAGE   49

    2641                            .dwattr $C$DW$214, DW_AT_high_pc(0x00)
    2642                            .dwattr $C$DW$214, DW_AT_TI_symbol_name("prvUnlockQueue")
    2643                            .dwattr $C$DW$214, DW_AT_TI_begin_file("../Source/queue.c")
    2644                            .dwattr $C$DW$214, DW_AT_TI_begin_line(0x696)
    2645                            .dwattr $C$DW$214, DW_AT_TI_begin_column(0x0d)
    2646                            .dwattr $C$DW$214, DW_AT_decl_file("../Source/queue.c")
    2647                            .dwattr $C$DW$214, DW_AT_decl_line(0x696)
    2648                            .dwattr $C$DW$214, DW_AT_decl_column(0x0d)
    2649                            .dwattr $C$DW$214, DW_AT_TI_max_frame_size(0x08)
    2650                            .dwpsn  file "../Source/queue.c",line 1687,column 1,is_stmt,address prvUnlockQueue,isa 1
    2651                    
    2652                            .dwfde $C$DW$CIE, prvUnlockQueue
    2653                    $C$DW$215       .dwtag  DW_TAG_formal_parameter, DW_AT_name("pxQueue")
    2654                            .dwattr $C$DW$215, DW_AT_TI_symbol_name("pxQueue")
    2655                            .dwattr $C$DW$215, DW_AT_type(*$C$DW$T$71)
    2656                            .dwattr $C$DW$215, DW_AT_location[DW_OP_reg0]
    2657                    
    2658                    ;*****************************************************************************
    2659                    ;* FUNCTION NAME: prvUnlockQueue                                             *
    2660                    ;*                                                                           *
    2661                    ;*   Regs Modified     : A1,A2,A3,A4,V9,SP,LR,SR,D0,D0_hi,D1,D1_hi,D2,D2_hi, *
    2662                    ;*                           D3,D3_hi,D4,D4_hi,D5,D5_hi,D6,D6_hi,D7,D7_hi,   *
    2663                    ;*                           FPEXC,FPSCR                                     *
    2664                    ;*   Regs Used         : A1,A2,A3,A4,V9,SP,LR,SR,D0,D0_hi,D1,D1_hi,D2,D2_hi, *
    2665                    ;*                           D3,D3_hi,D4,D4_hi,D5,D5_hi,D6,D6_hi,D7,D7_hi,   *
    2666                    ;*                           FPEXC,FPSCR                                     *
    2667                    ;*   Local Frame Size  : 0 Args + 4 Auto + 4 Save = 8 byte                   *
    2668                    ;*****************************************************************************
    2669 00000568           prvUnlockQueue:
    2670                    ;* --------------------------------------------------------------------------*
    2671                            .dwcfi  cfa_offset, 0
    2672 00000568 B508              PUSH      {A4, LR}              ; [DPU_3_PIPE]  ; [ORIG 16-BIT INS]
    2673                            .dwcfi  cfa_offset, 8
    2674                            .dwcfi  save_reg_to_mem, 14, -4
    2675                            .dwcfi  save_reg_to_mem, 3, -8
    2676                    $C$DW$216       .dwtag  DW_TAG_variable, DW_AT_name("pxQueue")
    2677                            .dwattr $C$DW$216, DW_AT_TI_symbol_name("pxQueue")
    2678                            .dwattr $C$DW$216, DW_AT_type(*$C$DW$T$71)
    2679                            .dwattr $C$DW$216, DW_AT_location[DW_OP_breg13 0]
    2680 0000056a 9000              STR       A1, [SP, #0]          ; [DPU_3_PIPE] |1687|  ; [ORIG 16-BIT INS]
    2681                            .dwpsn  file "../Source/queue.c",line 1694,column 2,is_stmt,isa 1
    2682                    $C$DW$217       .dwtag  DW_TAG_TI_branch
    2683                            .dwattr $C$DW$217, DW_AT_low_pc(0x00)
    2684                            .dwattr $C$DW$217, DW_AT_name("vPortEnterCritical")
    2685                            .dwattr $C$DW$217, DW_AT_TI_call
    2686 0000056c FFFEF7FF!         BL        vPortEnterCritical    ; [DPU_3_PIPE] |1694|  ; [KEEP 32-BIT INS]
    2687                            ; CALL OCCURS {vPortEnterCritical }  ; [] |1694| 
    2688                            .dwpsn  file "../Source/queue.c",line 1697,column 3,is_stmt,isa 1
    2689 00000570 E011              B         ||$C$L53||            ; [DPU_3_PIPE] |1697|  ; [ORIG 16-BIT INS]
    2690                            ; BRANCH OCCURS {||$C$L53||}     ; [] |1697| 
    2691                    ;* --------------------------------------------------------------------------*
    2692 00000572           ||$C$L50||:    
    2693                            .dwpsn  file "../Source/queue.c",line 1744,column 5,is_stmt,isa 1
    2694 00000572 9800              LDR       A1, [SP, #0]          ; [DPU_3_PIPE] |1744|  ; [ORIG 16-BIT INS]
    2695 00000574 6A41              LDR       A2, [A1, #36]         ; [DPU_3_PIPE] |1744|  ; [ORIG 16-BIT INS]
TI ARM Assembler PC v5.1.7 Tue Sep 16 08:38:40 2014

Tools Copyright (c) 1996-2014 Texas Instruments Incorporated
queue.asm                                                            PAGE   50

    2696 00000576 2000              MOVS      A1, #0                ; [DPU_3_PIPE] |1744|  ; [ORIG 16-BIT INS]
    2697 00000578 B901              CBNZ      A2, ||$C$L51||        ; []  ; [ORIG 16-BIT INS]
    2698                            ; BRANCHCC OCCURS {||$C$L51||}   ; [] |1744| 
    2699                    ;* --------------------------------------------------------------------------*
    2700 0000057a 2001              MOVS      A1, #1                ; [DPU_3_PIPE] |1744|  ; [ORIG 16-BIT INS]
    2701                    ;* --------------------------------------------------------------------------*
    2702 0000057c           ||$C$L51||:    
    2703 0000057c B978              CBNZ      A1, ||$C$L54||        ; []  ; [ORIG 16-BIT INS]
    2704                            ; BRANCHCC OCCURS {||$C$L54||}   ; [] |1744| 
    2705                    ;* --------------------------------------------------------------------------*
    2706                            .dwpsn  file "../Source/queue.c",line 1746,column 6,is_stmt,isa 1
    2707 0000057e 9800              LDR       A1, [SP, #0]          ; [DPU_3_PIPE] |1746|  ; [ORIG 16-BIT INS]
    2708 00000580 3024              ADDS      A1, A1, #36           ; [DPU_3_PIPE] |1746|  ; [ORIG 16-BIT INS]
    2709                    $C$DW$218       .dwtag  DW_TAG_TI_branch
    2710                            .dwattr $C$DW$218, DW_AT_low_pc(0x00)
    2711                            .dwattr $C$DW$218, DW_AT_name("xTaskRemoveFromEventList")
    2712                            .dwattr $C$DW$218, DW_AT_TI_call
    2713 00000582 FFFEF7FF!         BL        xTaskRemoveFromEventList ; [DPU_3_PIPE] |1746|  ; [KEEP 32-BIT INS]
    2714                            ; CALL OCCURS {xTaskRemoveFromEventList }  ; [] |1746| 
    2715 00000586 B110              CBZ       A1, ||$C$L52||        ; []  ; [ORIG 16-BIT INS]
    2716                            ; BRANCHCC OCCURS {||$C$L52||}   ; [] |1746| 
    2717                    ;* --------------------------------------------------------------------------*
    2718                            .dwpsn  file "../Source/queue.c",line 1750,column 7,is_stmt,isa 1
    2719                    $C$DW$219       .dwtag  DW_TAG_TI_branch
    2720                            .dwattr $C$DW$219, DW_AT_low_pc(0x00)
    2721                            .dwattr $C$DW$219, DW_AT_name("vTaskMissedYield")
    2722                            .dwattr $C$DW$219, DW_AT_TI_call
    2723 00000588 FFFEF7FF!         BL        vTaskMissedYield      ; [DPU_3_PIPE] |1750|  ; [KEEP 32-BIT INS]
    2724                            ; CALL OCCURS {vTaskMissedYield }  ; [] |1750| 
    2725                            .dwpsn  file "../Source/queue.c",line 1751,column 6,is_stmt,isa 1
    2726 0000058c E7FF              B         ||$C$L52||            ; [DPU_3_PIPE] |1751|  ; [ORIG 16-BIT INS]
    2727                            ; BRANCH OCCURS {||$C$L52||}     ; [] |1751| 
    2728                    ;* --------------------------------------------------------------------------*
    2729                    ;* --------------------------------------------------------------------------*
    2730 0000058e           ||$C$L52||:    
    2731                            .dwpsn  file "../Source/queue.c",line 1764,column 4,is_stmt,isa 1
    2732 0000058e 9900              LDR       A2, [SP, #0]          ; [DPU_3_PIPE] |1764|  ; [ORIG 16-BIT INS]
    2733 00000590 6C88              LDR       A1, [A2, #72]         ; [DPU_3_PIPE] |1764|  ; [ORIG 16-BIT INS]
    2734 00000592 1E40              SUBS      A1, A1, #1            ; [DPU_3_PIPE] |1764|  ; [ORIG 16-BIT INS]
    2735 00000594 6488              STR       A1, [A2, #72]         ; [DPU_3_PIPE] |1764|  ; [ORIG 16-BIT INS]
    2736                    ;* --------------------------------------------------------------------------*
    2737                    ;*   BEGIN LOOP ||$C$L53||
    2738                    ;* --------------------------------------------------------------------------*
    2739 00000596           ||$C$L53||:    
    2740                            .dwpsn  file "../Source/queue.c",line 1697,column 10,is_stmt,isa 1
    2741 00000596 9800              LDR       A1, [SP, #0]          ; [DPU_3_PIPE] |1697|  ; [ORIG 16-BIT INS]
    2742 00000598 6C80              LDR       A1, [A1, #72]         ; [DPU_3_PIPE] |1697|  ; [ORIG 16-BIT INS]
    2743 0000059a 2800              CMP       A1, #0                ; [DPU_3_PIPE] |1697|  ; [ORIG 16-BIT INS]
    2744 0000059c DCE9              BGT       ||$C$L50||            ; [DPU_3_PIPE] |1697|  ; [ORIG 16-BIT INS]
    2745                            ; BRANCHCC OCCURS {||$C$L50||}   ; [] |1697| 
    2746                    ;* --------------------------------------------------------------------------*
    2747 0000059e           ||$C$L54||:    
    2748                            .dwpsn  file "../Source/queue.c",line 1767,column 3,is_stmt,isa 1
    2749 0000059e 9800              LDR       A1, [SP, #0]          ; [DPU_3_PIPE] |1767|  ; [ORIG 16-BIT INS]
    2750 000005a0 31FFF04F          MOV       A2, #-1               ; [DPU_3_PIPE] |1767|  ; [KEEP 32-BIT INS]
TI ARM Assembler PC v5.1.7 Tue Sep 16 08:38:40 2014

Tools Copyright (c) 1996-2014 Texas Instruments Incorporated
queue.asm                                                            PAGE   51

    2751 000005a4 6481              STR       A2, [A1, #72]         ; [DPU_3_PIPE] |1767|  ; [ORIG 16-BIT INS]
    2752                            .dwpsn  file "../Source/queue.c",line 1769,column 2,is_stmt,isa 1
    2753                    $C$DW$220       .dwtag  DW_TAG_TI_branch
    2754                            .dwattr $C$DW$220, DW_AT_low_pc(0x00)
    2755                            .dwattr $C$DW$220, DW_AT_name("vPortExitCritical")
    2756                            .dwattr $C$DW$220, DW_AT_TI_call
    2757 000005a6 FFFEF7FF!         BL        vPortExitCritical     ; [DPU_3_PIPE] |1769|  ; [KEEP 32-BIT INS]
    2758                            ; CALL OCCURS {vPortExitCritical }  ; [] |1769| 
    2759                            .dwpsn  file "../Source/queue.c",line 1772,column 2,is_stmt,isa 1
    2760                    $C$DW$221       .dwtag  DW_TAG_TI_branch
    2761                            .dwattr $C$DW$221, DW_AT_low_pc(0x00)
    2762                            .dwattr $C$DW$221, DW_AT_name("vPortEnterCritical")
    2763                            .dwattr $C$DW$221, DW_AT_TI_call
    2764 000005aa FFFEF7FF!         BL        vPortEnterCritical    ; [DPU_3_PIPE] |1772|  ; [KEEP 32-BIT INS]
    2765                            ; CALL OCCURS {vPortEnterCritical }  ; [] |1772| 
    2766                            .dwpsn  file "../Source/queue.c",line 1774,column 3,is_stmt,isa 1
    2767 000005ae E011              B         ||$C$L58||            ; [DPU_3_PIPE] |1774|  ; [ORIG 16-BIT INS]
    2768                            ; BRANCH OCCURS {||$C$L58||}     ; [] |1774| 
    2769                    ;* --------------------------------------------------------------------------*
    2770 000005b0           ||$C$L55||:    
    2771                            .dwpsn  file "../Source/queue.c",line 1776,column 4,is_stmt,isa 1
    2772 000005b0 9800              LDR       A1, [SP, #0]          ; [DPU_3_PIPE] |1776|  ; [ORIG 16-BIT INS]
    2773 000005b2 6901              LDR       A2, [A1, #16]         ; [DPU_3_PIPE] |1776|  ; [ORIG 16-BIT INS]
    2774 000005b4 2000              MOVS      A1, #0                ; [DPU_3_PIPE] |1776|  ; [ORIG 16-BIT INS]
    2775 000005b6 B901              CBNZ      A2, ||$C$L56||        ; []  ; [ORIG 16-BIT INS]
    2776                            ; BRANCHCC OCCURS {||$C$L56||}   ; [] |1776| 
    2777                    ;* --------------------------------------------------------------------------*
    2778 000005b8 2001              MOVS      A1, #1                ; [DPU_3_PIPE] |1776|  ; [ORIG 16-BIT INS]
    2779                    ;* --------------------------------------------------------------------------*
    2780 000005ba           ||$C$L56||:    
    2781 000005ba B978              CBNZ      A1, ||$C$L59||        ; []  ; [ORIG 16-BIT INS]
    2782                            ; BRANCHCC OCCURS {||$C$L59||}   ; [] |1776| 
    2783                    ;* --------------------------------------------------------------------------*
    2784                            .dwpsn  file "../Source/queue.c",line 1778,column 5,is_stmt,isa 1
    2785 000005bc 9800              LDR       A1, [SP, #0]          ; [DPU_3_PIPE] |1778|  ; [ORIG 16-BIT INS]
    2786 000005be 3010              ADDS      A1, A1, #16           ; [DPU_3_PIPE] |1778|  ; [ORIG 16-BIT INS]
    2787                    $C$DW$222       .dwtag  DW_TAG_TI_branch
    2788                            .dwattr $C$DW$222, DW_AT_low_pc(0x00)
    2789                            .dwattr $C$DW$222, DW_AT_name("xTaskRemoveFromEventList")
    2790                            .dwattr $C$DW$222, DW_AT_TI_call
    2791 000005c0 FFFEF7FF!         BL        xTaskRemoveFromEventList ; [DPU_3_PIPE] |1778|  ; [KEEP 32-BIT INS]
    2792                            ; CALL OCCURS {xTaskRemoveFromEventList }  ; [] |1778| 
    2793 000005c4 B108              CBZ       A1, ||$C$L57||        ; []  ; [ORIG 16-BIT INS]
    2794                            ; BRANCHCC OCCURS {||$C$L57||}   ; [] |1778| 
    2795                    ;* --------------------------------------------------------------------------*
    2796                            .dwpsn  file "../Source/queue.c",line 1780,column 6,is_stmt,isa 1
    2797                    $C$DW$223       .dwtag  DW_TAG_TI_branch
    2798                            .dwattr $C$DW$223, DW_AT_low_pc(0x00)
    2799                            .dwattr $C$DW$223, DW_AT_name("vTaskMissedYield")
    2800                            .dwattr $C$DW$223, DW_AT_TI_call
    2801 000005c6 FFFEF7FF!         BL        vTaskMissedYield      ; [DPU_3_PIPE] |1780|  ; [KEEP 32-BIT INS]
    2802                            ; CALL OCCURS {vTaskMissedYield }  ; [] |1780| 
    2803                            .dwpsn  file "../Source/queue.c",line 1781,column 5,is_stmt,isa 1
    2804                    ;* --------------------------------------------------------------------------*
    2805 000005ca           ||$C$L57||:    
TI ARM Assembler PC v5.1.7 Tue Sep 16 08:38:40 2014

Tools Copyright (c) 1996-2014 Texas Instruments Incorporated
queue.asm                                                            PAGE   52

    2806                            .dwpsn  file "../Source/queue.c",line 1787,column 5,is_stmt,isa 1
    2807 000005ca 9900              LDR       A2, [SP, #0]          ; [DPU_3_PIPE] |1787|  ; [ORIG 16-BIT INS]
    2808 000005cc 6C48              LDR       A1, [A2, #68]         ; [DPU_3_PIPE] |1787|  ; [ORIG 16-BIT INS]
    2809 000005ce 1E40              SUBS      A1, A1, #1            ; [DPU_3_PIPE] |1787|  ; [ORIG 16-BIT INS]
    2810 000005d0 6448              STR       A1, [A2, #68]         ; [DPU_3_PIPE] |1787|  ; [ORIG 16-BIT INS]
    2811                            .dwpsn  file "../Source/queue.c",line 1788,column 4,is_stmt,isa 1
    2812 000005d2 E7FF              B         ||$C$L58||            ; [DPU_3_PIPE] |1788|  ; [ORIG 16-BIT INS]
    2813                            ; BRANCH OCCURS {||$C$L58||}     ; [] |1788| 
    2814                    ;* --------------------------------------------------------------------------*
    2815                    ;* --------------------------------------------------------------------------*
    2816                    ;*   BEGIN LOOP ||$C$L58||
    2817                    ;* --------------------------------------------------------------------------*
    2818 000005d4           ||$C$L58||:    
    2819                            .dwpsn  file "../Source/queue.c",line 1774,column 10,is_stmt,isa 1
    2820 000005d4 9800              LDR       A1, [SP, #0]          ; [DPU_3_PIPE] |1774|  ; [ORIG 16-BIT INS]
    2821 000005d6 6C40              LDR       A1, [A1, #68]         ; [DPU_3_PIPE] |1774|  ; [ORIG 16-BIT INS]
    2822 000005d8 2800              CMP       A1, #0                ; [DPU_3_PIPE] |1774|  ; [ORIG 16-BIT INS]
    2823 000005da DCE9              BGT       ||$C$L55||            ; [DPU_3_PIPE] |1774|  ; [ORIG 16-BIT INS]
    2824                            ; BRANCHCC OCCURS {||$C$L55||}   ; [] |1774| 
    2825                    ;* --------------------------------------------------------------------------*
    2826 000005dc           ||$C$L59||:    
    2827                            .dwpsn  file "../Source/queue.c",line 1795,column 3,is_stmt,isa 1
    2828 000005dc 9800              LDR       A1, [SP, #0]          ; [DPU_3_PIPE] |1795|  ; [ORIG 16-BIT INS]
    2829 000005de 31FFF04F          MOV       A2, #-1               ; [DPU_3_PIPE] |1795|  ; [KEEP 32-BIT INS]
    2830 000005e2 6441              STR       A2, [A1, #68]         ; [DPU_3_PIPE] |1795|  ; [ORIG 16-BIT INS]
    2831                            .dwpsn  file "../Source/queue.c",line 1797,column 2,is_stmt,isa 1
    2832                    $C$DW$224       .dwtag  DW_TAG_TI_branch
    2833                            .dwattr $C$DW$224, DW_AT_low_pc(0x00)
    2834                            .dwattr $C$DW$224, DW_AT_name("vPortExitCritical")
    2835                            .dwattr $C$DW$224, DW_AT_TI_call
    2836 000005e4 FFFEF7FF!         BL        vPortExitCritical     ; [DPU_3_PIPE] |1797|  ; [KEEP 32-BIT INS]
    2837                            ; CALL OCCURS {vPortExitCritical }  ; [] |1797| 
    2838                            .dwpsn  file "../Source/queue.c",line 1798,column 1,is_stmt,isa 1
    2839                    $C$DW$225       .dwtag  DW_TAG_TI_branch
    2840                            .dwattr $C$DW$225, DW_AT_low_pc(0x00)
    2841                            .dwattr $C$DW$225, DW_AT_TI_return
    2842 000005e8 BD08              POP       {A4, PC}              ; [DPU_3_PIPE]  ; [ORIG 16-BIT INS]
    2843                            .dwcfi  cfa_offset, 0
    2844                            ; BRANCH OCCURS                  ; [] 
    2845                            .dwattr $C$DW$214, DW_AT_TI_end_file("../Source/queue.c")
    2846                            .dwattr $C$DW$214, DW_AT_TI_end_line(0x706)
    2847                            .dwattr $C$DW$214, DW_AT_TI_end_column(0x01)
    2848                            .dwendentry
    2849                            .dwendtag $C$DW$214
    2850                    
    2851 000005ea                   .sect   ".text"
    2852                            .clink
    2853                            .thumbfunc prvIsQueueEmpty
    2854 000005ea                   .thumb
    2855                    
    2856                    $C$DW$226       .dwtag  DW_TAG_subprogram, DW_AT_name("prvIsQueueEmpty")
    2857                            .dwattr $C$DW$226, DW_AT_low_pc(prvIsQueueEmpty)
    2858                            .dwattr $C$DW$226, DW_AT_high_pc(0x00)
    2859                            .dwattr $C$DW$226, DW_AT_TI_symbol_name("prvIsQueueEmpty")
    2860                            .dwattr $C$DW$226, DW_AT_type(*$C$DW$T$30)
TI ARM Assembler PC v5.1.7 Tue Sep 16 08:38:40 2014

Tools Copyright (c) 1996-2014 Texas Instruments Incorporated
queue.asm                                                            PAGE   53

    2861                            .dwattr $C$DW$226, DW_AT_TI_begin_file("../Source/queue.c")
    2862                            .dwattr $C$DW$226, DW_AT_TI_begin_line(0x709)
    2863                            .dwattr $C$DW$226, DW_AT_TI_begin_column(0x13)
    2864                            .dwattr $C$DW$226, DW_AT_decl_file("../Source/queue.c")
    2865                            .dwattr $C$DW$226, DW_AT_decl_line(0x709)
    2866                            .dwattr $C$DW$226, DW_AT_decl_column(0x13)
    2867                            .dwattr $C$DW$226, DW_AT_TI_max_frame_size(0x10)
    2868                            .dwpsn  file "../Source/queue.c",line 1802,column 1,is_stmt,address prvIsQueueEmpty,isa 1
    2869                    
    2870                            .dwfde $C$DW$CIE, prvIsQueueEmpty
    2871                    $C$DW$227       .dwtag  DW_TAG_formal_parameter, DW_AT_name("pxQueue")
    2872                            .dwattr $C$DW$227, DW_AT_TI_symbol_name("pxQueue")
    2873                            .dwattr $C$DW$227, DW_AT_type(*$C$DW$T$69)
    2874                            .dwattr $C$DW$227, DW_AT_location[DW_OP_reg0]
    2875                    
    2876                    ;*****************************************************************************
    2877                    ;* FUNCTION NAME: prvIsQueueEmpty                                            *
    2878                    ;*                                                                           *
    2879                    ;*   Regs Modified     : A1,A2,A3,A4,V9,SP,LR,SR,D0,D0_hi,D1,D1_hi,D2,D2_hi, *
    2880                    ;*                           D3,D3_hi,D4,D4_hi,D5,D5_hi,D6,D6_hi,D7,D7_hi,   *
    2881                    ;*                           FPEXC,FPSCR                                     *
    2882                    ;*   Regs Used         : A1,A2,A3,A4,V9,SP,LR,SR,D0,D0_hi,D1,D1_hi,D2,D2_hi, *
    2883                    ;*                           D3,D3_hi,D4,D4_hi,D5,D5_hi,D6,D6_hi,D7,D7_hi,   *
    2884                    ;*                           FPEXC,FPSCR                                     *
    2885                    ;*   Local Frame Size  : 0 Args + 8 Auto + 4 Save = 12 byte                  *
    2886                    ;*****************************************************************************
    2887 000005ea           prvIsQueueEmpty:
    2888                    ;* --------------------------------------------------------------------------*
    2889                            .dwcfi  cfa_offset, 0
    2890 000005ea B50E              PUSH      {A2, A3, A4, LR}      ; [DPU_3_PIPE]  ; [ORIG 16-BIT INS]
    2891                            .dwcfi  cfa_offset, 16
    2892                            .dwcfi  save_reg_to_mem, 14, -4
    2893                            .dwcfi  save_reg_to_mem, 3, -8
    2894                            .dwcfi  save_reg_to_mem, 2, -12
    2895                            .dwcfi  save_reg_to_mem, 1, -16
    2896                    $C$DW$228       .dwtag  DW_TAG_variable, DW_AT_name("pxQueue")
    2897                            .dwattr $C$DW$228, DW_AT_TI_symbol_name("pxQueue")
    2898                            .dwattr $C$DW$228, DW_AT_type(*$C$DW$T$69)
    2899                            .dwattr $C$DW$228, DW_AT_location[DW_OP_breg13 0]
    2900                    $C$DW$229       .dwtag  DW_TAG_variable, DW_AT_name("xReturn")
    2901                            .dwattr $C$DW$229, DW_AT_TI_symbol_name("xReturn")
    2902                            .dwattr $C$DW$229, DW_AT_type(*$C$DW$T$30)
    2903                            .dwattr $C$DW$229, DW_AT_location[DW_OP_breg13 4]
    2904 000005ec 9000              STR       A1, [SP, #0]          ; [DPU_3_PIPE] |1802|  ; [ORIG 16-BIT INS]
    2905                            .dwpsn  file "../Source/queue.c",line 1805,column 2,is_stmt,isa 1
    2906                    $C$DW$230       .dwtag  DW_TAG_TI_branch
    2907                            .dwattr $C$DW$230, DW_AT_low_pc(0x00)
    2908                            .dwattr $C$DW$230, DW_AT_name("vPortEnterCritical")
    2909                            .dwattr $C$DW$230, DW_AT_TI_call
    2910 000005ee FFFEF7FF!         BL        vPortEnterCritical    ; [DPU_3_PIPE] |1805|  ; [KEEP 32-BIT INS]
    2911                            ; CALL OCCURS {vPortEnterCritical }  ; [] |1805| 
    2912                            .dwpsn  file "../Source/queue.c",line 1807,column 3,is_stmt,isa 1
    2913 000005f2 9800              LDR       A1, [SP, #0]          ; [DPU_3_PIPE] |1807|  ; [ORIG 16-BIT INS]
    2914 000005f4 6B80              LDR       A1, [A1, #56]         ; [DPU_3_PIPE] |1807|  ; [ORIG 16-BIT INS]
    2915 000005f6 B910              CBNZ      A1, ||$C$L60||        ; []  ; [ORIG 16-BIT INS]
TI ARM Assembler PC v5.1.7 Tue Sep 16 08:38:40 2014

Tools Copyright (c) 1996-2014 Texas Instruments Incorporated
queue.asm                                                            PAGE   54

    2916                            ; BRANCHCC OCCURS {||$C$L60||}   ; [] |1807| 
    2917                    ;* --------------------------------------------------------------------------*
    2918                            .dwpsn  file "../Source/queue.c",line 1809,column 4,is_stmt,isa 1
    2919 000005f8 2001              MOVS      A1, #1                ; [DPU_3_PIPE] |1809|  ; [ORIG 16-BIT INS]
    2920 000005fa 9001              STR       A1, [SP, #4]          ; [DPU_3_PIPE] |1809|  ; [ORIG 16-BIT INS]
    2921                            .dwpsn  file "../Source/queue.c",line 1810,column 3,is_stmt,isa 1
    2922 000005fc E001              B         ||$C$L61||            ; [DPU_3_PIPE] |1810|  ; [ORIG 16-BIT INS]
    2923                            ; BRANCH OCCURS {||$C$L61||}     ; [] |1810| 
    2924                    ;* --------------------------------------------------------------------------*
    2925 000005fe           ||$C$L60||:    
    2926                            .dwpsn  file "../Source/queue.c",line 1813,column 4,is_stmt,isa 1
    2927 000005fe 2000              MOVS      A1, #0                ; [DPU_3_PIPE] |1813|  ; [ORIG 16-BIT INS]
    2928 00000600 9001              STR       A1, [SP, #4]          ; [DPU_3_PIPE] |1813|  ; [ORIG 16-BIT INS]
    2929                    ;* --------------------------------------------------------------------------*
    2930 00000602           ||$C$L61||:    
    2931                            .dwpsn  file "../Source/queue.c",line 1816,column 2,is_stmt,isa 1
    2932                    $C$DW$231       .dwtag  DW_TAG_TI_branch
    2933                            .dwattr $C$DW$231, DW_AT_low_pc(0x00)
    2934                            .dwattr $C$DW$231, DW_AT_name("vPortExitCritical")
    2935                            .dwattr $C$DW$231, DW_AT_TI_call
    2936 00000602 FFFEF7FF!         BL        vPortExitCritical     ; [DPU_3_PIPE] |1816|  ; [KEEP 32-BIT INS]
    2937                            ; CALL OCCURS {vPortExitCritical }  ; [] |1816| 
    2938                            .dwpsn  file "../Source/queue.c",line 1818,column 2,is_stmt,isa 1
    2939 00000606 9801              LDR       A1, [SP, #4]          ; [DPU_3_PIPE] |1818|  ; [ORIG 16-BIT INS]
    2940                            .dwpsn  file "../Source/queue.c",line 1819,column 1,is_stmt,isa 1
    2941                    $C$DW$232       .dwtag  DW_TAG_TI_branch
    2942                            .dwattr $C$DW$232, DW_AT_low_pc(0x00)
    2943                            .dwattr $C$DW$232, DW_AT_TI_return
    2944 00000608 BD0E              POP       {A2, A3, A4, PC}      ; [DPU_3_PIPE]  ; [ORIG 16-BIT INS]
    2945                            .dwcfi  cfa_offset, 0
    2946                            ; BRANCH OCCURS                  ; [] 
    2947                            .dwattr $C$DW$226, DW_AT_TI_end_file("../Source/queue.c")
    2948                            .dwattr $C$DW$226, DW_AT_TI_end_line(0x71b)
    2949                            .dwattr $C$DW$226, DW_AT_TI_end_column(0x01)
    2950                            .dwendentry
    2951                            .dwendtag $C$DW$226
    2952                    
    2953 0000060a                   .sect   ".text"
    2954                            .clink
    2955                            .thumbfunc xQueueIsQueueEmptyFromISR
    2956 0000060a                   .thumb
    2957                            .global xQueueIsQueueEmptyFromISR
    2958                    
    2959                    $C$DW$233       .dwtag  DW_TAG_subprogram, DW_AT_name("xQueueIsQueueEmptyFromISR")
    2960                            .dwattr $C$DW$233, DW_AT_low_pc(xQueueIsQueueEmptyFromISR)
    2961                            .dwattr $C$DW$233, DW_AT_high_pc(0x00)
    2962                            .dwattr $C$DW$233, DW_AT_TI_symbol_name("xQueueIsQueueEmptyFromISR")
    2963                            .dwattr $C$DW$233, DW_AT_external
    2964                            .dwattr $C$DW$233, DW_AT_type(*$C$DW$T$30)
    2965                            .dwattr $C$DW$233, DW_AT_TI_begin_file("../Source/queue.c")
    2966                            .dwattr $C$DW$233, DW_AT_TI_begin_line(0x71e)
    2967                            .dwattr $C$DW$233, DW_AT_TI_begin_column(0x0c)
    2968                            .dwattr $C$DW$233, DW_AT_decl_file("../Source/queue.c")
    2969                            .dwattr $C$DW$233, DW_AT_decl_line(0x71e)
    2970                            .dwattr $C$DW$233, DW_AT_decl_column(0x0c)
TI ARM Assembler PC v5.1.7 Tue Sep 16 08:38:40 2014

Tools Copyright (c) 1996-2014 Texas Instruments Incorporated
queue.asm                                                            PAGE   55

    2971                            .dwattr $C$DW$233, DW_AT_TI_max_frame_size(0x08)
    2972                            .dwpsn  file "../Source/queue.c",line 1823,column 1,is_stmt,address xQueueIsQueueEmptyFromISR,
    2973                    
    2974                            .dwfde $C$DW$CIE, xQueueIsQueueEmptyFromISR
    2975                    $C$DW$234       .dwtag  DW_TAG_formal_parameter, DW_AT_name("xQueue")
    2976                            .dwattr $C$DW$234, DW_AT_TI_symbol_name("xQueue")
    2977                            .dwattr $C$DW$234, DW_AT_type(*$C$DW$T$73)
    2978                            .dwattr $C$DW$234, DW_AT_location[DW_OP_reg0]
    2979                    
    2980                    ;*****************************************************************************
    2981                    ;* FUNCTION NAME: xQueueIsQueueEmptyFromISR                                  *
    2982                    ;*                                                                           *
    2983                    ;*   Regs Modified     : A1,SP,SR                                            *
    2984                    ;*   Regs Used         : A1,SP,LR,SR                                         *
    2985                    ;*   Local Frame Size  : 0 Args + 8 Auto + 0 Save = 8 byte                   *
    2986                    ;*****************************************************************************
    2987 0000060a           xQueueIsQueueEmptyFromISR:
    2988                    ;* --------------------------------------------------------------------------*
    2989                            .dwcfi  cfa_offset, 0
    2990 0000060a 0D08F1AD          SUB       SP, SP, #8            ; [DPU_3_PIPE]  ; [KEEP 32-BIT INS]
    2991                            .dwcfi  cfa_offset, 8
    2992                    $C$DW$235       .dwtag  DW_TAG_variable, DW_AT_name("xQueue")
    2993                            .dwattr $C$DW$235, DW_AT_TI_symbol_name("xQueue")
    2994                            .dwattr $C$DW$235, DW_AT_type(*$C$DW$T$73)
    2995                            .dwattr $C$DW$235, DW_AT_location[DW_OP_breg13 0]
    2996                    $C$DW$236       .dwtag  DW_TAG_variable, DW_AT_name("xReturn")
    2997                            .dwattr $C$DW$236, DW_AT_TI_symbol_name("xReturn")
    2998                            .dwattr $C$DW$236, DW_AT_type(*$C$DW$T$30)
    2999                            .dwattr $C$DW$236, DW_AT_location[DW_OP_breg13 4]
    3000 0000060e 9000              STR       A1, [SP, #0]          ; [DPU_3_PIPE] |1823|  ; [ORIG 16-BIT INS]
    3001                            .dwpsn  file "../Source/queue.c",line 1827,column 2,is_stmt,isa 1
    3002 00000610 9800              LDR       A1, [SP, #0]          ; [DPU_3_PIPE] |1827|  ; [ORIG 16-BIT INS]
    3003 00000612 6B80              LDR       A1, [A1, #56]         ; [DPU_3_PIPE] |1827|  ; [ORIG 16-BIT INS]
    3004 00000614 B910              CBNZ      A1, ||$C$L62||        ; []  ; [ORIG 16-BIT INS]
    3005                            ; BRANCHCC OCCURS {||$C$L62||}   ; [] |1827| 
    3006                    ;* --------------------------------------------------------------------------*
    3007                            .dwpsn  file "../Source/queue.c",line 1829,column 3,is_stmt,isa 1
    3008 00000616 2001              MOVS      A1, #1                ; [DPU_3_PIPE] |1829|  ; [ORIG 16-BIT INS]
    3009 00000618 9001              STR       A1, [SP, #4]          ; [DPU_3_PIPE] |1829|  ; [ORIG 16-BIT INS]
    3010                            .dwpsn  file "../Source/queue.c",line 1830,column 2,is_stmt,isa 1
    3011 0000061a E001              B         ||$C$L63||            ; [DPU_3_PIPE] |1830|  ; [ORIG 16-BIT INS]
    3012                            ; BRANCH OCCURS {||$C$L63||}     ; [] |1830| 
    3013                    ;* --------------------------------------------------------------------------*
    3014 0000061c           ||$C$L62||:    
    3015                            .dwpsn  file "../Source/queue.c",line 1833,column 3,is_stmt,isa 1
    3016 0000061c 2000              MOVS      A1, #0                ; [DPU_3_PIPE] |1833|  ; [ORIG 16-BIT INS]
    3017 0000061e 9001              STR       A1, [SP, #4]          ; [DPU_3_PIPE] |1833|  ; [ORIG 16-BIT INS]
    3018                    ;* --------------------------------------------------------------------------*
    3019 00000620           ||$C$L63||:    
    3020                            .dwpsn  file "../Source/queue.c",line 1836,column 2,is_stmt,isa 1
    3021 00000620 9801              LDR       A1, [SP, #4]          ; [DPU_3_PIPE] |1836|  ; [ORIG 16-BIT INS]
    3022                            .dwpsn  file "../Source/queue.c",line 1837,column 1,is_stmt,isa 1
    3023 00000622 B002              ADD       SP, SP, #8            ; [DPU_3_PIPE]  ; [ORIG 16-BIT INS]
    3024                            .dwcfi  cfa_offset, 0
    3025                    $C$DW$237       .dwtag  DW_TAG_TI_branch
TI ARM Assembler PC v5.1.7 Tue Sep 16 08:38:40 2014

Tools Copyright (c) 1996-2014 Texas Instruments Incorporated
queue.asm                                                            PAGE   56

    3026                            .dwattr $C$DW$237, DW_AT_low_pc(0x00)
    3027                            .dwattr $C$DW$237, DW_AT_TI_return
    3028 00000624 4770              BX        LR                    ; [DPU_3_PIPE]  ; [ORIG 16-BIT INS]
    3029                            ; BRANCH OCCURS                  ; [] 
    3030                            .dwattr $C$DW$233, DW_AT_TI_end_file("../Source/queue.c")
    3031                            .dwattr $C$DW$233, DW_AT_TI_end_line(0x72d)
    3032                            .dwattr $C$DW$233, DW_AT_TI_end_column(0x01)
    3033                            .dwendentry
    3034                            .dwendtag $C$DW$233
    3035                    
    3036 00000626                   .sect   ".text"
    3037                            .clink
    3038                            .thumbfunc prvIsQueueFull
    3039 00000626                   .thumb
    3040                    
    3041                    $C$DW$238       .dwtag  DW_TAG_subprogram, DW_AT_name("prvIsQueueFull")
    3042                            .dwattr $C$DW$238, DW_AT_low_pc(prvIsQueueFull)
    3043                            .dwattr $C$DW$238, DW_AT_high_pc(0x00)
    3044                            .dwattr $C$DW$238, DW_AT_TI_symbol_name("prvIsQueueFull")
    3045                            .dwattr $C$DW$238, DW_AT_type(*$C$DW$T$30)
    3046                            .dwattr $C$DW$238, DW_AT_TI_begin_file("../Source/queue.c")
    3047                            .dwattr $C$DW$238, DW_AT_TI_begin_line(0x730)
    3048                            .dwattr $C$DW$238, DW_AT_TI_begin_column(0x13)
    3049                            .dwattr $C$DW$238, DW_AT_decl_file("../Source/queue.c")
    3050                            .dwattr $C$DW$238, DW_AT_decl_line(0x730)
    3051                            .dwattr $C$DW$238, DW_AT_decl_column(0x13)
    3052                            .dwattr $C$DW$238, DW_AT_TI_max_frame_size(0x10)
    3053                            .dwpsn  file "../Source/queue.c",line 1841,column 1,is_stmt,address prvIsQueueFull,isa 1
    3054                    
    3055                            .dwfde $C$DW$CIE, prvIsQueueFull
    3056                    $C$DW$239       .dwtag  DW_TAG_formal_parameter, DW_AT_name("pxQueue")
    3057                            .dwattr $C$DW$239, DW_AT_TI_symbol_name("pxQueue")
    3058                            .dwattr $C$DW$239, DW_AT_type(*$C$DW$T$69)
    3059                            .dwattr $C$DW$239, DW_AT_location[DW_OP_reg0]
    3060                    
    3061                    ;*****************************************************************************
    3062                    ;* FUNCTION NAME: prvIsQueueFull                                             *
    3063                    ;*                                                                           *
    3064                    ;*   Regs Modified     : A1,A2,A3,A4,V9,SP,LR,SR,D0,D0_hi,D1,D1_hi,D2,D2_hi, *
    3065                    ;*                           D3,D3_hi,D4,D4_hi,D5,D5_hi,D6,D6_hi,D7,D7_hi,   *
    3066                    ;*                           FPEXC,FPSCR                                     *
    3067                    ;*   Regs Used         : A1,A2,A3,A4,V9,SP,LR,SR,D0,D0_hi,D1,D1_hi,D2,D2_hi, *
    3068                    ;*                           D3,D3_hi,D4,D4_hi,D5,D5_hi,D6,D6_hi,D7,D7_hi,   *
    3069                    ;*                           FPEXC,FPSCR                                     *
    3070                    ;*   Local Frame Size  : 0 Args + 8 Auto + 4 Save = 12 byte                  *
    3071                    ;*****************************************************************************
    3072 00000626           prvIsQueueFull:
    3073                    ;* --------------------------------------------------------------------------*
    3074                            .dwcfi  cfa_offset, 0
    3075 00000626 B50E              PUSH      {A2, A3, A4, LR}      ; [DPU_3_PIPE]  ; [ORIG 16-BIT INS]
    3076                            .dwcfi  cfa_offset, 16
    3077                            .dwcfi  save_reg_to_mem, 14, -4
    3078                            .dwcfi  save_reg_to_mem, 3, -8
    3079                            .dwcfi  save_reg_to_mem, 2, -12
    3080                            .dwcfi  save_reg_to_mem, 1, -16
TI ARM Assembler PC v5.1.7 Tue Sep 16 08:38:40 2014

Tools Copyright (c) 1996-2014 Texas Instruments Incorporated
queue.asm                                                            PAGE   57

    3081                    $C$DW$240       .dwtag  DW_TAG_variable, DW_AT_name("pxQueue")
    3082                            .dwattr $C$DW$240, DW_AT_TI_symbol_name("pxQueue")
    3083                            .dwattr $C$DW$240, DW_AT_type(*$C$DW$T$69)
    3084                            .dwattr $C$DW$240, DW_AT_location[DW_OP_breg13 0]
    3085                    $C$DW$241       .dwtag  DW_TAG_variable, DW_AT_name("xReturn")
    3086                            .dwattr $C$DW$241, DW_AT_TI_symbol_name("xReturn")
    3087                            .dwattr $C$DW$241, DW_AT_type(*$C$DW$T$30)
    3088                            .dwattr $C$DW$241, DW_AT_location[DW_OP_breg13 4]
    3089 00000628 9000              STR       A1, [SP, #0]          ; [DPU_3_PIPE] |1841|  ; [ORIG 16-BIT INS]
    3090                            .dwpsn  file "../Source/queue.c",line 1844,column 2,is_stmt,isa 1
    3091                    $C$DW$242       .dwtag  DW_TAG_TI_branch
    3092                            .dwattr $C$DW$242, DW_AT_low_pc(0x00)
    3093                            .dwattr $C$DW$242, DW_AT_name("vPortEnterCritical")
    3094                            .dwattr $C$DW$242, DW_AT_TI_call
    3095 0000062a FFFEF7FF!         BL        vPortEnterCritical    ; [DPU_3_PIPE] |1844|  ; [KEEP 32-BIT INS]
    3096                            ; CALL OCCURS {vPortEnterCritical }  ; [] |1844| 
    3097                            .dwpsn  file "../Source/queue.c",line 1846,column 3,is_stmt,isa 1
    3098 0000062e 9800              LDR       A1, [SP, #0]          ; [DPU_3_PIPE] |1846|  ; [ORIG 16-BIT INS]
    3099 00000630 9900              LDR       A2, [SP, #0]          ; [DPU_3_PIPE] |1846|  ; [ORIG 16-BIT INS]
    3100 00000632 6BC0              LDR       A1, [A1, #60]         ; [DPU_3_PIPE] |1846|  ; [ORIG 16-BIT INS]
    3101 00000634 6B89              LDR       A2, [A2, #56]         ; [DPU_3_PIPE] |1846|  ; [ORIG 16-BIT INS]
    3102 00000636 4288              CMP       A1, A2                ; [DPU_3_PIPE] |1846|  ; [ORIG 16-BIT INS]
    3103 00000638 D102              BNE       ||$C$L64||            ; [DPU_3_PIPE] |1846|  ; [ORIG 16-BIT INS]
    3104                            ; BRANCHCC OCCURS {||$C$L64||}   ; [] |1846| 
    3105                    ;* --------------------------------------------------------------------------*
    3106                            .dwpsn  file "../Source/queue.c",line 1848,column 4,is_stmt,isa 1
    3107 0000063a 2001              MOVS      A1, #1                ; [DPU_3_PIPE] |1848|  ; [ORIG 16-BIT INS]
    3108 0000063c 9001              STR       A1, [SP, #4]          ; [DPU_3_PIPE] |1848|  ; [ORIG 16-BIT INS]
    3109                            .dwpsn  file "../Source/queue.c",line 1849,column 3,is_stmt,isa 1
    3110 0000063e E001              B         ||$C$L65||            ; [DPU_3_PIPE] |1849|  ; [ORIG 16-BIT INS]
    3111                            ; BRANCH OCCURS {||$C$L65||}     ; [] |1849| 
    3112                    ;* --------------------------------------------------------------------------*
    3113 00000640           ||$C$L64||:    
    3114                            .dwpsn  file "../Source/queue.c",line 1852,column 4,is_stmt,isa 1
    3115 00000640 2000              MOVS      A1, #0                ; [DPU_3_PIPE] |1852|  ; [ORIG 16-BIT INS]
    3116 00000642 9001              STR       A1, [SP, #4]          ; [DPU_3_PIPE] |1852|  ; [ORIG 16-BIT INS]
    3117                    ;* --------------------------------------------------------------------------*
    3118 00000644           ||$C$L65||:    
    3119                            .dwpsn  file "../Source/queue.c",line 1855,column 2,is_stmt,isa 1
    3120                    $C$DW$243       .dwtag  DW_TAG_TI_branch
    3121                            .dwattr $C$DW$243, DW_AT_low_pc(0x00)
    3122                            .dwattr $C$DW$243, DW_AT_name("vPortExitCritical")
    3123                            .dwattr $C$DW$243, DW_AT_TI_call
    3124 00000644 FFFEF7FF!         BL        vPortExitCritical     ; [DPU_3_PIPE] |1855|  ; [KEEP 32-BIT INS]
    3125                            ; CALL OCCURS {vPortExitCritical }  ; [] |1855| 
    3126                            .dwpsn  file "../Source/queue.c",line 1857,column 2,is_stmt,isa 1
    3127 00000648 9801              LDR       A1, [SP, #4]          ; [DPU_3_PIPE] |1857|  ; [ORIG 16-BIT INS]
    3128                            .dwpsn  file "../Source/queue.c",line 1858,column 1,is_stmt,isa 1
    3129                    $C$DW$244       .dwtag  DW_TAG_TI_branch
    3130                            .dwattr $C$DW$244, DW_AT_low_pc(0x00)
    3131                            .dwattr $C$DW$244, DW_AT_TI_return
    3132 0000064a BD0E              POP       {A2, A3, A4, PC}      ; [DPU_3_PIPE]  ; [ORIG 16-BIT INS]
    3133                            .dwcfi  cfa_offset, 0
    3134                            ; BRANCH OCCURS                  ; [] 
    3135                            .dwattr $C$DW$238, DW_AT_TI_end_file("../Source/queue.c")
TI ARM Assembler PC v5.1.7 Tue Sep 16 08:38:40 2014

Tools Copyright (c) 1996-2014 Texas Instruments Incorporated
queue.asm                                                            PAGE   58

    3136                            .dwattr $C$DW$238, DW_AT_TI_end_line(0x742)
    3137                            .dwattr $C$DW$238, DW_AT_TI_end_column(0x01)
    3138                            .dwendentry
    3139                            .dwendtag $C$DW$238
    3140                    
    3141 0000064c                   .sect   ".text"
    3142                            .clink
    3143                            .thumbfunc xQueueIsQueueFullFromISR
    3144 0000064c                   .thumb
    3145                            .global xQueueIsQueueFullFromISR
    3146                    
    3147                    $C$DW$245       .dwtag  DW_TAG_subprogram, DW_AT_name("xQueueIsQueueFullFromISR")
    3148                            .dwattr $C$DW$245, DW_AT_low_pc(xQueueIsQueueFullFromISR)
    3149                            .dwattr $C$DW$245, DW_AT_high_pc(0x00)
    3150                            .dwattr $C$DW$245, DW_AT_TI_symbol_name("xQueueIsQueueFullFromISR")
    3151                            .dwattr $C$DW$245, DW_AT_external
    3152                            .dwattr $C$DW$245, DW_AT_type(*$C$DW$T$30)
    3153                            .dwattr $C$DW$245, DW_AT_TI_begin_file("../Source/queue.c")
    3154                            .dwattr $C$DW$245, DW_AT_TI_begin_line(0x745)
    3155                            .dwattr $C$DW$245, DW_AT_TI_begin_column(0x0c)
    3156                            .dwattr $C$DW$245, DW_AT_decl_file("../Source/queue.c")
    3157                            .dwattr $C$DW$245, DW_AT_decl_line(0x745)
    3158                            .dwattr $C$DW$245, DW_AT_decl_column(0x0c)
    3159                            .dwattr $C$DW$245, DW_AT_TI_max_frame_size(0x08)
    3160                            .dwpsn  file "../Source/queue.c",line 1862,column 1,is_stmt,address xQueueIsQueueFullFromISR,i
    3161                    
    3162                            .dwfde $C$DW$CIE, xQueueIsQueueFullFromISR
    3163                    $C$DW$246       .dwtag  DW_TAG_formal_parameter, DW_AT_name("xQueue")
    3164                            .dwattr $C$DW$246, DW_AT_TI_symbol_name("xQueue")
    3165                            .dwattr $C$DW$246, DW_AT_type(*$C$DW$T$73)
    3166                            .dwattr $C$DW$246, DW_AT_location[DW_OP_reg0]
    3167                    
    3168                    ;*****************************************************************************
    3169                    ;* FUNCTION NAME: xQueueIsQueueFullFromISR                                   *
    3170                    ;*                                                                           *
    3171                    ;*   Regs Modified     : A1,A2,SP,SR                                         *
    3172                    ;*   Regs Used         : A1,A2,SP,LR,SR                                      *
    3173                    ;*   Local Frame Size  : 0 Args + 8 Auto + 0 Save = 8 byte                   *
    3174                    ;*****************************************************************************
    3175 0000064c           xQueueIsQueueFullFromISR:
    3176                    ;* --------------------------------------------------------------------------*
    3177                            .dwcfi  cfa_offset, 0
    3178 0000064c 0D08F1AD          SUB       SP, SP, #8            ; [DPU_3_PIPE]  ; [KEEP 32-BIT INS]
    3179                            .dwcfi  cfa_offset, 8
    3180                    $C$DW$247       .dwtag  DW_TAG_variable, DW_AT_name("xQueue")
    3181                            .dwattr $C$DW$247, DW_AT_TI_symbol_name("xQueue")
    3182                            .dwattr $C$DW$247, DW_AT_type(*$C$DW$T$73)
    3183                            .dwattr $C$DW$247, DW_AT_location[DW_OP_breg13 0]
    3184                    $C$DW$248       .dwtag  DW_TAG_variable, DW_AT_name("xReturn")
    3185                            .dwattr $C$DW$248, DW_AT_TI_symbol_name("xReturn")
    3186                            .dwattr $C$DW$248, DW_AT_type(*$C$DW$T$30)
    3187                            .dwattr $C$DW$248, DW_AT_location[DW_OP_breg13 4]
    3188 00000650 9000              STR       A1, [SP, #0]          ; [DPU_3_PIPE] |1862|  ; [ORIG 16-BIT INS]
    3189                            .dwpsn  file "../Source/queue.c",line 1866,column 2,is_stmt,isa 1
    3190 00000652 9900              LDR       A2, [SP, #0]          ; [DPU_3_PIPE] |1866|  ; [ORIG 16-BIT INS]
TI ARM Assembler PC v5.1.7 Tue Sep 16 08:38:40 2014

Tools Copyright (c) 1996-2014 Texas Instruments Incorporated
queue.asm                                                            PAGE   59

    3191 00000654 9800              LDR       A1, [SP, #0]          ; [DPU_3_PIPE] |1866|  ; [ORIG 16-BIT INS]
    3192 00000656 6B89              LDR       A2, [A2, #56]         ; [DPU_3_PIPE] |1866|  ; [ORIG 16-BIT INS]
    3193 00000658 6BC0              LDR       A1, [A1, #60]         ; [DPU_3_PIPE] |1866|  ; [ORIG 16-BIT INS]
    3194 0000065a 4288              CMP       A1, A2                ; [DPU_3_PIPE] |1866|  ; [ORIG 16-BIT INS]
    3195 0000065c D102              BNE       ||$C$L66||            ; [DPU_3_PIPE] |1866|  ; [ORIG 16-BIT INS]
    3196                            ; BRANCHCC OCCURS {||$C$L66||}   ; [] |1866| 
    3197                    ;* --------------------------------------------------------------------------*
    3198                            .dwpsn  file "../Source/queue.c",line 1868,column 3,is_stmt,isa 1
    3199 0000065e 2001              MOVS      A1, #1                ; [DPU_3_PIPE] |1868|  ; [ORIG 16-BIT INS]
    3200 00000660 9001              STR       A1, [SP, #4]          ; [DPU_3_PIPE] |1868|  ; [ORIG 16-BIT INS]
    3201                            .dwpsn  file "../Source/queue.c",line 1869,column 2,is_stmt,isa 1
    3202 00000662 E001              B         ||$C$L67||            ; [DPU_3_PIPE] |1869|  ; [ORIG 16-BIT INS]
    3203                            ; BRANCH OCCURS {||$C$L67||}     ; [] |1869| 
    3204                    ;* --------------------------------------------------------------------------*
    3205 00000664           ||$C$L66||:    
    3206                            .dwpsn  file "../Source/queue.c",line 1872,column 3,is_stmt,isa 1
    3207 00000664 2000              MOVS      A1, #0                ; [DPU_3_PIPE] |1872|  ; [ORIG 16-BIT INS]
    3208 00000666 9001              STR       A1, [SP, #4]          ; [DPU_3_PIPE] |1872|  ; [ORIG 16-BIT INS]
    3209                    ;* --------------------------------------------------------------------------*
    3210 00000668           ||$C$L67||:    
    3211                            .dwpsn  file "../Source/queue.c",line 1875,column 2,is_stmt,isa 1
    3212 00000668 9801              LDR       A1, [SP, #4]          ; [DPU_3_PIPE] |1875|  ; [ORIG 16-BIT INS]
    3213                            .dwpsn  file "../Source/queue.c",line 1876,column 1,is_stmt,isa 1
    3214 0000066a B002              ADD       SP, SP, #8            ; [DPU_3_PIPE]  ; [ORIG 16-BIT INS]
    3215                            .dwcfi  cfa_offset, 0
    3216                    $C$DW$249       .dwtag  DW_TAG_TI_branch
    3217                            .dwattr $C$DW$249, DW_AT_low_pc(0x00)
    3218                            .dwattr $C$DW$249, DW_AT_TI_return
    3219 0000066c 4770              BX        LR                    ; [DPU_3_PIPE]  ; [ORIG 16-BIT INS]
    3220                            ; BRANCH OCCURS                  ; [] 
    3221                            .dwattr $C$DW$245, DW_AT_TI_end_file("../Source/queue.c")
    3222                            .dwattr $C$DW$245, DW_AT_TI_end_line(0x754)
    3223                            .dwattr $C$DW$245, DW_AT_TI_end_column(0x01)
    3224                            .dwendentry
    3225                            .dwendtag $C$DW$245
    3226                    
    3227                    ;*****************************************************************************
    3228                    ;* UNDEFINED EXTERNAL REFERENCES                                             *
    3229                    ;*****************************************************************************
    3230                            .global vPortYieldFromISR
    3231                            .global vPortEnterCritical
    3232                            .global vPortExitCritical
    3233                            .global ulPortSetInterruptMask
    3234                            .global vPortClearInterruptMask
    3235                            .global pvPortMalloc
    3236                            .global vPortFree
    3237                            .global vListInitialise
    3238                            .global vTaskSuspendAll
    3239                            .global xTaskResumeAll
    3240                            .global vTaskPlaceOnEventList
    3241                            .global xTaskRemoveFromEventList
    3242                            .global vTaskSetTimeOutState
    3243                            .global xTaskCheckForTimeOut
    3244                            .global vTaskMissedYield
    3245                            .global memcpy
TI ARM Assembler PC v5.1.7 Tue Sep 16 08:38:40 2014

Tools Copyright (c) 1996-2014 Texas Instruments Incorporated
queue.asm                                                            PAGE   60

    3246                    
    3247                    ;******************************************************************************
    3248                    ;* BUILD ATTRIBUTES                                                           *
    3249                    ;******************************************************************************
    3250                            .battr "aeabi", Tag_File, 1, Tag_ABI_PCS_wchar_t(2)
    3251                            .battr "aeabi", Tag_File, 1, Tag_ABI_FP_rounding(0)
    3252                            .battr "aeabi", Tag_File, 1, Tag_ABI_FP_denormal(0)
    3253                            .battr "aeabi", Tag_File, 1, Tag_ABI_FP_exceptions(0)
    3254                            .battr "aeabi", Tag_File, 1, Tag_ABI_FP_number_model(1)
    3255                            .battr "aeabi", Tag_File, 1, Tag_ABI_enum_size(1)
    3256                            .battr "aeabi", Tag_File, 1, Tag_ABI_optimization_goals(5)
    3257                            .battr "aeabi", Tag_File, 1, Tag_ABI_FP_optimization_goals(0)
    3258                            .battr "TI", Tag_File, 1, Tag_Bitfield_layout(2)
    3259                            .battr "TI", Tag_File, 1, Tag_FP_interface(1)
    3260                    
    3261                    ;******************************************************************************
    3262                    ;* TYPE INFORMATION                                                           *
    3263                    ;******************************************************************************
    3264                    
    3265                    $C$DW$T$57      .dwtag  DW_TAG_enumeration_type
    3266                            .dwattr $C$DW$T$57, DW_AT_byte_size(0x01)
    3267                    $C$DW$250       .dwtag  DW_TAG_enumerator, DW_AT_name("eRunning"), DW_AT_const_value(0x00)
    3268                            .dwattr $C$DW$250, DW_AT_decl_file("H:/class/690 Adv. Emb. Sys/FreeRTOS8_EECS_TM4C1294_SensorH
    3269                            .dwattr $C$DW$250, DW_AT_decl_line(0x6e)
    3270                            .dwattr $C$DW$250, DW_AT_decl_column(0x02)
    3271                    $C$DW$251       .dwtag  DW_TAG_enumerator, DW_AT_name("eReady"), DW_AT_const_value(0x01)
    3272                            .dwattr $C$DW$251, DW_AT_decl_file("H:/class/690 Adv. Emb. Sys/FreeRTOS8_EECS_TM4C1294_SensorH
    3273                            .dwattr $C$DW$251, DW_AT_decl_line(0x6f)
    3274                            .dwattr $C$DW$251, DW_AT_decl_column(0x02)
    3275                    $C$DW$252       .dwtag  DW_TAG_enumerator, DW_AT_name("eBlocked"), DW_AT_const_value(0x02)
    3276                            .dwattr $C$DW$252, DW_AT_decl_file("H:/class/690 Adv. Emb. Sys/FreeRTOS8_EECS_TM4C1294_SensorH
    3277                            .dwattr $C$DW$252, DW_AT_decl_line(0x70)
    3278                            .dwattr $C$DW$252, DW_AT_decl_column(0x02)
    3279                    $C$DW$253       .dwtag  DW_TAG_enumerator, DW_AT_name("eSuspended"), DW_AT_const_value(0x03)
    3280                            .dwattr $C$DW$253, DW_AT_decl_file("H:/class/690 Adv. Emb. Sys/FreeRTOS8_EECS_TM4C1294_SensorH
    3281                            .dwattr $C$DW$253, DW_AT_decl_line(0x71)
    3282                            .dwattr $C$DW$253, DW_AT_decl_column(0x02)
    3283                    $C$DW$254       .dwtag  DW_TAG_enumerator, DW_AT_name("eDeleted"), DW_AT_const_value(0x04)
    3284                            .dwattr $C$DW$254, DW_AT_decl_file("H:/class/690 Adv. Emb. Sys/FreeRTOS8_EECS_TM4C1294_SensorH
    3285                            .dwattr $C$DW$254, DW_AT_decl_line(0x72)
    3286                            .dwattr $C$DW$254, DW_AT_decl_column(0x02)
    3287                            .dwendtag $C$DW$T$57
    3288                    
    3289                            .dwattr $C$DW$T$57, DW_AT_decl_file("H:/class/690 Adv. Emb. Sys/FreeRTOS8_EECS_TM4C1294_Sensor
    3290                            .dwattr $C$DW$T$57, DW_AT_decl_line(0x6d)
    3291                            .dwattr $C$DW$T$57, DW_AT_decl_column(0x01)
    3292                    $C$DW$T$58      .dwtag  DW_TAG_typedef, DW_AT_name("eTaskState")
    3293                            .dwattr $C$DW$T$58, DW_AT_type(*$C$DW$T$57)
    3294                            .dwattr $C$DW$T$58, DW_AT_language(DW_LANG_C)
    3295                            .dwattr $C$DW$T$58, DW_AT_decl_file("H:/class/690 Adv. Emb. Sys/FreeRTOS8_EECS_TM4C1294_Sensor
    3296                            .dwattr $C$DW$T$58, DW_AT_decl_line(0x73)
    3297                            .dwattr $C$DW$T$58, DW_AT_decl_column(0x03)
    3298                    
    3299                    $C$DW$T$61      .dwtag  DW_TAG_enumeration_type
    3300                            .dwattr $C$DW$T$61, DW_AT_byte_size(0x01)
TI ARM Assembler PC v5.1.7 Tue Sep 16 08:38:40 2014

Tools Copyright (c) 1996-2014 Texas Instruments Incorporated
queue.asm                                                            PAGE   61

    3301                    $C$DW$255       .dwtag  DW_TAG_enumerator, DW_AT_name("eAbortSleep"), DW_AT_const_value(0x00)
    3302                            .dwattr $C$DW$255, DW_AT_decl_file("H:/class/690 Adv. Emb. Sys/FreeRTOS8_EECS_TM4C1294_SensorH
    3303                            .dwattr $C$DW$255, DW_AT_decl_line(0xa7)
    3304                            .dwattr $C$DW$255, DW_AT_decl_column(0x02)
    3305                    $C$DW$256       .dwtag  DW_TAG_enumerator, DW_AT_name("eStandardSleep"), DW_AT_const_value(0x01)
    3306                            .dwattr $C$DW$256, DW_AT_decl_file("H:/class/690 Adv. Emb. Sys/FreeRTOS8_EECS_TM4C1294_SensorH
    3307                            .dwattr $C$DW$256, DW_AT_decl_line(0xa8)
    3308                            .dwattr $C$DW$256, DW_AT_decl_column(0x02)
    3309                    $C$DW$257       .dwtag  DW_TAG_enumerator, DW_AT_name("eNoTasksWaitingTimeout"), DW_AT_const_value(0x0
    3310                            .dwattr $C$DW$257, DW_AT_decl_file("H:/class/690 Adv. Emb. Sys/FreeRTOS8_EECS_TM4C1294_SensorH
    3311                            .dwattr $C$DW$257, DW_AT_decl_line(0xa9)
    3312                            .dwattr $C$DW$257, DW_AT_decl_column(0x02)
    3313                            .dwendtag $C$DW$T$61
    3314                    
    3315                            .dwattr $C$DW$T$61, DW_AT_decl_file("H:/class/690 Adv. Emb. Sys/FreeRTOS8_EECS_TM4C1294_Sensor
    3316                            .dwattr $C$DW$T$61, DW_AT_decl_line(0xa6)
    3317                            .dwattr $C$DW$T$61, DW_AT_decl_column(0x01)
    3318                    $C$DW$T$62      .dwtag  DW_TAG_typedef, DW_AT_name("eSleepModeStatus")
    3319                            .dwattr $C$DW$T$62, DW_AT_type(*$C$DW$T$61)
    3320                            .dwattr $C$DW$T$62, DW_AT_language(DW_LANG_C)
    3321                            .dwattr $C$DW$T$62, DW_AT_decl_file("H:/class/690 Adv. Emb. Sys/FreeRTOS8_EECS_TM4C1294_Sensor
    3322                            .dwattr $C$DW$T$62, DW_AT_decl_line(0xaa)
    3323                            .dwattr $C$DW$T$62, DW_AT_decl_column(0x03)
    3324                    
    3325                    $C$DW$T$19      .dwtag  DW_TAG_structure_type
    3326                            .dwattr $C$DW$T$19, DW_AT_byte_size(0x08)
    3327                    $C$DW$258       .dwtag  DW_TAG_member
    3328                            .dwattr $C$DW$258, DW_AT_type(*$C$DW$T$10)
    3329                            .dwattr $C$DW$258, DW_AT_name("quot")
    3330                            .dwattr $C$DW$258, DW_AT_TI_symbol_name("quot")
    3331                            .dwattr $C$DW$258, DW_AT_data_member_location[DW_OP_plus_uconst 0x0]
    3332                            .dwattr $C$DW$258, DW_AT_accessibility(DW_ACCESS_public)
    3333                            .dwattr $C$DW$258, DW_AT_decl_file("C:/TI_CodeComposer/ccsv6/tools/compiler/arm_5.1.7/include/
    3334                            .dwattr $C$DW$258, DW_AT_decl_line(0x50)
    3335                            .dwattr $C$DW$258, DW_AT_decl_column(0x16)
    3336                    $C$DW$259       .dwtag  DW_TAG_member
    3337                            .dwattr $C$DW$259, DW_AT_type(*$C$DW$T$10)
    3338                            .dwattr $C$DW$259, DW_AT_name("rem")
    3339                            .dwattr $C$DW$259, DW_AT_TI_symbol_name("rem")
    3340                            .dwattr $C$DW$259, DW_AT_data_member_location[DW_OP_plus_uconst 0x4]
    3341                            .dwattr $C$DW$259, DW_AT_accessibility(DW_ACCESS_public)
    3342                            .dwattr $C$DW$259, DW_AT_decl_file("C:/TI_CodeComposer/ccsv6/tools/compiler/arm_5.1.7/include/
    3343                            .dwattr $C$DW$259, DW_AT_decl_line(0x50)
    3344                            .dwattr $C$DW$259, DW_AT_decl_column(0x1c)
    3345                            .dwendtag $C$DW$T$19
    3346                    
    3347                            .dwattr $C$DW$T$19, DW_AT_decl_file("C:/TI_CodeComposer/ccsv6/tools/compiler/arm_5.1.7/include
    3348                            .dwattr $C$DW$T$19, DW_AT_decl_line(0x50)
    3349                            .dwattr $C$DW$T$19, DW_AT_decl_column(0x10)
    3350                    $C$DW$T$63      .dwtag  DW_TAG_typedef, DW_AT_name("div_t")
    3351                            .dwattr $C$DW$T$63, DW_AT_type(*$C$DW$T$19)
    3352                            .dwattr $C$DW$T$63, DW_AT_language(DW_LANG_C)
    3353                            .dwattr $C$DW$T$63, DW_AT_decl_file("C:/TI_CodeComposer/ccsv6/tools/compiler/arm_5.1.7/include
    3354                            .dwattr $C$DW$T$63, DW_AT_decl_line(0x50)
    3355                            .dwattr $C$DW$T$63, DW_AT_decl_column(0x23)
TI ARM Assembler PC v5.1.7 Tue Sep 16 08:38:40 2014

Tools Copyright (c) 1996-2014 Texas Instruments Incorporated
queue.asm                                                            PAGE   62

    3356                    
    3357                    $C$DW$T$20      .dwtag  DW_TAG_structure_type
    3358                            .dwattr $C$DW$T$20, DW_AT_byte_size(0x08)
    3359                    $C$DW$260       .dwtag  DW_TAG_member
    3360                            .dwattr $C$DW$260, DW_AT_type(*$C$DW$T$10)
    3361                            .dwattr $C$DW$260, DW_AT_name("quot")
    3362                            .dwattr $C$DW$260, DW_AT_TI_symbol_name("quot")
    3363                            .dwattr $C$DW$260, DW_AT_data_member_location[DW_OP_plus_uconst 0x0]
    3364                            .dwattr $C$DW$260, DW_AT_accessibility(DW_ACCESS_public)
    3365                            .dwattr $C$DW$260, DW_AT_decl_file("C:/TI_CodeComposer/ccsv6/tools/compiler/arm_5.1.7/include/
    3366                            .dwattr $C$DW$260, DW_AT_decl_line(0x52)
    3367                            .dwattr $C$DW$260, DW_AT_decl_column(0x16)
    3368                    $C$DW$261       .dwtag  DW_TAG_member
    3369                            .dwattr $C$DW$261, DW_AT_type(*$C$DW$T$10)
    3370                            .dwattr $C$DW$261, DW_AT_name("rem")
    3371                            .dwattr $C$DW$261, DW_AT_TI_symbol_name("rem")
    3372                            .dwattr $C$DW$261, DW_AT_data_member_location[DW_OP_plus_uconst 0x4]
    3373                            .dwattr $C$DW$261, DW_AT_accessibility(DW_ACCESS_public)
    3374                            .dwattr $C$DW$261, DW_AT_decl_file("C:/TI_CodeComposer/ccsv6/tools/compiler/arm_5.1.7/include/
    3375                            .dwattr $C$DW$261, DW_AT_decl_line(0x52)
    3376                            .dwattr $C$DW$261, DW_AT_decl_column(0x1c)
    3377                            .dwendtag $C$DW$T$20
    3378                    
    3379                            .dwattr $C$DW$T$20, DW_AT_decl_file("C:/TI_CodeComposer/ccsv6/tools/compiler/arm_5.1.7/include
    3380                            .dwattr $C$DW$T$20, DW_AT_decl_line(0x52)
    3381                            .dwattr $C$DW$T$20, DW_AT_decl_column(0x10)
    3382                    $C$DW$T$64      .dwtag  DW_TAG_typedef, DW_AT_name("ldiv_t")
    3383                            .dwattr $C$DW$T$64, DW_AT_type(*$C$DW$T$20)
    3384                            .dwattr $C$DW$T$64, DW_AT_language(DW_LANG_C)
    3385                            .dwattr $C$DW$T$64, DW_AT_decl_file("C:/TI_CodeComposer/ccsv6/tools/compiler/arm_5.1.7/include
    3386                            .dwattr $C$DW$T$64, DW_AT_decl_line(0x52)
    3387                            .dwattr $C$DW$T$64, DW_AT_decl_column(0x23)
    3388                    
    3389                    $C$DW$T$21      .dwtag  DW_TAG_structure_type
    3390                            .dwattr $C$DW$T$21, DW_AT_byte_size(0x10)
    3391                    $C$DW$262       .dwtag  DW_TAG_member
    3392                            .dwattr $C$DW$262, DW_AT_type(*$C$DW$T$14)
    3393                            .dwattr $C$DW$262, DW_AT_name("quot")
    3394                            .dwattr $C$DW$262, DW_AT_TI_symbol_name("quot")
    3395                            .dwattr $C$DW$262, DW_AT_data_member_location[DW_OP_plus_uconst 0x0]
    3396                            .dwattr $C$DW$262, DW_AT_accessibility(DW_ACCESS_public)
    3397                            .dwattr $C$DW$262, DW_AT_decl_file("C:/TI_CodeComposer/ccsv6/tools/compiler/arm_5.1.7/include/
    3398                            .dwattr $C$DW$262, DW_AT_decl_line(0x55)
    3399                            .dwattr $C$DW$262, DW_AT_decl_column(0x1c)
    3400                    $C$DW$263       .dwtag  DW_TAG_member
    3401                            .dwattr $C$DW$263, DW_AT_type(*$C$DW$T$14)
    3402                            .dwattr $C$DW$263, DW_AT_name("rem")
    3403                            .dwattr $C$DW$263, DW_AT_TI_symbol_name("rem")
    3404                            .dwattr $C$DW$263, DW_AT_data_member_location[DW_OP_plus_uconst 0x8]
    3405                            .dwattr $C$DW$263, DW_AT_accessibility(DW_ACCESS_public)
    3406                            .dwattr $C$DW$263, DW_AT_decl_file("C:/TI_CodeComposer/ccsv6/tools/compiler/arm_5.1.7/include/
    3407                            .dwattr $C$DW$263, DW_AT_decl_line(0x55)
    3408                            .dwattr $C$DW$263, DW_AT_decl_column(0x22)
    3409                            .dwendtag $C$DW$T$21
    3410                    
TI ARM Assembler PC v5.1.7 Tue Sep 16 08:38:40 2014

Tools Copyright (c) 1996-2014 Texas Instruments Incorporated
queue.asm                                                            PAGE   63

    3411                            .dwattr $C$DW$T$21, DW_AT_decl_file("C:/TI_CodeComposer/ccsv6/tools/compiler/arm_5.1.7/include
    3412                            .dwattr $C$DW$T$21, DW_AT_decl_line(0x55)
    3413                            .dwattr $C$DW$T$21, DW_AT_decl_column(0x10)
    3414                    $C$DW$T$65      .dwtag  DW_TAG_typedef, DW_AT_name("lldiv_t")
    3415                            .dwattr $C$DW$T$65, DW_AT_type(*$C$DW$T$21)
    3416                            .dwattr $C$DW$T$65, DW_AT_language(DW_LANG_C)
    3417                            .dwattr $C$DW$T$65, DW_AT_decl_file("C:/TI_CodeComposer/ccsv6/tools/compiler/arm_5.1.7/include
    3418                            .dwattr $C$DW$T$65, DW_AT_decl_line(0x55)
    3419                            .dwattr $C$DW$T$65, DW_AT_decl_column(0x29)
    3420                    
    3421                    $C$DW$T$26      .dwtag  DW_TAG_union_type
    3422                            .dwattr $C$DW$T$26, DW_AT_byte_size(0x04)
    3423                    $C$DW$264       .dwtag  DW_TAG_member
    3424                            .dwattr $C$DW$264, DW_AT_type(*$C$DW$T$23)
    3425                            .dwattr $C$DW$264, DW_AT_name("pcReadFrom")
    3426                            .dwattr $C$DW$264, DW_AT_TI_symbol_name("pcReadFrom")
    3427                            .dwattr $C$DW$264, DW_AT_data_member_location[DW_OP_plus_uconst 0x0]
    3428                            .dwattr $C$DW$264, DW_AT_accessibility(DW_ACCESS_public)
    3429                            .dwattr $C$DW$264, DW_AT_decl_file("../Source/queue.c")
    3430                            .dwattr $C$DW$264, DW_AT_decl_line(0x85)
    3431                            .dwattr $C$DW$264, DW_AT_decl_column(0x0b)
    3432                    $C$DW$265       .dwtag  DW_TAG_member
    3433                            .dwattr $C$DW$265, DW_AT_type(*$C$DW$T$25)
    3434                            .dwattr $C$DW$265, DW_AT_name("uxRecursiveCallCount")
    3435                            .dwattr $C$DW$265, DW_AT_TI_symbol_name("uxRecursiveCallCount")
    3436                            .dwattr $C$DW$265, DW_AT_data_member_location[DW_OP_plus_uconst 0x0]
    3437                            .dwattr $C$DW$265, DW_AT_accessibility(DW_ACCESS_public)
    3438                            .dwattr $C$DW$265, DW_AT_decl_file("../Source/queue.c")
    3439                            .dwattr $C$DW$265, DW_AT_decl_line(0x86)
    3440                            .dwattr $C$DW$265, DW_AT_decl_column(0x0f)
    3441                            .dwendtag $C$DW$T$26
    3442                    
    3443                            .dwattr $C$DW$T$26, DW_AT_decl_file("../Source/queue.c")
    3444                            .dwattr $C$DW$T$26, DW_AT_decl_line(0x84)
    3445                            .dwattr $C$DW$T$26, DW_AT_decl_column(0x02)
    3446                    
    3447                    $C$DW$T$32      .dwtag  DW_TAG_structure_type
    3448                            .dwattr $C$DW$T$32, DW_AT_name("QueueDefinition")
    3449                            .dwattr $C$DW$T$32, DW_AT_byte_size(0x4c)
    3450                    $C$DW$266       .dwtag  DW_TAG_member
    3451                            .dwattr $C$DW$266, DW_AT_type(*$C$DW$T$23)
    3452                            .dwattr $C$DW$266, DW_AT_name("pcHead")
    3453                            .dwattr $C$DW$266, DW_AT_TI_symbol_name("pcHead")
    3454                            .dwattr $C$DW$266, DW_AT_data_member_location[DW_OP_plus_uconst 0x0]
    3455                            .dwattr $C$DW$266, DW_AT_accessibility(DW_ACCESS_public)
    3456                            .dwattr $C$DW$266, DW_AT_decl_file("../Source/queue.c")
    3457                            .dwattr $C$DW$266, DW_AT_decl_line(0x7f)
    3458                            .dwattr $C$DW$266, DW_AT_decl_column(0x0a)
    3459                    $C$DW$267       .dwtag  DW_TAG_member
    3460                            .dwattr $C$DW$267, DW_AT_type(*$C$DW$T$23)
    3461                            .dwattr $C$DW$267, DW_AT_name("pcTail")
    3462                            .dwattr $C$DW$267, DW_AT_TI_symbol_name("pcTail")
    3463                            .dwattr $C$DW$267, DW_AT_data_member_location[DW_OP_plus_uconst 0x4]
    3464                            .dwattr $C$DW$267, DW_AT_accessibility(DW_ACCESS_public)
    3465                            .dwattr $C$DW$267, DW_AT_decl_file("../Source/queue.c")
TI ARM Assembler PC v5.1.7 Tue Sep 16 08:38:40 2014

Tools Copyright (c) 1996-2014 Texas Instruments Incorporated
queue.asm                                                            PAGE   64

    3466                            .dwattr $C$DW$267, DW_AT_decl_line(0x80)
    3467                            .dwattr $C$DW$267, DW_AT_decl_column(0x0a)
    3468                    $C$DW$268       .dwtag  DW_TAG_member
    3469                            .dwattr $C$DW$268, DW_AT_type(*$C$DW$T$23)
    3470                            .dwattr $C$DW$268, DW_AT_name("pcWriteTo")
    3471                            .dwattr $C$DW$268, DW_AT_TI_symbol_name("pcWriteTo")
    3472                            .dwattr $C$DW$268, DW_AT_data_member_location[DW_OP_plus_uconst 0x8]
    3473                            .dwattr $C$DW$268, DW_AT_accessibility(DW_ACCESS_public)
    3474                            .dwattr $C$DW$268, DW_AT_decl_file("../Source/queue.c")
    3475                            .dwattr $C$DW$268, DW_AT_decl_line(0x81)
    3476                            .dwattr $C$DW$268, DW_AT_decl_column(0x0a)
    3477                    $C$DW$269       .dwtag  DW_TAG_member
    3478                            .dwattr $C$DW$269, DW_AT_type(*$C$DW$T$26)
    3479                            .dwattr $C$DW$269, DW_AT_name("u")
    3480                            .dwattr $C$DW$269, DW_AT_TI_symbol_name("u")
    3481                            .dwattr $C$DW$269, DW_AT_data_member_location[DW_OP_plus_uconst 0xc]
    3482                            .dwattr $C$DW$269, DW_AT_accessibility(DW_ACCESS_public)
    3483                            .dwattr $C$DW$269, DW_AT_decl_file("../Source/queue.c")
    3484                            .dwattr $C$DW$269, DW_AT_decl_line(0x87)
    3485                            .dwattr $C$DW$269, DW_AT_decl_column(0x04)
    3486                    $C$DW$270       .dwtag  DW_TAG_member
    3487                            .dwattr $C$DW$270, DW_AT_type(*$C$DW$T$27)
    3488                            .dwattr $C$DW$270, DW_AT_name("xTasksWaitingToSend")
    3489                            .dwattr $C$DW$270, DW_AT_TI_symbol_name("xTasksWaitingToSend")
    3490                            .dwattr $C$DW$270, DW_AT_data_member_location[DW_OP_plus_uconst 0x10]
    3491                            .dwattr $C$DW$270, DW_AT_accessibility(DW_ACCESS_public)
    3492                            .dwattr $C$DW$270, DW_AT_decl_file("../Source/queue.c")
    3493                            .dwattr $C$DW$270, DW_AT_decl_line(0x89)
    3494                            .dwattr $C$DW$270, DW_AT_decl_column(0x09)
    3495                    $C$DW$271       .dwtag  DW_TAG_member
    3496                            .dwattr $C$DW$271, DW_AT_type(*$C$DW$T$27)
    3497                            .dwattr $C$DW$271, DW_AT_name("xTasksWaitingToReceive")
    3498                            .dwattr $C$DW$271, DW_AT_TI_symbol_name("xTasksWaitingToReceive")
    3499                            .dwattr $C$DW$271, DW_AT_data_member_location[DW_OP_plus_uconst 0x24]
    3500                            .dwattr $C$DW$271, DW_AT_accessibility(DW_ACCESS_public)
    3501                            .dwattr $C$DW$271, DW_AT_decl_file("../Source/queue.c")
    3502                            .dwattr $C$DW$271, DW_AT_decl_line(0x8a)
    3503                            .dwattr $C$DW$271, DW_AT_decl_column(0x09)
    3504                    $C$DW$272       .dwtag  DW_TAG_member
    3505                            .dwattr $C$DW$272, DW_AT_type(*$C$DW$T$28)
    3506                            .dwattr $C$DW$272, DW_AT_name("uxMessagesWaiting")
    3507                            .dwattr $C$DW$272, DW_AT_TI_symbol_name("uxMessagesWaiting")
    3508                            .dwattr $C$DW$272, DW_AT_data_member_location[DW_OP_plus_uconst 0x38]
    3509                            .dwattr $C$DW$272, DW_AT_accessibility(DW_ACCESS_public)
    3510                            .dwattr $C$DW$272, DW_AT_decl_file("../Source/queue.c")
    3511                            .dwattr $C$DW$272, DW_AT_decl_line(0x8c)
    3512                            .dwattr $C$DW$272, DW_AT_decl_column(0x17)
    3513                    $C$DW$273       .dwtag  DW_TAG_member
    3514                            .dwattr $C$DW$273, DW_AT_type(*$C$DW$T$25)
    3515                            .dwattr $C$DW$273, DW_AT_name("uxLength")
    3516                            .dwattr $C$DW$273, DW_AT_TI_symbol_name("uxLength")
    3517                            .dwattr $C$DW$273, DW_AT_data_member_location[DW_OP_plus_uconst 0x3c]
    3518                            .dwattr $C$DW$273, DW_AT_accessibility(DW_ACCESS_public)
    3519                            .dwattr $C$DW$273, DW_AT_decl_file("../Source/queue.c")
    3520                            .dwattr $C$DW$273, DW_AT_decl_line(0x8d)
TI ARM Assembler PC v5.1.7 Tue Sep 16 08:38:40 2014

Tools Copyright (c) 1996-2014 Texas Instruments Incorporated
queue.asm                                                            PAGE   65

    3521                            .dwattr $C$DW$273, DW_AT_decl_column(0x0e)
    3522                    $C$DW$274       .dwtag  DW_TAG_member
    3523                            .dwattr $C$DW$274, DW_AT_type(*$C$DW$T$25)
    3524                            .dwattr $C$DW$274, DW_AT_name("uxItemSize")
    3525                            .dwattr $C$DW$274, DW_AT_TI_symbol_name("uxItemSize")
    3526                            .dwattr $C$DW$274, DW_AT_data_member_location[DW_OP_plus_uconst 0x40]
    3527                            .dwattr $C$DW$274, DW_AT_accessibility(DW_ACCESS_public)
    3528                            .dwattr $C$DW$274, DW_AT_decl_file("../Source/queue.c")
    3529                            .dwattr $C$DW$274, DW_AT_decl_line(0x8e)
    3530                            .dwattr $C$DW$274, DW_AT_decl_column(0x0e)
    3531                    $C$DW$275       .dwtag  DW_TAG_member
    3532                            .dwattr $C$DW$275, DW_AT_type(*$C$DW$T$31)
    3533                            .dwattr $C$DW$275, DW_AT_name("xRxLock")
    3534                            .dwattr $C$DW$275, DW_AT_TI_symbol_name("xRxLock")
    3535                            .dwattr $C$DW$275, DW_AT_data_member_location[DW_OP_plus_uconst 0x44]
    3536                            .dwattr $C$DW$275, DW_AT_accessibility(DW_ACCESS_public)
    3537                            .dwattr $C$DW$275, DW_AT_decl_file("../Source/queue.c")
    3538                            .dwattr $C$DW$275, DW_AT_decl_line(0x90)
    3539                            .dwattr $C$DW$275, DW_AT_decl_column(0x16)
    3540                    $C$DW$276       .dwtag  DW_TAG_member
    3541                            .dwattr $C$DW$276, DW_AT_type(*$C$DW$T$31)
    3542                            .dwattr $C$DW$276, DW_AT_name("xTxLock")
    3543                            .dwattr $C$DW$276, DW_AT_TI_symbol_name("xTxLock")
    3544                            .dwattr $C$DW$276, DW_AT_data_member_location[DW_OP_plus_uconst 0x48]
    3545                            .dwattr $C$DW$276, DW_AT_accessibility(DW_ACCESS_public)
    3546                            .dwattr $C$DW$276, DW_AT_decl_file("../Source/queue.c")
    3547                            .dwattr $C$DW$276, DW_AT_decl_line(0x91)
    3548                            .dwattr $C$DW$276, DW_AT_decl_column(0x16)
    3549                            .dwendtag $C$DW$T$32
    3550                    
    3551                            .dwattr $C$DW$T$32, DW_AT_decl_file("../Source/queue.c")
    3552                            .dwattr $C$DW$T$32, DW_AT_decl_line(0x7d)
    3553                            .dwattr $C$DW$T$32, DW_AT_decl_column(0x10)
    3554                    $C$DW$T$66      .dwtag  DW_TAG_typedef, DW_AT_name("xQUEUE")
    3555                            .dwattr $C$DW$T$66, DW_AT_type(*$C$DW$T$32)
    3556                            .dwattr $C$DW$T$66, DW_AT_language(DW_LANG_C)
    3557                            .dwattr $C$DW$T$66, DW_AT_decl_file("../Source/queue.c")
    3558                            .dwattr $C$DW$T$66, DW_AT_decl_line(0x9c)
    3559                            .dwattr $C$DW$T$66, DW_AT_decl_column(0x03)
    3560                    $C$DW$T$67      .dwtag  DW_TAG_typedef, DW_AT_name("Queue_t")
    3561                            .dwattr $C$DW$T$67, DW_AT_type(*$C$DW$T$66)
    3562                            .dwattr $C$DW$T$67, DW_AT_language(DW_LANG_C)
    3563                            .dwattr $C$DW$T$67, DW_AT_decl_file("../Source/queue.c")
    3564                            .dwattr $C$DW$T$67, DW_AT_decl_line(0xa0)
    3565                            .dwattr $C$DW$T$67, DW_AT_decl_column(0x10)
    3566                    $C$DW$T$68      .dwtag  DW_TAG_const_type
    3567                            .dwattr $C$DW$T$68, DW_AT_type(*$C$DW$T$67)
    3568                    $C$DW$T$69      .dwtag  DW_TAG_pointer_type
    3569                            .dwattr $C$DW$T$69, DW_AT_type(*$C$DW$T$68)
    3570                            .dwattr $C$DW$T$69, DW_AT_address_class(0x20)
    3571                    $C$DW$T$70      .dwtag  DW_TAG_pointer_type
    3572                            .dwattr $C$DW$T$70, DW_AT_type(*$C$DW$T$67)
    3573                            .dwattr $C$DW$T$70, DW_AT_address_class(0x20)
    3574                    $C$DW$T$71      .dwtag  DW_TAG_const_type
    3575                            .dwattr $C$DW$T$71, DW_AT_type(*$C$DW$T$70)
TI ARM Assembler PC v5.1.7 Tue Sep 16 08:38:40 2014

Tools Copyright (c) 1996-2014 Texas Instruments Incorporated
queue.asm                                                            PAGE   66

    3576                    $C$DW$T$2       .dwtag  DW_TAG_unspecified_type
    3577                            .dwattr $C$DW$T$2, DW_AT_name("void")
    3578                    $C$DW$T$3       .dwtag  DW_TAG_pointer_type
    3579                            .dwattr $C$DW$T$3, DW_AT_type(*$C$DW$T$2)
    3580                            .dwattr $C$DW$T$3, DW_AT_address_class(0x20)
    3581                    $C$DW$T$72      .dwtag  DW_TAG_typedef, DW_AT_name("QueueHandle_t")
    3582                            .dwattr $C$DW$T$72, DW_AT_type(*$C$DW$T$3)
    3583                            .dwattr $C$DW$T$72, DW_AT_language(DW_LANG_C)
    3584                            .dwattr $C$DW$T$72, DW_AT_decl_file("H:/class/690 Adv. Emb. Sys/FreeRTOS8_EECS_TM4C1294_Sensor
    3585                            .dwattr $C$DW$T$72, DW_AT_decl_line(0x54)
    3586                            .dwattr $C$DW$T$72, DW_AT_decl_column(0x10)
    3587                    $C$DW$T$73      .dwtag  DW_TAG_const_type
    3588                            .dwattr $C$DW$T$73, DW_AT_type(*$C$DW$T$72)
    3589                    $C$DW$T$78      .dwtag  DW_TAG_typedef, DW_AT_name("QueueSetHandle_t")
    3590                            .dwattr $C$DW$T$78, DW_AT_type(*$C$DW$T$3)
    3591                            .dwattr $C$DW$T$78, DW_AT_language(DW_LANG_C)
    3592                            .dwattr $C$DW$T$78, DW_AT_decl_file("H:/class/690 Adv. Emb. Sys/FreeRTOS8_EECS_TM4C1294_Sensor
    3593                            .dwattr $C$DW$T$78, DW_AT_decl_line(0x5b)
    3594                            .dwattr $C$DW$T$78, DW_AT_decl_column(0x10)
    3595                    $C$DW$T$79      .dwtag  DW_TAG_typedef, DW_AT_name("QueueSetMemberHandle_t")
    3596                            .dwattr $C$DW$T$79, DW_AT_type(*$C$DW$T$3)
    3597                            .dwattr $C$DW$T$79, DW_AT_language(DW_LANG_C)
    3598                            .dwattr $C$DW$T$79, DW_AT_decl_file("H:/class/690 Adv. Emb. Sys/FreeRTOS8_EECS_TM4C1294_Sensor
    3599                            .dwattr $C$DW$T$79, DW_AT_decl_line(0x62)
    3600                            .dwattr $C$DW$T$79, DW_AT_decl_column(0x10)
    3601                    $C$DW$T$56      .dwtag  DW_TAG_typedef, DW_AT_name("TaskHandle_t")
    3602                            .dwattr $C$DW$T$56, DW_AT_type(*$C$DW$T$3)
    3603                            .dwattr $C$DW$T$56, DW_AT_language(DW_LANG_C)
    3604                            .dwattr $C$DW$T$56, DW_AT_decl_file("H:/class/690 Adv. Emb. Sys/FreeRTOS8_EECS_TM4C1294_Sensor
    3605                            .dwattr $C$DW$T$56, DW_AT_decl_line(0x63)
    3606                            .dwattr $C$DW$T$56, DW_AT_decl_column(0x10)
    3607                    $C$DW$T$86      .dwtag  DW_TAG_const_type
    3608                            .dwattr $C$DW$T$86, DW_AT_type(*$C$DW$T$3)
    3609                    
    3610                    $C$DW$T$43      .dwtag  DW_TAG_subroutine_type
    3611                            .dwattr $C$DW$T$43, DW_AT_language(DW_LANG_C)
    3612                    $C$DW$277       .dwtag  DW_TAG_formal_parameter
    3613                            .dwattr $C$DW$277, DW_AT_type(*$C$DW$T$3)
    3614                            .dwendtag $C$DW$T$43
    3615                    
    3616                    $C$DW$T$44      .dwtag  DW_TAG_pointer_type
    3617                            .dwattr $C$DW$T$44, DW_AT_type(*$C$DW$T$43)
    3618                            .dwattr $C$DW$T$44, DW_AT_address_class(0x20)
    3619                    $C$DW$T$45      .dwtag  DW_TAG_typedef, DW_AT_name("TaskFunction_t")
    3620                            .dwattr $C$DW$T$45, DW_AT_type(*$C$DW$T$44)
    3621                            .dwattr $C$DW$T$45, DW_AT_language(DW_LANG_C)
    3622                            .dwattr $C$DW$T$45, DW_AT_decl_file("H:\class\690 Adv. Emb. Sys\FreeRTOS8_EECS_TM4C1294_Sensor
    3623                            .dwattr $C$DW$T$45, DW_AT_decl_line(0x49)
    3624                            .dwattr $C$DW$T$45, DW_AT_decl_column(0x10)
    3625                    $C$DW$T$80      .dwtag  DW_TAG_const_type
    3626                            .dwattr $C$DW$T$80, DW_AT_type(*$C$DW$T$2)
    3627                    $C$DW$T$81      .dwtag  DW_TAG_pointer_type
    3628                            .dwattr $C$DW$T$81, DW_AT_type(*$C$DW$T$80)
    3629                            .dwattr $C$DW$T$81, DW_AT_address_class(0x20)
    3630                    $C$DW$T$87      .dwtag  DW_TAG_const_type
TI ARM Assembler PC v5.1.7 Tue Sep 16 08:38:40 2014

Tools Copyright (c) 1996-2014 Texas Instruments Incorporated
queue.asm                                                            PAGE   67

    3631                            .dwattr $C$DW$T$87, DW_AT_type(*$C$DW$T$81)
    3632                    
    3633                    $C$DW$T$88      .dwtag  DW_TAG_subroutine_type
    3634                            .dwattr $C$DW$T$88, DW_AT_language(DW_LANG_C)
    3635                    $C$DW$T$89      .dwtag  DW_TAG_pointer_type
    3636                            .dwattr $C$DW$T$89, DW_AT_type(*$C$DW$T$88)
    3637                            .dwattr $C$DW$T$89, DW_AT_address_class(0x20)
    3638                    $C$DW$T$90      .dwtag  DW_TAG_typedef, DW_AT_name("__TI_atexit_fn")
    3639                            .dwattr $C$DW$T$90, DW_AT_type(*$C$DW$T$89)
    3640                            .dwattr $C$DW$T$90, DW_AT_language(DW_LANG_C)
    3641                            .dwattr $C$DW$T$90, DW_AT_decl_file("C:/TI_CodeComposer/ccsv6/tools/compiler/arm_5.1.7/include
    3642                            .dwattr $C$DW$T$90, DW_AT_decl_line(0xa3)
    3643                            .dwattr $C$DW$T$90, DW_AT_decl_column(0x14)
    3644                    $C$DW$T$4       .dwtag  DW_TAG_base_type
    3645                            .dwattr $C$DW$T$4, DW_AT_encoding(DW_ATE_boolean)
    3646                            .dwattr $C$DW$T$4, DW_AT_name("bool")
    3647                            .dwattr $C$DW$T$4, DW_AT_byte_size(0x01)
    3648                    $C$DW$T$5       .dwtag  DW_TAG_base_type
    3649                            .dwattr $C$DW$T$5, DW_AT_encoding(DW_ATE_signed_char)
    3650                            .dwattr $C$DW$T$5, DW_AT_name("signed char")
    3651                            .dwattr $C$DW$T$5, DW_AT_byte_size(0x01)
    3652                    $C$DW$T$22      .dwtag  DW_TAG_typedef, DW_AT_name("int8_t")
    3653                            .dwattr $C$DW$T$22, DW_AT_type(*$C$DW$T$5)
    3654                            .dwattr $C$DW$T$22, DW_AT_language(DW_LANG_C)
    3655                            .dwattr $C$DW$T$22, DW_AT_decl_file("C:/TI_CodeComposer/ccsv6/tools/compiler/arm_5.1.7/include
    3656                            .dwattr $C$DW$T$22, DW_AT_decl_line(0x2a)
    3657                            .dwattr $C$DW$T$22, DW_AT_decl_column(0x1d)
    3658                    $C$DW$T$23      .dwtag  DW_TAG_pointer_type
    3659                            .dwattr $C$DW$T$23, DW_AT_type(*$C$DW$T$22)
    3660                            .dwattr $C$DW$T$23, DW_AT_address_class(0x20)
    3661                    $C$DW$T$113     .dwtag  DW_TAG_typedef, DW_AT_name("int_least8_t")
    3662                            .dwattr $C$DW$T$113, DW_AT_type(*$C$DW$T$22)
    3663                            .dwattr $C$DW$T$113, DW_AT_language(DW_LANG_C)
    3664                            .dwattr $C$DW$T$113, DW_AT_decl_file("C:/TI_CodeComposer/ccsv6/tools/compiler/arm_5.1.7/includ
    3665                            .dwattr $C$DW$T$113, DW_AT_decl_line(0x37)
    3666                            .dwattr $C$DW$T$113, DW_AT_decl_column(0x17)
    3667                    $C$DW$T$6       .dwtag  DW_TAG_base_type
    3668                            .dwattr $C$DW$T$6, DW_AT_encoding(DW_ATE_unsigned_char)
    3669                            .dwattr $C$DW$T$6, DW_AT_name("unsigned char")
    3670                            .dwattr $C$DW$T$6, DW_AT_byte_size(0x01)
    3671                    $C$DW$T$75      .dwtag  DW_TAG_typedef, DW_AT_name("uint8_t")
    3672                            .dwattr $C$DW$T$75, DW_AT_type(*$C$DW$T$6)
    3673                            .dwattr $C$DW$T$75, DW_AT_language(DW_LANG_C)
    3674                            .dwattr $C$DW$T$75, DW_AT_decl_file("C:/TI_CodeComposer/ccsv6/tools/compiler/arm_5.1.7/include
    3675                            .dwattr $C$DW$T$75, DW_AT_decl_line(0x2b)
    3676                            .dwattr $C$DW$T$75, DW_AT_decl_column(0x1c)
    3677                    $C$DW$T$114     .dwtag  DW_TAG_typedef, DW_AT_name("portCHAR")
    3678                            .dwattr $C$DW$T$114, DW_AT_type(*$C$DW$T$75)
    3679                            .dwattr $C$DW$T$114, DW_AT_language(DW_LANG_C)
    3680                            .dwattr $C$DW$T$114, DW_AT_decl_file("H:\class\690 Adv. Emb. Sys\FreeRTOS8_EECS_TM4C1294_Senso
    3681                            .dwattr $C$DW$T$114, DW_AT_decl_line(0x61)
    3682                            .dwattr $C$DW$T$114, DW_AT_decl_column(0x12)
    3683                    $C$DW$T$76      .dwtag  DW_TAG_const_type
    3684                            .dwattr $C$DW$T$76, DW_AT_type(*$C$DW$T$75)
    3685                    $C$DW$T$115     .dwtag  DW_TAG_typedef, DW_AT_name("uint_least8_t")
TI ARM Assembler PC v5.1.7 Tue Sep 16 08:38:40 2014

Tools Copyright (c) 1996-2014 Texas Instruments Incorporated
queue.asm                                                            PAGE   68

    3686                            .dwattr $C$DW$T$115, DW_AT_type(*$C$DW$T$75)
    3687                            .dwattr $C$DW$T$115, DW_AT_language(DW_LANG_C)
    3688                            .dwattr $C$DW$T$115, DW_AT_decl_file("C:/TI_CodeComposer/ccsv6/tools/compiler/arm_5.1.7/includ
    3689                            .dwattr $C$DW$T$115, DW_AT_decl_line(0x38)
    3690                            .dwattr $C$DW$T$115, DW_AT_decl_column(0x16)
    3691                    $C$DW$T$7       .dwtag  DW_TAG_base_type
    3692                            .dwattr $C$DW$T$7, DW_AT_encoding(DW_ATE_signed_char)
    3693                            .dwattr $C$DW$T$7, DW_AT_name("wchar_t")
    3694                            .dwattr $C$DW$T$7, DW_AT_byte_size(0x02)
    3695                    $C$DW$T$8       .dwtag  DW_TAG_base_type
    3696                            .dwattr $C$DW$T$8, DW_AT_encoding(DW_ATE_signed)
    3697                            .dwattr $C$DW$T$8, DW_AT_name("short")
    3698                            .dwattr $C$DW$T$8, DW_AT_byte_size(0x02)
    3699                    $C$DW$T$116     .dwtag  DW_TAG_typedef, DW_AT_name("int16_t")
    3700                            .dwattr $C$DW$T$116, DW_AT_type(*$C$DW$T$8)
    3701                            .dwattr $C$DW$T$116, DW_AT_language(DW_LANG_C)
    3702                            .dwattr $C$DW$T$116, DW_AT_decl_file("C:/TI_CodeComposer/ccsv6/tools/compiler/arm_5.1.7/includ
    3703                            .dwattr $C$DW$T$116, DW_AT_decl_line(0x2c)
    3704                            .dwattr $C$DW$T$116, DW_AT_decl_column(0x1d)
    3705                    $C$DW$T$117     .dwtag  DW_TAG_typedef, DW_AT_name("int_least16_t")
    3706                            .dwattr $C$DW$T$117, DW_AT_type(*$C$DW$T$116)
    3707                            .dwattr $C$DW$T$117, DW_AT_language(DW_LANG_C)
    3708                            .dwattr $C$DW$T$117, DW_AT_decl_file("C:/TI_CodeComposer/ccsv6/tools/compiler/arm_5.1.7/includ
    3709                            .dwattr $C$DW$T$117, DW_AT_decl_line(0x3a)
    3710                            .dwattr $C$DW$T$117, DW_AT_decl_column(0x17)
    3711                    $C$DW$T$118     .dwtag  DW_TAG_typedef, DW_AT_name("portSHORT")
    3712                            .dwattr $C$DW$T$118, DW_AT_type(*$C$DW$T$116)
    3713                            .dwattr $C$DW$T$118, DW_AT_language(DW_LANG_C)
    3714                            .dwattr $C$DW$T$118, DW_AT_decl_file("H:\class\690 Adv. Emb. Sys\FreeRTOS8_EECS_TM4C1294_Senso
    3715                            .dwattr $C$DW$T$118, DW_AT_decl_line(0x65)
    3716                            .dwattr $C$DW$T$118, DW_AT_decl_column(0x12)
    3717                    $C$DW$T$9       .dwtag  DW_TAG_base_type
    3718                            .dwattr $C$DW$T$9, DW_AT_encoding(DW_ATE_unsigned)
    3719                            .dwattr $C$DW$T$9, DW_AT_name("unsigned short")
    3720                            .dwattr $C$DW$T$9, DW_AT_byte_size(0x02)
    3721                    $C$DW$T$119     .dwtag  DW_TAG_typedef, DW_AT_name("_Wchart")
    3722                            .dwattr $C$DW$T$119, DW_AT_type(*$C$DW$T$9)
    3723                            .dwattr $C$DW$T$119, DW_AT_language(DW_LANG_C)
    3724                            .dwattr $C$DW$T$119, DW_AT_decl_file("C:/TI_CodeComposer/ccsv6/tools/compiler/arm_5.1.7/includ
    3725                            .dwattr $C$DW$T$119, DW_AT_decl_line(0x1fe)
    3726                            .dwattr $C$DW$T$119, DW_AT_decl_column(0x21)
    3727                    $C$DW$T$120     .dwtag  DW_TAG_typedef, DW_AT_name("_Wintt")
    3728                            .dwattr $C$DW$T$120, DW_AT_type(*$C$DW$T$9)
    3729                            .dwattr $C$DW$T$120, DW_AT_language(DW_LANG_C)
    3730                            .dwattr $C$DW$T$120, DW_AT_decl_file("C:/TI_CodeComposer/ccsv6/tools/compiler/arm_5.1.7/includ
    3731                            .dwattr $C$DW$T$120, DW_AT_decl_line(0x1ff)
    3732                            .dwattr $C$DW$T$120, DW_AT_decl_column(0x21)
    3733                    $C$DW$T$50      .dwtag  DW_TAG_typedef, DW_AT_name("uint16_t")
    3734                            .dwattr $C$DW$T$50, DW_AT_type(*$C$DW$T$9)
    3735                            .dwattr $C$DW$T$50, DW_AT_language(DW_LANG_C)
    3736                            .dwattr $C$DW$T$50, DW_AT_decl_file("C:/TI_CodeComposer/ccsv6/tools/compiler/arm_5.1.7/include
    3737                            .dwattr $C$DW$T$50, DW_AT_decl_line(0x2d)
    3738                            .dwattr $C$DW$T$50, DW_AT_decl_column(0x1c)
    3739                    $C$DW$T$121     .dwtag  DW_TAG_typedef, DW_AT_name("uint_least16_t")
    3740                            .dwattr $C$DW$T$121, DW_AT_type(*$C$DW$T$50)
TI ARM Assembler PC v5.1.7 Tue Sep 16 08:38:40 2014

Tools Copyright (c) 1996-2014 Texas Instruments Incorporated
queue.asm                                                            PAGE   69

    3741                            .dwattr $C$DW$T$121, DW_AT_language(DW_LANG_C)
    3742                            .dwattr $C$DW$T$121, DW_AT_decl_file("C:/TI_CodeComposer/ccsv6/tools/compiler/arm_5.1.7/includ
    3743                            .dwattr $C$DW$T$121, DW_AT_decl_line(0x3b)
    3744                            .dwattr $C$DW$T$121, DW_AT_decl_column(0x16)
    3745                    $C$DW$T$122     .dwtag  DW_TAG_typedef, DW_AT_name("wchar_t")
    3746                            .dwattr $C$DW$T$122, DW_AT_type(*$C$DW$T$9)
    3747                            .dwattr $C$DW$T$122, DW_AT_language(DW_LANG_C)
    3748                            .dwattr $C$DW$T$122, DW_AT_decl_file("C:/TI_CodeComposer/ccsv6/tools/compiler/arm_5.1.7/includ
    3749                            .dwattr $C$DW$T$122, DW_AT_decl_line(0x6a)
    3750                            .dwattr $C$DW$T$122, DW_AT_decl_column(0x1a)
    3751                    $C$DW$T$10      .dwtag  DW_TAG_base_type
    3752                            .dwattr $C$DW$T$10, DW_AT_encoding(DW_ATE_signed)
    3753                            .dwattr $C$DW$T$10, DW_AT_name("int")
    3754                            .dwattr $C$DW$T$10, DW_AT_byte_size(0x04)
    3755                    $C$DW$T$123     .dwtag  DW_TAG_typedef, DW_AT_name("_Ptrdifft")
    3756                            .dwattr $C$DW$T$123, DW_AT_type(*$C$DW$T$10)
    3757                            .dwattr $C$DW$T$123, DW_AT_language(DW_LANG_C)
    3758                            .dwattr $C$DW$T$123, DW_AT_decl_file("C:/TI_CodeComposer/ccsv6/tools/compiler/arm_5.1.7/includ
    3759                            .dwattr $C$DW$T$123, DW_AT_decl_line(0xa6)
    3760                            .dwattr $C$DW$T$123, DW_AT_decl_column(0x1e)
    3761                    
    3762                    $C$DW$T$124     .dwtag  DW_TAG_subroutine_type
    3763                            .dwattr $C$DW$T$124, DW_AT_type(*$C$DW$T$10)
    3764                            .dwattr $C$DW$T$124, DW_AT_language(DW_LANG_C)
    3765                    $C$DW$278       .dwtag  DW_TAG_formal_parameter
    3766                            .dwattr $C$DW$278, DW_AT_type(*$C$DW$T$81)
    3767                    $C$DW$279       .dwtag  DW_TAG_formal_parameter
    3768                            .dwattr $C$DW$279, DW_AT_type(*$C$DW$T$81)
    3769                            .dwendtag $C$DW$T$124
    3770                    
    3771                    $C$DW$T$125     .dwtag  DW_TAG_pointer_type
    3772                            .dwattr $C$DW$T$125, DW_AT_type(*$C$DW$T$124)
    3773                            .dwattr $C$DW$T$125, DW_AT_address_class(0x20)
    3774                    $C$DW$T$126     .dwtag  DW_TAG_typedef, DW_AT_name("__TI_compar_fn")
    3775                            .dwattr $C$DW$T$126, DW_AT_type(*$C$DW$T$125)
    3776                            .dwattr $C$DW$T$126, DW_AT_language(DW_LANG_C)
    3777                            .dwattr $C$DW$T$126, DW_AT_decl_file("C:/TI_CodeComposer/ccsv6/tools/compiler/arm_5.1.7/includ
    3778                            .dwattr $C$DW$T$126, DW_AT_decl_line(0xa6)
    3779                            .dwattr $C$DW$T$126, DW_AT_decl_column(0x13)
    3780                    $C$DW$T$29      .dwtag  DW_TAG_typedef, DW_AT_name("int32_t")
    3781                            .dwattr $C$DW$T$29, DW_AT_type(*$C$DW$T$10)
    3782                            .dwattr $C$DW$T$29, DW_AT_language(DW_LANG_C)
    3783                            .dwattr $C$DW$T$29, DW_AT_decl_file("C:/TI_CodeComposer/ccsv6/tools/compiler/arm_5.1.7/include
    3784                            .dwattr $C$DW$T$29, DW_AT_decl_line(0x2e)
    3785                            .dwattr $C$DW$T$29, DW_AT_decl_column(0x1d)
    3786                    $C$DW$T$30      .dwtag  DW_TAG_typedef, DW_AT_name("BaseType_t")
    3787                            .dwattr $C$DW$T$30, DW_AT_type(*$C$DW$T$29)
    3788                            .dwattr $C$DW$T$30, DW_AT_language(DW_LANG_C)
    3789                            .dwattr $C$DW$T$30, DW_AT_decl_file("H:\class\690 Adv. Emb. Sys\FreeRTOS8_EECS_TM4C1294_Sensor
    3790                            .dwattr $C$DW$T$30, DW_AT_decl_line(0x6a)
    3791                            .dwattr $C$DW$T$30, DW_AT_decl_column(0x12)
    3792                    $C$DW$T$31      .dwtag  DW_TAG_volatile_type
    3793                            .dwattr $C$DW$T$31, DW_AT_type(*$C$DW$T$30)
    3794                    $C$DW$T$106     .dwtag  DW_TAG_const_type
    3795                            .dwattr $C$DW$T$106, DW_AT_type(*$C$DW$T$30)
TI ARM Assembler PC v5.1.7 Tue Sep 16 08:38:40 2014

Tools Copyright (c) 1996-2014 Texas Instruments Incorporated
queue.asm                                                            PAGE   70

    3796                    $C$DW$T$141     .dwtag  DW_TAG_pointer_type
    3797                            .dwattr $C$DW$T$141, DW_AT_type(*$C$DW$T$30)
    3798                            .dwattr $C$DW$T$141, DW_AT_address_class(0x20)
    3799                    $C$DW$T$142     .dwtag  DW_TAG_const_type
    3800                            .dwattr $C$DW$T$142, DW_AT_type(*$C$DW$T$141)
    3801                    
    3802                    $C$DW$T$150     .dwtag  DW_TAG_subroutine_type
    3803                            .dwattr $C$DW$T$150, DW_AT_type(*$C$DW$T$30)
    3804                            .dwattr $C$DW$T$150, DW_AT_language(DW_LANG_C)
    3805                    $C$DW$280       .dwtag  DW_TAG_formal_parameter
    3806                            .dwattr $C$DW$280, DW_AT_type(*$C$DW$T$3)
    3807                            .dwendtag $C$DW$T$150
    3808                    
    3809                    $C$DW$T$151     .dwtag  DW_TAG_pointer_type
    3810                            .dwattr $C$DW$T$151, DW_AT_type(*$C$DW$T$150)
    3811                            .dwattr $C$DW$T$151, DW_AT_address_class(0x20)
    3812                    $C$DW$T$152     .dwtag  DW_TAG_typedef, DW_AT_name("TaskHookFunction_t")
    3813                            .dwattr $C$DW$T$152, DW_AT_type(*$C$DW$T$151)
    3814                            .dwattr $C$DW$T$152, DW_AT_language(DW_LANG_C)
    3815                            .dwattr $C$DW$T$152, DW_AT_decl_file("H:/class/690 Adv. Emb. Sys/FreeRTOS8_EECS_TM4C1294_Senso
    3816                            .dwattr $C$DW$T$152, DW_AT_decl_line(0x69)
    3817                            .dwattr $C$DW$T$152, DW_AT_decl_column(0x16)
    3818                    $C$DW$T$153     .dwtag  DW_TAG_typedef, DW_AT_name("int_fast16_t")
    3819                            .dwattr $C$DW$T$153, DW_AT_type(*$C$DW$T$29)
    3820                            .dwattr $C$DW$T$153, DW_AT_language(DW_LANG_C)
    3821                            .dwattr $C$DW$T$153, DW_AT_decl_file("C:/TI_CodeComposer/ccsv6/tools/compiler/arm_5.1.7/includ
    3822                            .dwattr $C$DW$T$153, DW_AT_decl_line(0x47)
    3823                            .dwattr $C$DW$T$153, DW_AT_decl_column(0x17)
    3824                    $C$DW$T$154     .dwtag  DW_TAG_typedef, DW_AT_name("int_fast32_t")
    3825                            .dwattr $C$DW$T$154, DW_AT_type(*$C$DW$T$29)
    3826                            .dwattr $C$DW$T$154, DW_AT_language(DW_LANG_C)
    3827                            .dwattr $C$DW$T$154, DW_AT_decl_file("C:/TI_CodeComposer/ccsv6/tools/compiler/arm_5.1.7/includ
    3828                            .dwattr $C$DW$T$154, DW_AT_decl_line(0x4a)
    3829                            .dwattr $C$DW$T$154, DW_AT_decl_column(0x17)
    3830                    $C$DW$T$155     .dwtag  DW_TAG_typedef, DW_AT_name("int_fast8_t")
    3831                            .dwattr $C$DW$T$155, DW_AT_type(*$C$DW$T$29)
    3832                            .dwattr $C$DW$T$155, DW_AT_language(DW_LANG_C)
    3833                            .dwattr $C$DW$T$155, DW_AT_decl_file("C:/TI_CodeComposer/ccsv6/tools/compiler/arm_5.1.7/includ
    3834                            .dwattr $C$DW$T$155, DW_AT_decl_line(0x45)
    3835                            .dwattr $C$DW$T$155, DW_AT_decl_column(0x17)
    3836                    $C$DW$T$156     .dwtag  DW_TAG_typedef, DW_AT_name("int_least32_t")
    3837                            .dwattr $C$DW$T$156, DW_AT_type(*$C$DW$T$29)
    3838                            .dwattr $C$DW$T$156, DW_AT_language(DW_LANG_C)
    3839                            .dwattr $C$DW$T$156, DW_AT_decl_file("C:/TI_CodeComposer/ccsv6/tools/compiler/arm_5.1.7/includ
    3840                            .dwattr $C$DW$T$156, DW_AT_decl_line(0x3c)
    3841                            .dwattr $C$DW$T$156, DW_AT_decl_column(0x17)
    3842                    $C$DW$T$157     .dwtag  DW_TAG_typedef, DW_AT_name("portBASE_TYPE")
    3843                            .dwattr $C$DW$T$157, DW_AT_type(*$C$DW$T$29)
    3844                            .dwattr $C$DW$T$157, DW_AT_language(DW_LANG_C)
    3845                            .dwattr $C$DW$T$157, DW_AT_decl_file("H:\class\690 Adv. Emb. Sys\FreeRTOS8_EECS_TM4C1294_Senso
    3846                            .dwattr $C$DW$T$157, DW_AT_decl_line(0x67)
    3847                            .dwattr $C$DW$T$157, DW_AT_decl_column(0x12)
    3848                    $C$DW$T$158     .dwtag  DW_TAG_typedef, DW_AT_name("portLONG")
    3849                            .dwattr $C$DW$T$158, DW_AT_type(*$C$DW$T$29)
    3850                            .dwattr $C$DW$T$158, DW_AT_language(DW_LANG_C)
TI ARM Assembler PC v5.1.7 Tue Sep 16 08:38:40 2014

Tools Copyright (c) 1996-2014 Texas Instruments Incorporated
queue.asm                                                            PAGE   71

    3851                            .dwattr $C$DW$T$158, DW_AT_decl_file("H:\class\690 Adv. Emb. Sys\FreeRTOS8_EECS_TM4C1294_Senso
    3852                            .dwattr $C$DW$T$158, DW_AT_decl_line(0x64)
    3853                            .dwattr $C$DW$T$158, DW_AT_decl_column(0x12)
    3854                    $C$DW$T$159     .dwtag  DW_TAG_typedef, DW_AT_name("intptr_t")
    3855                            .dwattr $C$DW$T$159, DW_AT_type(*$C$DW$T$10)
    3856                            .dwattr $C$DW$T$159, DW_AT_language(DW_LANG_C)
    3857                            .dwattr $C$DW$T$159, DW_AT_decl_file("C:/TI_CodeComposer/ccsv6/tools/compiler/arm_5.1.7/includ
    3858                            .dwattr $C$DW$T$159, DW_AT_decl_line(0x52)
    3859                            .dwattr $C$DW$T$159, DW_AT_decl_column(0x1a)
    3860                    $C$DW$T$160     .dwtag  DW_TAG_typedef, DW_AT_name("ptrdiff_t")
    3861                            .dwattr $C$DW$T$160, DW_AT_type(*$C$DW$T$10)
    3862                            .dwattr $C$DW$T$160, DW_AT_language(DW_LANG_C)
    3863                            .dwattr $C$DW$T$160, DW_AT_decl_file("C:/TI_CodeComposer/ccsv6/tools/compiler/arm_5.1.7/includ
    3864                            .dwattr $C$DW$T$160, DW_AT_decl_line(0x31)
    3865                            .dwattr $C$DW$T$160, DW_AT_decl_column(0x1c)
    3866                    $C$DW$T$11      .dwtag  DW_TAG_base_type
    3867                            .dwattr $C$DW$T$11, DW_AT_encoding(DW_ATE_unsigned)
    3868                            .dwattr $C$DW$T$11, DW_AT_name("unsigned int")
    3869                            .dwattr $C$DW$T$11, DW_AT_byte_size(0x04)
    3870                    $C$DW$T$161     .dwtag  DW_TAG_typedef, DW_AT_name("_Sizet")
    3871                            .dwattr $C$DW$T$161, DW_AT_type(*$C$DW$T$11)
    3872                            .dwattr $C$DW$T$161, DW_AT_language(DW_LANG_C)
    3873                            .dwattr $C$DW$T$161, DW_AT_decl_file("C:/TI_CodeComposer/ccsv6/tools/compiler/arm_5.1.7/includ
    3874                            .dwattr $C$DW$T$161, DW_AT_decl_line(0xac)
    3875                            .dwattr $C$DW$T$161, DW_AT_decl_column(0x1a)
    3876                    $C$DW$T$82      .dwtag  DW_TAG_typedef, DW_AT_name("size_t")
    3877                            .dwattr $C$DW$T$82, DW_AT_type(*$C$DW$T$11)
    3878                            .dwattr $C$DW$T$82, DW_AT_language(DW_LANG_C)
    3879                            .dwattr $C$DW$T$82, DW_AT_decl_file("C:/TI_CodeComposer/ccsv6/tools/compiler/arm_5.1.7/include
    3880                            .dwattr $C$DW$T$82, DW_AT_decl_line(0x64)
    3881                            .dwattr $C$DW$T$82, DW_AT_decl_column(0x19)
    3882                    $C$DW$T$24      .dwtag  DW_TAG_typedef, DW_AT_name("uint32_t")
    3883                            .dwattr $C$DW$T$24, DW_AT_type(*$C$DW$T$11)
    3884                            .dwattr $C$DW$T$24, DW_AT_language(DW_LANG_C)
    3885                            .dwattr $C$DW$T$24, DW_AT_decl_file("C:/TI_CodeComposer/ccsv6/tools/compiler/arm_5.1.7/include
    3886                            .dwattr $C$DW$T$24, DW_AT_decl_line(0x2f)
    3887                            .dwattr $C$DW$T$24, DW_AT_decl_column(0x1c)
    3888                    $C$DW$T$51      .dwtag  DW_TAG_typedef, DW_AT_name("StackType_t")
    3889                            .dwattr $C$DW$T$51, DW_AT_type(*$C$DW$T$24)
    3890                            .dwattr $C$DW$T$51, DW_AT_language(DW_LANG_C)
    3891                            .dwattr $C$DW$T$51, DW_AT_decl_file("H:\class\690 Adv. Emb. Sys\FreeRTOS8_EECS_TM4C1294_Sensor
    3892                            .dwattr $C$DW$T$51, DW_AT_decl_line(0x69)
    3893                            .dwattr $C$DW$T$51, DW_AT_decl_column(0x12)
    3894                    $C$DW$T$52      .dwtag  DW_TAG_pointer_type
    3895                            .dwattr $C$DW$T$52, DW_AT_type(*$C$DW$T$51)
    3896                            .dwattr $C$DW$T$52, DW_AT_address_class(0x20)
    3897                    $C$DW$T$38      .dwtag  DW_TAG_typedef, DW_AT_name("TickType_t")
    3898                            .dwattr $C$DW$T$38, DW_AT_type(*$C$DW$T$24)
    3899                            .dwattr $C$DW$T$38, DW_AT_language(DW_LANG_C)
    3900                            .dwattr $C$DW$T$38, DW_AT_decl_file("H:\class\690 Adv. Emb. Sys\FreeRTOS8_EECS_TM4C1294_Sensor
    3901                            .dwattr $C$DW$T$38, DW_AT_decl_line(0x71)
    3902                            .dwattr $C$DW$T$38, DW_AT_decl_column(0x16)
    3903                    $C$DW$T$97      .dwtag  DW_TAG_const_type
    3904                            .dwattr $C$DW$T$97, DW_AT_type(*$C$DW$T$38)
    3905                    $C$DW$T$134     .dwtag  DW_TAG_pointer_type
TI ARM Assembler PC v5.1.7 Tue Sep 16 08:38:40 2014

Tools Copyright (c) 1996-2014 Texas Instruments Incorporated
queue.asm                                                            PAGE   72

    3906                            .dwattr $C$DW$T$134, DW_AT_type(*$C$DW$T$38)
    3907                            .dwattr $C$DW$T$134, DW_AT_address_class(0x20)
    3908                    $C$DW$T$135     .dwtag  DW_TAG_const_type
    3909                            .dwattr $C$DW$T$135, DW_AT_type(*$C$DW$T$134)
    3910                    $C$DW$T$25      .dwtag  DW_TAG_typedef, DW_AT_name("UBaseType_t")
    3911                            .dwattr $C$DW$T$25, DW_AT_type(*$C$DW$T$24)
    3912                            .dwattr $C$DW$T$25, DW_AT_language(DW_LANG_C)
    3913                            .dwattr $C$DW$T$25, DW_AT_decl_file("H:\class\690 Adv. Emb. Sys\FreeRTOS8_EECS_TM4C1294_Sensor
    3914                            .dwattr $C$DW$T$25, DW_AT_decl_line(0x6b)
    3915                            .dwattr $C$DW$T$25, DW_AT_decl_column(0x12)
    3916                    $C$DW$T$28      .dwtag  DW_TAG_volatile_type
    3917                            .dwattr $C$DW$T$28, DW_AT_type(*$C$DW$T$25)
    3918                    $C$DW$T$74      .dwtag  DW_TAG_const_type
    3919                            .dwattr $C$DW$T$74, DW_AT_type(*$C$DW$T$25)
    3920                    $C$DW$T$164     .dwtag  DW_TAG_typedef, DW_AT_name("portSTACK_TYPE")
    3921                            .dwattr $C$DW$T$164, DW_AT_type(*$C$DW$T$24)
    3922                            .dwattr $C$DW$T$164, DW_AT_language(DW_LANG_C)
    3923                            .dwattr $C$DW$T$164, DW_AT_decl_file("H:\class\690 Adv. Emb. Sys\FreeRTOS8_EECS_TM4C1294_Senso
    3924                            .dwattr $C$DW$T$164, DW_AT_decl_line(0x66)
    3925                            .dwattr $C$DW$T$164, DW_AT_decl_column(0x12)
    3926                    $C$DW$T$165     .dwtag  DW_TAG_typedef, DW_AT_name("uint_fast16_t")
    3927                            .dwattr $C$DW$T$165, DW_AT_type(*$C$DW$T$24)
    3928                            .dwattr $C$DW$T$165, DW_AT_language(DW_LANG_C)
    3929                            .dwattr $C$DW$T$165, DW_AT_decl_file("C:/TI_CodeComposer/ccsv6/tools/compiler/arm_5.1.7/includ
    3930                            .dwattr $C$DW$T$165, DW_AT_decl_line(0x48)
    3931                            .dwattr $C$DW$T$165, DW_AT_decl_column(0x16)
    3932                    $C$DW$T$166     .dwtag  DW_TAG_typedef, DW_AT_name("uint_fast32_t")
    3933                            .dwattr $C$DW$T$166, DW_AT_type(*$C$DW$T$24)
    3934                            .dwattr $C$DW$T$166, DW_AT_language(DW_LANG_C)
    3935                            .dwattr $C$DW$T$166, DW_AT_decl_file("C:/TI_CodeComposer/ccsv6/tools/compiler/arm_5.1.7/includ
    3936                            .dwattr $C$DW$T$166, DW_AT_decl_line(0x4b)
    3937                            .dwattr $C$DW$T$166, DW_AT_decl_column(0x16)
    3938                    $C$DW$T$167     .dwtag  DW_TAG_typedef, DW_AT_name("uint_fast8_t")
    3939                            .dwattr $C$DW$T$167, DW_AT_type(*$C$DW$T$24)
    3940                            .dwattr $C$DW$T$167, DW_AT_language(DW_LANG_C)
    3941                            .dwattr $C$DW$T$167, DW_AT_decl_file("C:/TI_CodeComposer/ccsv6/tools/compiler/arm_5.1.7/includ
    3942                            .dwattr $C$DW$T$167, DW_AT_decl_line(0x46)
    3943                            .dwattr $C$DW$T$167, DW_AT_decl_column(0x16)
    3944                    $C$DW$T$168     .dwtag  DW_TAG_typedef, DW_AT_name("uint_least32_t")
    3945                            .dwattr $C$DW$T$168, DW_AT_type(*$C$DW$T$24)
    3946                            .dwattr $C$DW$T$168, DW_AT_language(DW_LANG_C)
    3947                            .dwattr $C$DW$T$168, DW_AT_decl_file("C:/TI_CodeComposer/ccsv6/tools/compiler/arm_5.1.7/includ
    3948                            .dwattr $C$DW$T$168, DW_AT_decl_line(0x3d)
    3949                            .dwattr $C$DW$T$168, DW_AT_decl_column(0x16)
    3950                    $C$DW$T$169     .dwtag  DW_TAG_typedef, DW_AT_name("uintptr_t")
    3951                            .dwattr $C$DW$T$169, DW_AT_type(*$C$DW$T$11)
    3952                            .dwattr $C$DW$T$169, DW_AT_language(DW_LANG_C)
    3953                            .dwattr $C$DW$T$169, DW_AT_decl_file("C:/TI_CodeComposer/ccsv6/tools/compiler/arm_5.1.7/includ
    3954                            .dwattr $C$DW$T$169, DW_AT_decl_line(0x53)
    3955                            .dwattr $C$DW$T$169, DW_AT_decl_column(0x1a)
    3956                    $C$DW$T$12      .dwtag  DW_TAG_base_type
    3957                            .dwattr $C$DW$T$12, DW_AT_encoding(DW_ATE_signed)
    3958                            .dwattr $C$DW$T$12, DW_AT_name("long")
    3959                            .dwattr $C$DW$T$12, DW_AT_byte_size(0x04)
    3960                    $C$DW$T$170     .dwtag  DW_TAG_typedef, DW_AT_name("_Int32t")
TI ARM Assembler PC v5.1.7 Tue Sep 16 08:38:40 2014

Tools Copyright (c) 1996-2014 Texas Instruments Incorporated
queue.asm                                                            PAGE   73

    3961                            .dwattr $C$DW$T$170, DW_AT_type(*$C$DW$T$12)
    3962                            .dwattr $C$DW$T$170, DW_AT_language(DW_LANG_C)
    3963                            .dwattr $C$DW$T$170, DW_AT_decl_file("C:/TI_CodeComposer/ccsv6/tools/compiler/arm_5.1.7/includ
    3964                            .dwattr $C$DW$T$170, DW_AT_decl_line(0xa2)
    3965                            .dwattr $C$DW$T$170, DW_AT_decl_column(0x0e)
    3966                    $C$DW$T$13      .dwtag  DW_TAG_base_type
    3967                            .dwattr $C$DW$T$13, DW_AT_encoding(DW_ATE_unsigned)
    3968                            .dwattr $C$DW$T$13, DW_AT_name("unsigned long")
    3969                            .dwattr $C$DW$T$13, DW_AT_byte_size(0x04)
    3970                    $C$DW$T$171     .dwtag  DW_TAG_typedef, DW_AT_name("_Uint32t")
    3971                            .dwattr $C$DW$T$171, DW_AT_type(*$C$DW$T$13)
    3972                            .dwattr $C$DW$T$171, DW_AT_language(DW_LANG_C)
    3973                            .dwattr $C$DW$T$171, DW_AT_decl_file("C:/TI_CodeComposer/ccsv6/tools/compiler/arm_5.1.7/includ
    3974                            .dwattr $C$DW$T$171, DW_AT_decl_line(0xa3)
    3975                            .dwattr $C$DW$T$171, DW_AT_decl_column(0x17)
    3976                    $C$DW$T$14      .dwtag  DW_TAG_base_type
    3977                            .dwattr $C$DW$T$14, DW_AT_encoding(DW_ATE_signed)
    3978                            .dwattr $C$DW$T$14, DW_AT_name("long long")
    3979                            .dwattr $C$DW$T$14, DW_AT_byte_size(0x08)
    3980                    $C$DW$T$174     .dwtag  DW_TAG_typedef, DW_AT_name("_Longlong")
    3981                            .dwattr $C$DW$T$174, DW_AT_type(*$C$DW$T$14)
    3982                            .dwattr $C$DW$T$174, DW_AT_language(DW_LANG_C)
    3983                            .dwattr $C$DW$T$174, DW_AT_decl_file("C:/TI_CodeComposer/ccsv6/tools/compiler/arm_5.1.7/includ
    3984                            .dwattr $C$DW$T$174, DW_AT_decl_line(0x1ce)
    3985                            .dwattr $C$DW$T$174, DW_AT_decl_column(0x13)
    3986                    $C$DW$T$175     .dwtag  DW_TAG_typedef, DW_AT_name("int64_t")
    3987                            .dwattr $C$DW$T$175, DW_AT_type(*$C$DW$T$14)
    3988                            .dwattr $C$DW$T$175, DW_AT_language(DW_LANG_C)
    3989                            .dwattr $C$DW$T$175, DW_AT_decl_file("C:/TI_CodeComposer/ccsv6/tools/compiler/arm_5.1.7/includ
    3990                            .dwattr $C$DW$T$175, DW_AT_decl_line(0x32)
    3991                            .dwattr $C$DW$T$175, DW_AT_decl_column(0x21)
    3992                    $C$DW$T$176     .dwtag  DW_TAG_typedef, DW_AT_name("int_fast64_t")
    3993                            .dwattr $C$DW$T$176, DW_AT_type(*$C$DW$T$175)
    3994                            .dwattr $C$DW$T$176, DW_AT_language(DW_LANG_C)
    3995                            .dwattr $C$DW$T$176, DW_AT_decl_file("C:/TI_CodeComposer/ccsv6/tools/compiler/arm_5.1.7/includ
    3996                            .dwattr $C$DW$T$176, DW_AT_decl_line(0x4e)
    3997                            .dwattr $C$DW$T$176, DW_AT_decl_column(0x17)
    3998                    $C$DW$T$177     .dwtag  DW_TAG_typedef, DW_AT_name("int_least64_t")
    3999                            .dwattr $C$DW$T$177, DW_AT_type(*$C$DW$T$175)
    4000                            .dwattr $C$DW$T$177, DW_AT_language(DW_LANG_C)
    4001                            .dwattr $C$DW$T$177, DW_AT_decl_file("C:/TI_CodeComposer/ccsv6/tools/compiler/arm_5.1.7/includ
    4002                            .dwattr $C$DW$T$177, DW_AT_decl_line(0x40)
    4003                            .dwattr $C$DW$T$177, DW_AT_decl_column(0x17)
    4004                    $C$DW$T$178     .dwtag  DW_TAG_typedef, DW_AT_name("portDOUBLE")
    4005                            .dwattr $C$DW$T$178, DW_AT_type(*$C$DW$T$175)
    4006                            .dwattr $C$DW$T$178, DW_AT_language(DW_LANG_C)
    4007                            .dwattr $C$DW$T$178, DW_AT_decl_file("H:\class\690 Adv. Emb. Sys\FreeRTOS8_EECS_TM4C1294_Senso
    4008                            .dwattr $C$DW$T$178, DW_AT_decl_line(0x63)
    4009                            .dwattr $C$DW$T$178, DW_AT_decl_column(0x12)
    4010                    $C$DW$T$179     .dwtag  DW_TAG_typedef, DW_AT_name("intmax_t")
    4011                            .dwattr $C$DW$T$179, DW_AT_type(*$C$DW$T$14)
    4012                            .dwattr $C$DW$T$179, DW_AT_language(DW_LANG_C)
    4013                            .dwattr $C$DW$T$179, DW_AT_decl_file("C:/TI_CodeComposer/ccsv6/tools/compiler/arm_5.1.7/includ
    4014                            .dwattr $C$DW$T$179, DW_AT_decl_line(0x56)
    4015                            .dwattr $C$DW$T$179, DW_AT_decl_column(0x20)
TI ARM Assembler PC v5.1.7 Tue Sep 16 08:38:40 2014

Tools Copyright (c) 1996-2014 Texas Instruments Incorporated
queue.asm                                                            PAGE   74

    4016                    $C$DW$T$15      .dwtag  DW_TAG_base_type
    4017                            .dwattr $C$DW$T$15, DW_AT_encoding(DW_ATE_unsigned)
    4018                            .dwattr $C$DW$T$15, DW_AT_name("unsigned long long")
    4019                            .dwattr $C$DW$T$15, DW_AT_byte_size(0x08)
    4020                    $C$DW$T$180     .dwtag  DW_TAG_typedef, DW_AT_name("_ULonglong")
    4021                            .dwattr $C$DW$T$180, DW_AT_type(*$C$DW$T$15)
    4022                            .dwattr $C$DW$T$180, DW_AT_language(DW_LANG_C)
    4023                            .dwattr $C$DW$T$180, DW_AT_decl_file("C:/TI_CodeComposer/ccsv6/tools/compiler/arm_5.1.7/includ
    4024                            .dwattr $C$DW$T$180, DW_AT_decl_line(0x1cf)
    4025                            .dwattr $C$DW$T$180, DW_AT_decl_column(0x14)
    4026                    $C$DW$T$181     .dwtag  DW_TAG_typedef, DW_AT_name("uint64_t")
    4027                            .dwattr $C$DW$T$181, DW_AT_type(*$C$DW$T$15)
    4028                            .dwattr $C$DW$T$181, DW_AT_language(DW_LANG_C)
    4029                            .dwattr $C$DW$T$181, DW_AT_decl_file("C:/TI_CodeComposer/ccsv6/tools/compiler/arm_5.1.7/includ
    4030                            .dwattr $C$DW$T$181, DW_AT_decl_line(0x33)
    4031                            .dwattr $C$DW$T$181, DW_AT_decl_column(0x20)
    4032                    $C$DW$T$182     .dwtag  DW_TAG_typedef, DW_AT_name("uint_fast64_t")
    4033                            .dwattr $C$DW$T$182, DW_AT_type(*$C$DW$T$181)
    4034                            .dwattr $C$DW$T$182, DW_AT_language(DW_LANG_C)
    4035                            .dwattr $C$DW$T$182, DW_AT_decl_file("C:/TI_CodeComposer/ccsv6/tools/compiler/arm_5.1.7/includ
    4036                            .dwattr $C$DW$T$182, DW_AT_decl_line(0x4f)
    4037                            .dwattr $C$DW$T$182, DW_AT_decl_column(0x16)
    4038                    $C$DW$T$183     .dwtag  DW_TAG_typedef, DW_AT_name("uint_least64_t")
    4039                            .dwattr $C$DW$T$183, DW_AT_type(*$C$DW$T$181)
    4040                            .dwattr $C$DW$T$183, DW_AT_language(DW_LANG_C)
    4041                            .dwattr $C$DW$T$183, DW_AT_decl_file("C:/TI_CodeComposer/ccsv6/tools/compiler/arm_5.1.7/includ
    4042                            .dwattr $C$DW$T$183, DW_AT_decl_line(0x41)
    4043                            .dwattr $C$DW$T$183, DW_AT_decl_column(0x16)
    4044                    $C$DW$T$184     .dwtag  DW_TAG_typedef, DW_AT_name("uintmax_t")
    4045                            .dwattr $C$DW$T$184, DW_AT_type(*$C$DW$T$15)
    4046                            .dwattr $C$DW$T$184, DW_AT_language(DW_LANG_C)
    4047                            .dwattr $C$DW$T$184, DW_AT_decl_file("C:/TI_CodeComposer/ccsv6/tools/compiler/arm_5.1.7/includ
    4048                            .dwattr $C$DW$T$184, DW_AT_decl_line(0x57)
    4049                            .dwattr $C$DW$T$184, DW_AT_decl_column(0x20)
    4050                    $C$DW$T$16      .dwtag  DW_TAG_base_type
    4051                            .dwattr $C$DW$T$16, DW_AT_encoding(DW_ATE_float)
    4052                            .dwattr $C$DW$T$16, DW_AT_name("float")
    4053                            .dwattr $C$DW$T$16, DW_AT_byte_size(0x04)
    4054                    $C$DW$T$185     .dwtag  DW_TAG_typedef, DW_AT_name("portFLOAT")
    4055                            .dwattr $C$DW$T$185, DW_AT_type(*$C$DW$T$16)
    4056                            .dwattr $C$DW$T$185, DW_AT_language(DW_LANG_C)
    4057                            .dwattr $C$DW$T$185, DW_AT_decl_file("H:\class\690 Adv. Emb. Sys\FreeRTOS8_EECS_TM4C1294_Senso
    4058                            .dwattr $C$DW$T$185, DW_AT_decl_line(0x62)
    4059                            .dwattr $C$DW$T$185, DW_AT_decl_column(0x10)
    4060                    $C$DW$T$17      .dwtag  DW_TAG_base_type
    4061                            .dwattr $C$DW$T$17, DW_AT_encoding(DW_ATE_float)
    4062                            .dwattr $C$DW$T$17, DW_AT_name("double")
    4063                            .dwattr $C$DW$T$17, DW_AT_byte_size(0x08)
    4064                    $C$DW$T$18      .dwtag  DW_TAG_base_type
    4065                            .dwattr $C$DW$T$18, DW_AT_encoding(DW_ATE_float)
    4066                            .dwattr $C$DW$T$18, DW_AT_name("long double")
    4067                            .dwattr $C$DW$T$18, DW_AT_byte_size(0x08)
    4068                    $C$DW$T$186     .dwtag  DW_TAG_typedef, DW_AT_name("_Sysch_t")
    4069                            .dwattr $C$DW$T$186, DW_AT_type(*$C$DW$T$6)
    4070                            .dwattr $C$DW$T$186, DW_AT_language(DW_LANG_C)
TI ARM Assembler PC v5.1.7 Tue Sep 16 08:38:40 2014

Tools Copyright (c) 1996-2014 Texas Instruments Incorporated
queue.asm                                                            PAGE   75

    4071                            .dwattr $C$DW$T$186, DW_AT_decl_file("C:/TI_CodeComposer/ccsv6/tools/compiler/arm_5.1.7/includ
    4072                            .dwattr $C$DW$T$186, DW_AT_decl_line(0x23a)
    4073                            .dwattr $C$DW$T$186, DW_AT_decl_column(0x0e)
    4074                    $C$DW$T$47      .dwtag  DW_TAG_const_type
    4075                            .dwattr $C$DW$T$47, DW_AT_type(*$C$DW$T$6)
    4076                    $C$DW$T$48      .dwtag  DW_TAG_pointer_type
    4077                            .dwattr $C$DW$T$48, DW_AT_type(*$C$DW$T$47)
    4078                            .dwattr $C$DW$T$48, DW_AT_address_class(0x20)
    4079                    $C$DW$T$49      .dwtag  DW_TAG_const_type
    4080                            .dwattr $C$DW$T$49, DW_AT_type(*$C$DW$T$48)
    4081                    $C$DW$T$187     .dwtag  DW_TAG_pointer_type
    4082                            .dwattr $C$DW$T$187, DW_AT_type(*$C$DW$T$6)
    4083                            .dwattr $C$DW$T$187, DW_AT_address_class(0x20)
    4084                    $C$DW$T$188     .dwtag  DW_TAG_typedef, DW_AT_name("__builtin_va_list")
    4085                            .dwattr $C$DW$T$188, DW_AT_type(*$C$DW$T$187)
    4086                            .dwattr $C$DW$T$188, DW_AT_language(DW_LANG_C)
    4087                            .dwattr $C$DW$T$188, DW_AT_decl_file("../Source/queue.c")
    4088                            .dwattr $C$DW$T$188, DW_AT_decl_line(0x754)
    4089                            .dwattr $C$DW$T$188, DW_AT_decl_column(0x01)
    4090                    
    4091                    $C$DW$T$33      .dwtag  DW_TAG_structure_type
    4092                            .dwattr $C$DW$T$33, DW_AT_name("__va_list")
    4093                            .dwattr $C$DW$T$33, DW_AT_byte_size(0x04)
    4094                    $C$DW$281       .dwtag  DW_TAG_member
    4095                            .dwattr $C$DW$281, DW_AT_type(*$C$DW$T$3)
    4096                            .dwattr $C$DW$281, DW_AT_name("__ap")
    4097                            .dwattr $C$DW$281, DW_AT_TI_symbol_name("__ap")
    4098                            .dwattr $C$DW$281, DW_AT_data_member_location[DW_OP_plus_uconst 0x0]
    4099                            .dwattr $C$DW$281, DW_AT_accessibility(DW_ACCESS_public)
    4100                            .dwattr $C$DW$281, DW_AT_decl_file("C:/TI_CodeComposer/ccsv6/tools/compiler/arm_5.1.7/include/
    4101                            .dwattr $C$DW$281, DW_AT_decl_line(0x32)
    4102                            .dwattr $C$DW$281, DW_AT_decl_column(0x0c)
    4103                            .dwendtag $C$DW$T$33
    4104                    
    4105                            .dwattr $C$DW$T$33, DW_AT_decl_file("C:/TI_CodeComposer/ccsv6/tools/compiler/arm_5.1.7/include
    4106                            .dwattr $C$DW$T$33, DW_AT_decl_line(0x31)
    4107                            .dwattr $C$DW$T$33, DW_AT_decl_column(0x10)
    4108                    $C$DW$T$189     .dwtag  DW_TAG_typedef, DW_AT_name("va_list")
    4109                            .dwattr $C$DW$T$189, DW_AT_type(*$C$DW$T$33)
    4110                            .dwattr $C$DW$T$189, DW_AT_language(DW_LANG_C)
    4111                            .dwattr $C$DW$T$189, DW_AT_decl_file("C:/TI_CodeComposer/ccsv6/tools/compiler/arm_5.1.7/includ
    4112                            .dwattr $C$DW$T$189, DW_AT_decl_line(0x33)
    4113                            .dwattr $C$DW$T$189, DW_AT_decl_column(0x03)
    4114                    $C$DW$T$190     .dwtag  DW_TAG_typedef, DW_AT_name("_Va_list")
    4115                            .dwattr $C$DW$T$190, DW_AT_type(*$C$DW$T$189)
    4116                            .dwattr $C$DW$T$190, DW_AT_language(DW_LANG_C)
    4117                            .dwattr $C$DW$T$190, DW_AT_decl_file("C:/TI_CodeComposer/ccsv6/tools/compiler/arm_5.1.7/includ
    4118                            .dwattr $C$DW$T$190, DW_AT_decl_line(0x218)
    4119                            .dwattr $C$DW$T$190, DW_AT_decl_column(0x17)
    4120                    
    4121                    $C$DW$T$37      .dwtag  DW_TAG_structure_type
    4122                            .dwattr $C$DW$T$37, DW_AT_name("xLIST")
    4123                            .dwattr $C$DW$T$37, DW_AT_byte_size(0x14)
    4124                    $C$DW$282       .dwtag  DW_TAG_member
    4125                            .dwattr $C$DW$282, DW_AT_type(*$C$DW$T$25)
TI ARM Assembler PC v5.1.7 Tue Sep 16 08:38:40 2014

Tools Copyright (c) 1996-2014 Texas Instruments Incorporated
queue.asm                                                            PAGE   76

    4126                            .dwattr $C$DW$282, DW_AT_name("uxNumberOfItems")
    4127                            .dwattr $C$DW$282, DW_AT_TI_symbol_name("uxNumberOfItems")
    4128                            .dwattr $C$DW$282, DW_AT_data_member_location[DW_OP_plus_uconst 0x0]
    4129                            .dwattr $C$DW$282, DW_AT_accessibility(DW_ACCESS_public)
    4130                            .dwattr $C$DW$282, DW_AT_decl_file("H:\class\690 Adv. Emb. Sys\FreeRTOS8_EECS_TM4C1294_SensorH
    4131                            .dwattr $C$DW$282, DW_AT_decl_line(0x9f)
    4132                            .dwattr $C$DW$282, DW_AT_decl_column(0x22)
    4133                    $C$DW$283       .dwtag  DW_TAG_member
    4134                            .dwattr $C$DW$283, DW_AT_type(*$C$DW$T$35)
    4135                            .dwattr $C$DW$283, DW_AT_name("pxIndex")
    4136                            .dwattr $C$DW$283, DW_AT_TI_symbol_name("pxIndex")
    4137                            .dwattr $C$DW$283, DW_AT_data_member_location[DW_OP_plus_uconst 0x4]
    4138                            .dwattr $C$DW$283, DW_AT_accessibility(DW_ACCESS_public)
    4139                            .dwattr $C$DW$283, DW_AT_decl_file("H:\class\690 Adv. Emb. Sys\FreeRTOS8_EECS_TM4C1294_SensorH
    4140                            .dwattr $C$DW$283, DW_AT_decl_line(0xa0)
    4141                            .dwattr $C$DW$283, DW_AT_decl_column(0x23)
    4142                    $C$DW$284       .dwtag  DW_TAG_member
    4143                            .dwattr $C$DW$284, DW_AT_type(*$C$DW$T$36)
    4144                            .dwattr $C$DW$284, DW_AT_name("xListEnd")
    4145                            .dwattr $C$DW$284, DW_AT_TI_symbol_name("xListEnd")
    4146                            .dwattr $C$DW$284, DW_AT_data_member_location[DW_OP_plus_uconst 0x8]
    4147                            .dwattr $C$DW$284, DW_AT_accessibility(DW_ACCESS_public)
    4148                            .dwattr $C$DW$284, DW_AT_decl_file("H:\class\690 Adv. Emb. Sys\FreeRTOS8_EECS_TM4C1294_SensorH
    4149                            .dwattr $C$DW$284, DW_AT_decl_line(0xa1)
    4150                            .dwattr $C$DW$284, DW_AT_decl_column(0x11)
    4151                            .dwendtag $C$DW$T$37
    4152                    
    4153                            .dwattr $C$DW$T$37, DW_AT_decl_file("H:\class\690 Adv. Emb. Sys\FreeRTOS8_EECS_TM4C1294_Sensor
    4154                            .dwattr $C$DW$T$37, DW_AT_decl_line(0x9d)
    4155                            .dwattr $C$DW$T$37, DW_AT_decl_column(0x10)
    4156                    $C$DW$T$27      .dwtag  DW_TAG_typedef, DW_AT_name("List_t")
    4157                            .dwattr $C$DW$T$27, DW_AT_type(*$C$DW$T$37)
    4158                            .dwattr $C$DW$T$27, DW_AT_language(DW_LANG_C)
    4159                            .dwattr $C$DW$T$27, DW_AT_decl_file("H:\class\690 Adv. Emb. Sys\FreeRTOS8_EECS_TM4C1294_Sensor
    4160                            .dwattr $C$DW$T$27, DW_AT_decl_line(0xa2)
    4161                            .dwattr $C$DW$T$27, DW_AT_decl_column(0x03)
    4162                    $C$DW$T$129     .dwtag  DW_TAG_const_type
    4163                            .dwattr $C$DW$T$129, DW_AT_type(*$C$DW$T$27)
    4164                    $C$DW$T$130     .dwtag  DW_TAG_pointer_type
    4165                            .dwattr $C$DW$T$130, DW_AT_type(*$C$DW$T$129)
    4166                            .dwattr $C$DW$T$130, DW_AT_address_class(0x20)
    4167                    $C$DW$T$131     .dwtag  DW_TAG_const_type
    4168                            .dwattr $C$DW$T$131, DW_AT_type(*$C$DW$T$130)
    4169                    $C$DW$T$93      .dwtag  DW_TAG_pointer_type
    4170                            .dwattr $C$DW$T$93, DW_AT_type(*$C$DW$T$27)
    4171                            .dwattr $C$DW$T$93, DW_AT_address_class(0x20)
    4172                    $C$DW$T$94      .dwtag  DW_TAG_const_type
    4173                            .dwattr $C$DW$T$94, DW_AT_type(*$C$DW$T$93)
    4174                    
    4175                    $C$DW$T$40      .dwtag  DW_TAG_structure_type
    4176                            .dwattr $C$DW$T$40, DW_AT_name("xLIST_ITEM")
    4177                            .dwattr $C$DW$T$40, DW_AT_byte_size(0x14)
    4178                    $C$DW$285       .dwtag  DW_TAG_member
    4179                            .dwattr $C$DW$285, DW_AT_type(*$C$DW$T$38)
    4180                            .dwattr $C$DW$285, DW_AT_name("xItemValue")
TI ARM Assembler PC v5.1.7 Tue Sep 16 08:38:40 2014

Tools Copyright (c) 1996-2014 Texas Instruments Incorporated
queue.asm                                                            PAGE   77

    4181                            .dwattr $C$DW$285, DW_AT_TI_symbol_name("xItemValue")
    4182                            .dwattr $C$DW$285, DW_AT_data_member_location[DW_OP_plus_uconst 0x0]
    4183                            .dwattr $C$DW$285, DW_AT_accessibility(DW_ACCESS_public)
    4184                            .dwattr $C$DW$285, DW_AT_decl_file("H:\class\690 Adv. Emb. Sys\FreeRTOS8_EECS_TM4C1294_SensorH
    4185                            .dwattr $C$DW$285, DW_AT_decl_line(0x8a)
    4186                            .dwattr $C$DW$285, DW_AT_decl_column(0x21)
    4187                    $C$DW$286       .dwtag  DW_TAG_member
    4188                            .dwattr $C$DW$286, DW_AT_type(*$C$DW$T$39)
    4189                            .dwattr $C$DW$286, DW_AT_name("pxNext")
    4190                            .dwattr $C$DW$286, DW_AT_TI_symbol_name("pxNext")
    4191                            .dwattr $C$DW$286, DW_AT_data_member_location[DW_OP_plus_uconst 0x4]
    4192                            .dwattr $C$DW$286, DW_AT_accessibility(DW_ACCESS_public)
    4193                            .dwattr $C$DW$286, DW_AT_decl_file("H:\class\690 Adv. Emb. Sys\FreeRTOS8_EECS_TM4C1294_SensorH
    4194                            .dwattr $C$DW$286, DW_AT_decl_line(0x8b)
    4195                            .dwattr $C$DW$286, DW_AT_decl_column(0x2a)
    4196                    $C$DW$287       .dwtag  DW_TAG_member
    4197                            .dwattr $C$DW$287, DW_AT_type(*$C$DW$T$39)
    4198                            .dwattr $C$DW$287, DW_AT_name("pxPrevious")
    4199                            .dwattr $C$DW$287, DW_AT_TI_symbol_name("pxPrevious")
    4200                            .dwattr $C$DW$287, DW_AT_data_member_location[DW_OP_plus_uconst 0x8]
    4201                            .dwattr $C$DW$287, DW_AT_accessibility(DW_ACCESS_public)
    4202                            .dwattr $C$DW$287, DW_AT_decl_file("H:\class\690 Adv. Emb. Sys\FreeRTOS8_EECS_TM4C1294_SensorH
    4203                            .dwattr $C$DW$287, DW_AT_decl_line(0x8c)
    4204                            .dwattr $C$DW$287, DW_AT_decl_column(0x2a)
    4205                    $C$DW$288       .dwtag  DW_TAG_member
    4206                            .dwattr $C$DW$288, DW_AT_type(*$C$DW$T$3)
    4207                            .dwattr $C$DW$288, DW_AT_name("pvOwner")
    4208                            .dwattr $C$DW$288, DW_AT_TI_symbol_name("pvOwner")
    4209                            .dwattr $C$DW$288, DW_AT_data_member_location[DW_OP_plus_uconst 0xc]
    4210                            .dwattr $C$DW$288, DW_AT_accessibility(DW_ACCESS_public)
    4211                            .dwattr $C$DW$288, DW_AT_decl_file("H:\class\690 Adv. Emb. Sys\FreeRTOS8_EECS_TM4C1294_SensorH
    4212                            .dwattr $C$DW$288, DW_AT_decl_line(0x8d)
    4213                            .dwattr $C$DW$288, DW_AT_decl_column(0x09)
    4214                    $C$DW$289       .dwtag  DW_TAG_member
    4215                            .dwattr $C$DW$289, DW_AT_type(*$C$DW$T$3)
    4216                            .dwattr $C$DW$289, DW_AT_name("pvContainer")
    4217                            .dwattr $C$DW$289, DW_AT_TI_symbol_name("pvContainer")
    4218                            .dwattr $C$DW$289, DW_AT_data_member_location[DW_OP_plus_uconst 0x10]
    4219                            .dwattr $C$DW$289, DW_AT_accessibility(DW_ACCESS_public)
    4220                            .dwattr $C$DW$289, DW_AT_decl_file("H:\class\690 Adv. Emb. Sys\FreeRTOS8_EECS_TM4C1294_SensorH
    4221                            .dwattr $C$DW$289, DW_AT_decl_line(0x8e)
    4222                            .dwattr $C$DW$289, DW_AT_decl_column(0x1d)
    4223                            .dwendtag $C$DW$T$40
    4224                    
    4225                            .dwattr $C$DW$T$40, DW_AT_decl_file("H:\class\690 Adv. Emb. Sys\FreeRTOS8_EECS_TM4C1294_Sensor
    4226                            .dwattr $C$DW$T$40, DW_AT_decl_line(0x88)
    4227                            .dwattr $C$DW$T$40, DW_AT_decl_column(0x08)
    4228                    $C$DW$T$34      .dwtag  DW_TAG_typedef, DW_AT_name("ListItem_t")
    4229                            .dwattr $C$DW$T$34, DW_AT_type(*$C$DW$T$40)
    4230                            .dwattr $C$DW$T$34, DW_AT_language(DW_LANG_C)
    4231                            .dwattr $C$DW$T$34, DW_AT_decl_file("H:\class\690 Adv. Emb. Sys\FreeRTOS8_EECS_TM4C1294_Sensor
    4232                            .dwattr $C$DW$T$34, DW_AT_decl_line(0x90)
    4233                            .dwattr $C$DW$T$34, DW_AT_decl_column(0x1b)
    4234                    $C$DW$T$35      .dwtag  DW_TAG_pointer_type
    4235                            .dwattr $C$DW$T$35, DW_AT_type(*$C$DW$T$34)
TI ARM Assembler PC v5.1.7 Tue Sep 16 08:38:40 2014

Tools Copyright (c) 1996-2014 Texas Instruments Incorporated
queue.asm                                                            PAGE   78

    4236                            .dwattr $C$DW$T$35, DW_AT_address_class(0x20)
    4237                    $C$DW$T$39      .dwtag  DW_TAG_pointer_type
    4238                            .dwattr $C$DW$T$39, DW_AT_type(*$C$DW$T$40)
    4239                            .dwattr $C$DW$T$39, DW_AT_address_class(0x20)
    4240                    
    4241                    $C$DW$T$41      .dwtag  DW_TAG_structure_type
    4242                            .dwattr $C$DW$T$41, DW_AT_name("xMEMORY_REGION")
    4243                            .dwattr $C$DW$T$41, DW_AT_byte_size(0x0c)
    4244                    $C$DW$290       .dwtag  DW_TAG_member
    4245                            .dwattr $C$DW$290, DW_AT_type(*$C$DW$T$3)
    4246                            .dwattr $C$DW$290, DW_AT_name("pvBaseAddress")
    4247                            .dwattr $C$DW$290, DW_AT_TI_symbol_name("pvBaseAddress")
    4248                            .dwattr $C$DW$290, DW_AT_data_member_location[DW_OP_plus_uconst 0x0]
    4249                            .dwattr $C$DW$290, DW_AT_accessibility(DW_ACCESS_public)
    4250                            .dwattr $C$DW$290, DW_AT_decl_file("H:/class/690 Adv. Emb. Sys/FreeRTOS8_EECS_TM4C1294_SensorH
    4251                            .dwattr $C$DW$290, DW_AT_decl_line(0x83)
    4252                            .dwattr $C$DW$290, DW_AT_decl_column(0x08)
    4253                    $C$DW$291       .dwtag  DW_TAG_member
    4254                            .dwattr $C$DW$291, DW_AT_type(*$C$DW$T$24)
    4255                            .dwattr $C$DW$291, DW_AT_name("ulLengthInBytes")
    4256                            .dwattr $C$DW$291, DW_AT_TI_symbol_name("ulLengthInBytes")
    4257                            .dwattr $C$DW$291, DW_AT_data_member_location[DW_OP_plus_uconst 0x4]
    4258                            .dwattr $C$DW$291, DW_AT_accessibility(DW_ACCESS_public)
    4259                            .dwattr $C$DW$291, DW_AT_decl_file("H:/class/690 Adv. Emb. Sys/FreeRTOS8_EECS_TM4C1294_SensorH
    4260                            .dwattr $C$DW$291, DW_AT_decl_line(0x84)
    4261                            .dwattr $C$DW$291, DW_AT_decl_column(0x0b)
    4262                    $C$DW$292       .dwtag  DW_TAG_member
    4263                            .dwattr $C$DW$292, DW_AT_type(*$C$DW$T$24)
    4264                            .dwattr $C$DW$292, DW_AT_name("ulParameters")
    4265                            .dwattr $C$DW$292, DW_AT_TI_symbol_name("ulParameters")
    4266                            .dwattr $C$DW$292, DW_AT_data_member_location[DW_OP_plus_uconst 0x8]
    4267                            .dwattr $C$DW$292, DW_AT_accessibility(DW_ACCESS_public)
    4268                            .dwattr $C$DW$292, DW_AT_decl_file("H:/class/690 Adv. Emb. Sys/FreeRTOS8_EECS_TM4C1294_SensorH
    4269                            .dwattr $C$DW$292, DW_AT_decl_line(0x85)
    4270                            .dwattr $C$DW$292, DW_AT_decl_column(0x0b)
    4271                            .dwendtag $C$DW$T$41
    4272                    
    4273                            .dwattr $C$DW$T$41, DW_AT_decl_file("H:/class/690 Adv. Emb. Sys/FreeRTOS8_EECS_TM4C1294_Sensor
    4274                            .dwattr $C$DW$T$41, DW_AT_decl_line(0x81)
    4275                            .dwattr $C$DW$T$41, DW_AT_decl_column(0x10)
    4276                    $C$DW$T$53      .dwtag  DW_TAG_typedef, DW_AT_name("MemoryRegion_t")
    4277                            .dwattr $C$DW$T$53, DW_AT_type(*$C$DW$T$41)
    4278                            .dwattr $C$DW$T$53, DW_AT_language(DW_LANG_C)
    4279                            .dwattr $C$DW$T$53, DW_AT_decl_file("H:/class/690 Adv. Emb. Sys/FreeRTOS8_EECS_TM4C1294_Sensor
    4280                            .dwattr $C$DW$T$53, DW_AT_decl_line(0x86)
    4281                            .dwattr $C$DW$T$53, DW_AT_decl_column(0x03)
    4282                    
    4283                    $C$DW$T$54      .dwtag  DW_TAG_array_type
    4284                            .dwattr $C$DW$T$54, DW_AT_type(*$C$DW$T$53)
    4285                            .dwattr $C$DW$T$54, DW_AT_language(DW_LANG_C)
    4286                            .dwattr $C$DW$T$54, DW_AT_byte_size(0x0c)
    4287                    $C$DW$293       .dwtag  DW_TAG_subrange_type
    4288                            .dwattr $C$DW$293, DW_AT_upper_bound(0x00)
    4289                            .dwendtag $C$DW$T$54
    4290                    
TI ARM Assembler PC v5.1.7 Tue Sep 16 08:38:40 2014

Tools Copyright (c) 1996-2014 Texas Instruments Incorporated
queue.asm                                                            PAGE   79

    4291                    
    4292                    $C$DW$T$42      .dwtag  DW_TAG_structure_type
    4293                            .dwattr $C$DW$T$42, DW_AT_name("xMINI_LIST_ITEM")
    4294                            .dwattr $C$DW$T$42, DW_AT_byte_size(0x0c)
    4295                    $C$DW$294       .dwtag  DW_TAG_member
    4296                            .dwattr $C$DW$294, DW_AT_type(*$C$DW$T$38)
    4297                            .dwattr $C$DW$294, DW_AT_name("xItemValue")
    4298                            .dwattr $C$DW$294, DW_AT_TI_symbol_name("xItemValue")
    4299                            .dwattr $C$DW$294, DW_AT_data_member_location[DW_OP_plus_uconst 0x0]
    4300                            .dwattr $C$DW$294, DW_AT_accessibility(DW_ACCESS_public)
    4301                            .dwattr $C$DW$294, DW_AT_decl_file("H:\class\690 Adv. Emb. Sys\FreeRTOS8_EECS_TM4C1294_SensorH
    4302                            .dwattr $C$DW$294, DW_AT_decl_line(0x94)
    4303                            .dwattr $C$DW$294, DW_AT_decl_column(0x21)
    4304                    $C$DW$295       .dwtag  DW_TAG_member
    4305                            .dwattr $C$DW$295, DW_AT_type(*$C$DW$T$39)
    4306                            .dwattr $C$DW$295, DW_AT_name("pxNext")
    4307                            .dwattr $C$DW$295, DW_AT_TI_symbol_name("pxNext")
    4308                            .dwattr $C$DW$295, DW_AT_data_member_location[DW_OP_plus_uconst 0x4]
    4309                            .dwattr $C$DW$295, DW_AT_accessibility(DW_ACCESS_public)
    4310                            .dwattr $C$DW$295, DW_AT_decl_file("H:\class\690 Adv. Emb. Sys\FreeRTOS8_EECS_TM4C1294_SensorH
    4311                            .dwattr $C$DW$295, DW_AT_decl_line(0x95)
    4312                            .dwattr $C$DW$295, DW_AT_decl_column(0x2a)
    4313                    $C$DW$296       .dwtag  DW_TAG_member
    4314                            .dwattr $C$DW$296, DW_AT_type(*$C$DW$T$39)
    4315                            .dwattr $C$DW$296, DW_AT_name("pxPrevious")
    4316                            .dwattr $C$DW$296, DW_AT_TI_symbol_name("pxPrevious")
    4317                            .dwattr $C$DW$296, DW_AT_data_member_location[DW_OP_plus_uconst 0x8]
    4318                            .dwattr $C$DW$296, DW_AT_accessibility(DW_ACCESS_public)
    4319                            .dwattr $C$DW$296, DW_AT_decl_file("H:\class\690 Adv. Emb. Sys\FreeRTOS8_EECS_TM4C1294_SensorH
    4320                            .dwattr $C$DW$296, DW_AT_decl_line(0x96)
    4321                            .dwattr $C$DW$296, DW_AT_decl_column(0x2a)
    4322                            .dwendtag $C$DW$T$42
    4323                    
    4324                            .dwattr $C$DW$T$42, DW_AT_decl_file("H:\class\690 Adv. Emb. Sys\FreeRTOS8_EECS_TM4C1294_Sensor
    4325                            .dwattr $C$DW$T$42, DW_AT_decl_line(0x92)
    4326                            .dwattr $C$DW$T$42, DW_AT_decl_column(0x08)
    4327                    $C$DW$T$36      .dwtag  DW_TAG_typedef, DW_AT_name("MiniListItem_t")
    4328                            .dwattr $C$DW$T$36, DW_AT_type(*$C$DW$T$42)
    4329                            .dwattr $C$DW$T$36, DW_AT_language(DW_LANG_C)
    4330                            .dwattr $C$DW$T$36, DW_AT_decl_file("H:\class\690 Adv. Emb. Sys\FreeRTOS8_EECS_TM4C1294_Sensor
    4331                            .dwattr $C$DW$T$36, DW_AT_decl_line(0x98)
    4332                            .dwattr $C$DW$T$36, DW_AT_decl_column(0x20)
    4333                    
    4334                    $C$DW$T$55      .dwtag  DW_TAG_structure_type
    4335                            .dwattr $C$DW$T$55, DW_AT_name("xTASK_PARAMETERS")
    4336                            .dwattr $C$DW$T$55, DW_AT_byte_size(0x24)
    4337                    $C$DW$297       .dwtag  DW_TAG_member
    4338                            .dwattr $C$DW$297, DW_AT_type(*$C$DW$T$45)
    4339                            .dwattr $C$DW$297, DW_AT_name("pvTaskCode")
    4340                            .dwattr $C$DW$297, DW_AT_TI_symbol_name("pvTaskCode")
    4341                            .dwattr $C$DW$297, DW_AT_data_member_location[DW_OP_plus_uconst 0x0]
    4342                            .dwattr $C$DW$297, DW_AT_accessibility(DW_ACCESS_public)
    4343                            .dwattr $C$DW$297, DW_AT_decl_file("H:/class/690 Adv. Emb. Sys/FreeRTOS8_EECS_TM4C1294_SensorH
    4344                            .dwattr $C$DW$297, DW_AT_decl_line(0x8d)
    4345                            .dwattr $C$DW$297, DW_AT_decl_column(0x11)
TI ARM Assembler PC v5.1.7 Tue Sep 16 08:38:40 2014

Tools Copyright (c) 1996-2014 Texas Instruments Incorporated
queue.asm                                                            PAGE   80

    4346                    $C$DW$298       .dwtag  DW_TAG_member
    4347                            .dwattr $C$DW$298, DW_AT_type(*$C$DW$T$49)
    4348                            .dwattr $C$DW$298, DW_AT_name("pcName")
    4349                            .dwattr $C$DW$298, DW_AT_TI_symbol_name("pcName")
    4350                            .dwattr $C$DW$298, DW_AT_data_member_location[DW_OP_plus_uconst 0x4]
    4351                            .dwattr $C$DW$298, DW_AT_accessibility(DW_ACCESS_public)
    4352                            .dwattr $C$DW$298, DW_AT_decl_file("H:/class/690 Adv. Emb. Sys/FreeRTOS8_EECS_TM4C1294_SensorH
    4353                            .dwattr $C$DW$298, DW_AT_decl_line(0x8e)
    4354                            .dwattr $C$DW$298, DW_AT_decl_column(0x15)
    4355                    $C$DW$299       .dwtag  DW_TAG_member
    4356                            .dwattr $C$DW$299, DW_AT_type(*$C$DW$T$50)
    4357                            .dwattr $C$DW$299, DW_AT_name("usStackDepth")
    4358                            .dwattr $C$DW$299, DW_AT_TI_symbol_name("usStackDepth")
    4359                            .dwattr $C$DW$299, DW_AT_data_member_location[DW_OP_plus_uconst 0x8]
    4360                            .dwattr $C$DW$299, DW_AT_accessibility(DW_ACCESS_public)
    4361                            .dwattr $C$DW$299, DW_AT_decl_file("H:/class/690 Adv. Emb. Sys/FreeRTOS8_EECS_TM4C1294_SensorH
    4362                            .dwattr $C$DW$299, DW_AT_decl_line(0x8f)
    4363                            .dwattr $C$DW$299, DW_AT_decl_column(0x0b)
    4364                    $C$DW$300       .dwtag  DW_TAG_member
    4365                            .dwattr $C$DW$300, DW_AT_type(*$C$DW$T$3)
    4366                            .dwattr $C$DW$300, DW_AT_name("pvParameters")
    4367                            .dwattr $C$DW$300, DW_AT_TI_symbol_name("pvParameters")
    4368                            .dwattr $C$DW$300, DW_AT_data_member_location[DW_OP_plus_uconst 0xc]
    4369                            .dwattr $C$DW$300, DW_AT_accessibility(DW_ACCESS_public)
    4370                            .dwattr $C$DW$300, DW_AT_decl_file("H:/class/690 Adv. Emb. Sys/FreeRTOS8_EECS_TM4C1294_SensorH
    4371                            .dwattr $C$DW$300, DW_AT_decl_line(0x90)
    4372                            .dwattr $C$DW$300, DW_AT_decl_column(0x08)
    4373                    $C$DW$301       .dwtag  DW_TAG_member
    4374                            .dwattr $C$DW$301, DW_AT_type(*$C$DW$T$25)
    4375                            .dwattr $C$DW$301, DW_AT_name("uxPriority")
    4376                            .dwattr $C$DW$301, DW_AT_TI_symbol_name("uxPriority")
    4377                            .dwattr $C$DW$301, DW_AT_data_member_location[DW_OP_plus_uconst 0x10]
    4378                            .dwattr $C$DW$301, DW_AT_accessibility(DW_ACCESS_public)
    4379                            .dwattr $C$DW$301, DW_AT_decl_file("H:/class/690 Adv. Emb. Sys/FreeRTOS8_EECS_TM4C1294_SensorH
    4380                            .dwattr $C$DW$301, DW_AT_decl_line(0x91)
    4381                            .dwattr $C$DW$301, DW_AT_decl_column(0x0e)
    4382                    $C$DW$302       .dwtag  DW_TAG_member
    4383                            .dwattr $C$DW$302, DW_AT_type(*$C$DW$T$52)
    4384                            .dwattr $C$DW$302, DW_AT_name("puxStackBuffer")
    4385                            .dwattr $C$DW$302, DW_AT_TI_symbol_name("puxStackBuffer")
    4386                            .dwattr $C$DW$302, DW_AT_data_member_location[DW_OP_plus_uconst 0x14]
    4387                            .dwattr $C$DW$302, DW_AT_accessibility(DW_ACCESS_public)
    4388                            .dwattr $C$DW$302, DW_AT_decl_file("H:/class/690 Adv. Emb. Sys/FreeRTOS8_EECS_TM4C1294_SensorH
    4389                            .dwattr $C$DW$302, DW_AT_decl_line(0x92)
    4390                            .dwattr $C$DW$302, DW_AT_decl_column(0x0f)
    4391                    $C$DW$303       .dwtag  DW_TAG_member
    4392                            .dwattr $C$DW$303, DW_AT_type(*$C$DW$T$54)
    4393                            .dwattr $C$DW$303, DW_AT_name("xRegions")
    4394                            .dwattr $C$DW$303, DW_AT_TI_symbol_name("xRegions")
    4395                            .dwattr $C$DW$303, DW_AT_data_member_location[DW_OP_plus_uconst 0x18]
    4396                            .dwattr $C$DW$303, DW_AT_accessibility(DW_ACCESS_public)
    4397                            .dwattr $C$DW$303, DW_AT_decl_file("H:/class/690 Adv. Emb. Sys/FreeRTOS8_EECS_TM4C1294_SensorH
    4398                            .dwattr $C$DW$303, DW_AT_decl_line(0x93)
    4399                            .dwattr $C$DW$303, DW_AT_decl_column(0x11)
    4400                            .dwendtag $C$DW$T$55
TI ARM Assembler PC v5.1.7 Tue Sep 16 08:38:40 2014

Tools Copyright (c) 1996-2014 Texas Instruments Incorporated
queue.asm                                                            PAGE   81

    4401                    
    4402                            .dwattr $C$DW$T$55, DW_AT_decl_file("H:/class/690 Adv. Emb. Sys/FreeRTOS8_EECS_TM4C1294_Sensor
    4403                            .dwattr $C$DW$T$55, DW_AT_decl_line(0x8b)
    4404                            .dwattr $C$DW$T$55, DW_AT_decl_column(0x10)
    4405                    $C$DW$T$191     .dwtag  DW_TAG_typedef, DW_AT_name("TaskParameters_t")
    4406                            .dwattr $C$DW$T$191, DW_AT_type(*$C$DW$T$55)
    4407                            .dwattr $C$DW$T$191, DW_AT_language(DW_LANG_C)
    4408                            .dwattr $C$DW$T$191, DW_AT_decl_file("H:/class/690 Adv. Emb. Sys/FreeRTOS8_EECS_TM4C1294_Senso
    4409                            .dwattr $C$DW$T$191, DW_AT_decl_line(0x94)
    4410                            .dwattr $C$DW$T$191, DW_AT_decl_column(0x03)
    4411                    
    4412                    $C$DW$T$59      .dwtag  DW_TAG_structure_type
    4413                            .dwattr $C$DW$T$59, DW_AT_name("xTASK_STATUS")
    4414                            .dwattr $C$DW$T$59, DW_AT_byte_size(0x20)
    4415                    $C$DW$304       .dwtag  DW_TAG_member
    4416                            .dwattr $C$DW$304, DW_AT_type(*$C$DW$T$56)
    4417                            .dwattr $C$DW$304, DW_AT_name("xHandle")
    4418                            .dwattr $C$DW$304, DW_AT_TI_symbol_name("xHandle")
    4419                            .dwattr $C$DW$304, DW_AT_data_member_location[DW_OP_plus_uconst 0x0]
    4420                            .dwattr $C$DW$304, DW_AT_accessibility(DW_ACCESS_public)
    4421                            .dwattr $C$DW$304, DW_AT_decl_file("H:/class/690 Adv. Emb. Sys/FreeRTOS8_EECS_TM4C1294_SensorH
    4422                            .dwattr $C$DW$304, DW_AT_decl_line(0x9a)
    4423                            .dwattr $C$DW$304, DW_AT_decl_column(0x0f)
    4424                    $C$DW$305       .dwtag  DW_TAG_member
    4425                            .dwattr $C$DW$305, DW_AT_type(*$C$DW$T$48)
    4426                            .dwattr $C$DW$305, DW_AT_name("pcTaskName")
    4427                            .dwattr $C$DW$305, DW_AT_TI_symbol_name("pcTaskName")
    4428                            .dwattr $C$DW$305, DW_AT_data_member_location[DW_OP_plus_uconst 0x4]
    4429                            .dwattr $C$DW$305, DW_AT_accessibility(DW_ACCESS_public)
    4430                            .dwattr $C$DW$305, DW_AT_decl_file("H:/class/690 Adv. Emb. Sys/FreeRTOS8_EECS_TM4C1294_SensorH
    4431                            .dwattr $C$DW$305, DW_AT_decl_line(0x9b)
    4432                            .dwattr $C$DW$305, DW_AT_decl_column(0x0e)
    4433                    $C$DW$306       .dwtag  DW_TAG_member
    4434                            .dwattr $C$DW$306, DW_AT_type(*$C$DW$T$25)
    4435                            .dwattr $C$DW$306, DW_AT_name("xTaskNumber")
    4436                            .dwattr $C$DW$306, DW_AT_TI_symbol_name("xTaskNumber")
    4437                            .dwattr $C$DW$306, DW_AT_data_member_location[DW_OP_plus_uconst 0x8]
    4438                            .dwattr $C$DW$306, DW_AT_accessibility(DW_ACCESS_public)
    4439                            .dwattr $C$DW$306, DW_AT_decl_file("H:/class/690 Adv. Emb. Sys/FreeRTOS8_EECS_TM4C1294_SensorH
    4440                            .dwattr $C$DW$306, DW_AT_decl_line(0x9c)
    4441                            .dwattr $C$DW$306, DW_AT_decl_column(0x0e)
    4442                    $C$DW$307       .dwtag  DW_TAG_member
    4443                            .dwattr $C$DW$307, DW_AT_type(*$C$DW$T$58)
    4444                            .dwattr $C$DW$307, DW_AT_name("eCurrentState")
    4445                            .dwattr $C$DW$307, DW_AT_TI_symbol_name("eCurrentState")
    4446                            .dwattr $C$DW$307, DW_AT_data_member_location[DW_OP_plus_uconst 0xc]
    4447                            .dwattr $C$DW$307, DW_AT_accessibility(DW_ACCESS_public)
    4448                            .dwattr $C$DW$307, DW_AT_decl_file("H:/class/690 Adv. Emb. Sys/FreeRTOS8_EECS_TM4C1294_SensorH
    4449                            .dwattr $C$DW$307, DW_AT_decl_line(0x9d)
    4450                            .dwattr $C$DW$307, DW_AT_decl_column(0x0d)
    4451                    $C$DW$308       .dwtag  DW_TAG_member
    4452                            .dwattr $C$DW$308, DW_AT_type(*$C$DW$T$25)
    4453                            .dwattr $C$DW$308, DW_AT_name("uxCurrentPriority")
    4454                            .dwattr $C$DW$308, DW_AT_TI_symbol_name("uxCurrentPriority")
    4455                            .dwattr $C$DW$308, DW_AT_data_member_location[DW_OP_plus_uconst 0x10]
TI ARM Assembler PC v5.1.7 Tue Sep 16 08:38:40 2014

Tools Copyright (c) 1996-2014 Texas Instruments Incorporated
queue.asm                                                            PAGE   82

    4456                            .dwattr $C$DW$308, DW_AT_accessibility(DW_ACCESS_public)
    4457                            .dwattr $C$DW$308, DW_AT_decl_file("H:/class/690 Adv. Emb. Sys/FreeRTOS8_EECS_TM4C1294_SensorH
    4458                            .dwattr $C$DW$308, DW_AT_decl_line(0x9e)
    4459                            .dwattr $C$DW$308, DW_AT_decl_column(0x0e)
    4460                    $C$DW$309       .dwtag  DW_TAG_member
    4461                            .dwattr $C$DW$309, DW_AT_type(*$C$DW$T$25)
    4462                            .dwattr $C$DW$309, DW_AT_name("uxBasePriority")
    4463                            .dwattr $C$DW$309, DW_AT_TI_symbol_name("uxBasePriority")
    4464                            .dwattr $C$DW$309, DW_AT_data_member_location[DW_OP_plus_uconst 0x14]
    4465                            .dwattr $C$DW$309, DW_AT_accessibility(DW_ACCESS_public)
    4466                            .dwattr $C$DW$309, DW_AT_decl_file("H:/class/690 Adv. Emb. Sys/FreeRTOS8_EECS_TM4C1294_SensorH
    4467                            .dwattr $C$DW$309, DW_AT_decl_line(0x9f)
    4468                            .dwattr $C$DW$309, DW_AT_decl_column(0x0e)
    4469                    $C$DW$310       .dwtag  DW_TAG_member
    4470                            .dwattr $C$DW$310, DW_AT_type(*$C$DW$T$24)
    4471                            .dwattr $C$DW$310, DW_AT_name("ulRunTimeCounter")
    4472                            .dwattr $C$DW$310, DW_AT_TI_symbol_name("ulRunTimeCounter")
    4473                            .dwattr $C$DW$310, DW_AT_data_member_location[DW_OP_plus_uconst 0x18]
    4474                            .dwattr $C$DW$310, DW_AT_accessibility(DW_ACCESS_public)
    4475                            .dwattr $C$DW$310, DW_AT_decl_file("H:/class/690 Adv. Emb. Sys/FreeRTOS8_EECS_TM4C1294_SensorH
    4476                            .dwattr $C$DW$310, DW_AT_decl_line(0xa0)
    4477                            .dwattr $C$DW$310, DW_AT_decl_column(0x0b)
    4478                    $C$DW$311       .dwtag  DW_TAG_member
    4479                            .dwattr $C$DW$311, DW_AT_type(*$C$DW$T$50)
    4480                            .dwattr $C$DW$311, DW_AT_name("usStackHighWaterMark")
    4481                            .dwattr $C$DW$311, DW_AT_TI_symbol_name("usStackHighWaterMark")
    4482                            .dwattr $C$DW$311, DW_AT_data_member_location[DW_OP_plus_uconst 0x1c]
    4483                            .dwattr $C$DW$311, DW_AT_accessibility(DW_ACCESS_public)
    4484                            .dwattr $C$DW$311, DW_AT_decl_file("H:/class/690 Adv. Emb. Sys/FreeRTOS8_EECS_TM4C1294_SensorH
    4485                            .dwattr $C$DW$311, DW_AT_decl_line(0xa1)
    4486                            .dwattr $C$DW$311, DW_AT_decl_column(0x0b)
    4487                            .dwendtag $C$DW$T$59
    4488                    
    4489                            .dwattr $C$DW$T$59, DW_AT_decl_file("H:/class/690 Adv. Emb. Sys/FreeRTOS8_EECS_TM4C1294_Sensor
    4490                            .dwattr $C$DW$T$59, DW_AT_decl_line(0x98)
    4491                            .dwattr $C$DW$T$59, DW_AT_decl_column(0x10)
    4492                    $C$DW$T$192     .dwtag  DW_TAG_typedef, DW_AT_name("TaskStatus_t")
    4493                            .dwattr $C$DW$T$192, DW_AT_type(*$C$DW$T$59)
    4494                            .dwattr $C$DW$T$192, DW_AT_language(DW_LANG_C)
    4495                            .dwattr $C$DW$T$192, DW_AT_decl_file("H:/class/690 Adv. Emb. Sys/FreeRTOS8_EECS_TM4C1294_Senso
    4496                            .dwattr $C$DW$T$192, DW_AT_decl_line(0xa2)
    4497                            .dwattr $C$DW$T$192, DW_AT_decl_column(0x03)
    4498                    
    4499                    $C$DW$T$60      .dwtag  DW_TAG_structure_type
    4500                            .dwattr $C$DW$T$60, DW_AT_name("xTIME_OUT")
    4501                            .dwattr $C$DW$T$60, DW_AT_byte_size(0x08)
    4502                    $C$DW$312       .dwtag  DW_TAG_member
    4503                            .dwattr $C$DW$312, DW_AT_type(*$C$DW$T$30)
    4504                            .dwattr $C$DW$312, DW_AT_name("xOverflowCount")
    4505                            .dwattr $C$DW$312, DW_AT_TI_symbol_name("xOverflowCount")
    4506                            .dwattr $C$DW$312, DW_AT_data_member_location[DW_OP_plus_uconst 0x0]
    4507                            .dwattr $C$DW$312, DW_AT_accessibility(DW_ACCESS_public)
    4508                            .dwattr $C$DW$312, DW_AT_decl_file("H:/class/690 Adv. Emb. Sys/FreeRTOS8_EECS_TM4C1294_SensorH
    4509                            .dwattr $C$DW$312, DW_AT_decl_line(0x7a)
    4510                            .dwattr $C$DW$312, DW_AT_decl_column(0x0d)
TI ARM Assembler PC v5.1.7 Tue Sep 16 08:38:40 2014

Tools Copyright (c) 1996-2014 Texas Instruments Incorporated
queue.asm                                                            PAGE   83

    4511                    $C$DW$313       .dwtag  DW_TAG_member
    4512                            .dwattr $C$DW$313, DW_AT_type(*$C$DW$T$38)
    4513                            .dwattr $C$DW$313, DW_AT_name("xTimeOnEntering")
    4514                            .dwattr $C$DW$313, DW_AT_TI_symbol_name("xTimeOnEntering")
    4515                            .dwattr $C$DW$313, DW_AT_data_member_location[DW_OP_plus_uconst 0x4]
    4516                            .dwattr $C$DW$313, DW_AT_accessibility(DW_ACCESS_public)
    4517                            .dwattr $C$DW$313, DW_AT_decl_file("H:/class/690 Adv. Emb. Sys/FreeRTOS8_EECS_TM4C1294_SensorH
    4518                            .dwattr $C$DW$313, DW_AT_decl_line(0x7b)
    4519                            .dwattr $C$DW$313, DW_AT_decl_column(0x0e)
    4520                            .dwendtag $C$DW$T$60
    4521                    
    4522                            .dwattr $C$DW$T$60, DW_AT_decl_file("H:/class/690 Adv. Emb. Sys/FreeRTOS8_EECS_TM4C1294_Sensor
    4523                            .dwattr $C$DW$T$60, DW_AT_decl_line(0x78)
    4524                            .dwattr $C$DW$T$60, DW_AT_decl_column(0x10)
    4525                    $C$DW$T$100     .dwtag  DW_TAG_typedef, DW_AT_name("TimeOut_t")
    4526                            .dwattr $C$DW$T$100, DW_AT_type(*$C$DW$T$60)
    4527                            .dwattr $C$DW$T$100, DW_AT_language(DW_LANG_C)
    4528                            .dwattr $C$DW$T$100, DW_AT_decl_file("H:/class/690 Adv. Emb. Sys/FreeRTOS8_EECS_TM4C1294_Senso
    4529                            .dwattr $C$DW$T$100, DW_AT_decl_line(0x7c)
    4530                            .dwattr $C$DW$T$100, DW_AT_decl_column(0x03)
    4531                    $C$DW$T$101     .dwtag  DW_TAG_pointer_type
    4532                            .dwattr $C$DW$T$101, DW_AT_type(*$C$DW$T$100)
    4533                            .dwattr $C$DW$T$101, DW_AT_address_class(0x20)
    4534                    $C$DW$T$102     .dwtag  DW_TAG_const_type
    4535                            .dwattr $C$DW$T$102, DW_AT_type(*$C$DW$T$101)
    4536                            .dwattr $C$DW$CU, DW_AT_language(DW_LANG_C)
    4537                    
    4538                    ;***************************************************************
    4539                    ;* DWARF CIE ENTRIES                                           *
    4540                    ;***************************************************************
    4541                    
    4542                    $C$DW$CIE       .dwcie 14
    4543                            .dwcfi  cfa_register, 13
    4544                            .dwcfi  cfa_offset, 0
    4545                            .dwcfi  undefined, 0
    4546                            .dwcfi  undefined, 1
    4547                            .dwcfi  undefined, 2
    4548                            .dwcfi  undefined, 3
    4549                            .dwcfi  same_value, 4
    4550                            .dwcfi  same_value, 5
    4551                            .dwcfi  same_value, 6
    4552                            .dwcfi  same_value, 7
    4553                            .dwcfi  same_value, 8
    4554                            .dwcfi  same_value, 9
    4555                            .dwcfi  same_value, 10
    4556                            .dwcfi  same_value, 11
    4557                            .dwcfi  undefined, 12
    4558                            .dwcfi  undefined, 13
    4559                            .dwcfi  undefined, 14
    4560                            .dwcfi  undefined, 14
    4561                            .dwcfi  undefined, 7
    4562                            .dwcfi  undefined, 64
    4563                            .dwcfi  undefined, 65
    4564                            .dwcfi  undefined, 66
    4565                            .dwcfi  undefined, 67
TI ARM Assembler PC v5.1.7 Tue Sep 16 08:38:40 2014

Tools Copyright (c) 1996-2014 Texas Instruments Incorporated
queue.asm                                                            PAGE   84

    4566                            .dwcfi  undefined, 68
    4567                            .dwcfi  undefined, 69
    4568                            .dwcfi  undefined, 70
    4569                            .dwcfi  undefined, 71
    4570                            .dwcfi  undefined, 72
    4571                            .dwcfi  undefined, 73
    4572                            .dwcfi  undefined, 74
    4573                            .dwcfi  undefined, 75
    4574                            .dwcfi  undefined, 76
    4575                            .dwcfi  undefined, 77
    4576                            .dwcfi  undefined, 78
    4577                            .dwcfi  undefined, 79
    4578                            .dwcfi  same_value, 80
    4579                            .dwcfi  same_value, 81
    4580                            .dwcfi  same_value, 82
    4581                            .dwcfi  same_value, 83
    4582                            .dwcfi  same_value, 84
    4583                            .dwcfi  same_value, 85
    4584                            .dwcfi  same_value, 86
    4585                            .dwcfi  same_value, 87
    4586                            .dwcfi  same_value, 88
    4587                            .dwcfi  same_value, 89
    4588                            .dwcfi  same_value, 90
    4589                            .dwcfi  same_value, 91
    4590                            .dwcfi  same_value, 92
    4591                            .dwcfi  same_value, 93
    4592                            .dwcfi  same_value, 94
    4593                            .dwcfi  same_value, 95
    4594                            .dwendentry
    4595                            .dwendtag $C$DW$CU
    4596                    

--------------------------
Thumb2 Statistics
--------------------------
Number of Thumb2 ins converted to Thumb = 0 (0%)
Number of Thumb ins in input = 662 (86%)
Number of Thumb2 ins encoded as Thumb2 = 104 (100%)
Number of Thumb2 ins converted to 2 OPND Thumb = 137


No Assembly Errors, No Assembly Warnings
