TI ARM Assembler PC v5.1.7 Tue Sep 16 08:38:42 2014

Tools Copyright (c) 1996-2014 Texas Instruments Incorporated
tasks.asm                                                            PAGE    1

       1                    ;******************************************************************************
       2                    ;* TI ARM C/C++ Codegen                                             PC v5.1.7 *
       3                    ;* Date/Time created: Tue Sep 16 08:38:41 2014                                *
       4                    ;******************************************************************************
       5                            .compiler_opts --abi=eabi --arm_vmrs_si_workaround=off --code_state=16 --disable_dual_state --
       6 00000000                   .thumb
       7                    
       8                    $C$DW$CU        .dwtag  DW_TAG_compile_unit
       9                            .dwattr $C$DW$CU, DW_AT_name("../Source/tasks.c")
      10                            .dwattr $C$DW$CU, DW_AT_producer("TI TI ARM C/C++ Codegen PC v5.1.7 Copyright (c) 1996-2014 Te
      11                            .dwattr $C$DW$CU, DW_AT_TI_version(0x01)
      12                            .dwattr $C$DW$CU, DW_AT_comp_dir("H:\class\690 Adv. Emb. Sys\FreeRTOS8_EECS_TM4C1294_SensorHub
      13                    
      14                    $C$DW$1 .dwtag  DW_TAG_subprogram, DW_AT_name("vPortYieldFromISR")
      15                            .dwattr $C$DW$1, DW_AT_TI_symbol_name("vPortYieldFromISR")
      16                            .dwattr $C$DW$1, DW_AT_declaration
      17                            .dwattr $C$DW$1, DW_AT_external
      18                            .dwattr $C$DW$1, DW_AT_decl_file("H:\class\690 Adv. Emb. Sys\FreeRTOS8_EECS_TM4C1294_SensorHub
      19                            .dwattr $C$DW$1, DW_AT_decl_line(0x7e)
      20                            .dwattr $C$DW$1, DW_AT_decl_column(0x0d)
      21                    
      22                    $C$DW$2 .dwtag  DW_TAG_subprogram, DW_AT_name("vPortEnterCritical")
      23                            .dwattr $C$DW$2, DW_AT_TI_symbol_name("vPortEnterCritical")
      24                            .dwattr $C$DW$2, DW_AT_declaration
      25                            .dwattr $C$DW$2, DW_AT_external
      26                            .dwattr $C$DW$2, DW_AT_decl_file("H:\class\690 Adv. Emb. Sys\FreeRTOS8_EECS_TM4C1294_SensorHub
      27                            .dwattr $C$DW$2, DW_AT_decl_line(0x98)
      28                            .dwattr $C$DW$2, DW_AT_decl_column(0x0d)
      29                    
      30                    $C$DW$3 .dwtag  DW_TAG_subprogram, DW_AT_name("vPortExitCritical")
      31                            .dwattr $C$DW$3, DW_AT_TI_symbol_name("vPortExitCritical")
      32                            .dwattr $C$DW$3, DW_AT_declaration
      33                            .dwattr $C$DW$3, DW_AT_external
      34                            .dwattr $C$DW$3, DW_AT_decl_file("H:\class\690 Adv. Emb. Sys\FreeRTOS8_EECS_TM4C1294_SensorHub
      35                            .dwattr $C$DW$3, DW_AT_decl_line(0x99)
      36                            .dwattr $C$DW$3, DW_AT_decl_column(0x0d)
      37                    
      38                    $C$DW$4 .dwtag  DW_TAG_subprogram, DW_AT_name("ulPortSetInterruptMask")
      39                            .dwattr $C$DW$4, DW_AT_TI_symbol_name("ulPortSetInterruptMask")
      40                            .dwattr $C$DW$4, DW_AT_type(*$C$DW$T$13)
      41                            .dwattr $C$DW$4, DW_AT_declaration
      42                            .dwattr $C$DW$4, DW_AT_external
      43                            .dwattr $C$DW$4, DW_AT_decl_file("H:\class\690 Adv. Emb. Sys\FreeRTOS8_EECS_TM4C1294_SensorHub
      44                            .dwattr $C$DW$4, DW_AT_decl_line(0x9a)
      45                            .dwattr $C$DW$4, DW_AT_decl_column(0x16)
      46                    
      47                    $C$DW$5 .dwtag  DW_TAG_subprogram, DW_AT_name("vPortClearInterruptMask")
      48                            .dwattr $C$DW$5, DW_AT_TI_symbol_name("vPortClearInterruptMask")
      49                            .dwattr $C$DW$5, DW_AT_declaration
      50                            .dwattr $C$DW$5, DW_AT_external
      51                            .dwattr $C$DW$5, DW_AT_decl_file("H:\class\690 Adv. Emb. Sys\FreeRTOS8_EECS_TM4C1294_SensorHub
      52                            .dwattr $C$DW$5, DW_AT_decl_line(0x9b)
      53                            .dwattr $C$DW$5, DW_AT_decl_column(0x0d)
      54                    $C$DW$6 .dwtag  DW_TAG_formal_parameter
      55                            .dwattr $C$DW$6, DW_AT_type(*$C$DW$T$13)
TI ARM Assembler PC v5.1.7 Tue Sep 16 08:38:42 2014

Tools Copyright (c) 1996-2014 Texas Instruments Incorporated
tasks.asm                                                            PAGE    2

      56                            .dwendtag $C$DW$5
      57                    
      58                    
      59                    $C$DW$7 .dwtag  DW_TAG_subprogram, DW_AT_name("pxPortInitialiseStack")
      60                            .dwattr $C$DW$7, DW_AT_TI_symbol_name("pxPortInitialiseStack")
      61                            .dwattr $C$DW$7, DW_AT_type(*$C$DW$T$29)
      62                            .dwattr $C$DW$7, DW_AT_declaration
      63                            .dwattr $C$DW$7, DW_AT_external
      64                            .dwattr $C$DW$7, DW_AT_decl_file("H:\class\690 Adv. Emb. Sys\FreeRTOS8_EECS_TM4C1294_SensorHub
      65                            .dwattr $C$DW$7, DW_AT_decl_line(0x16f)
      66                            .dwattr $C$DW$7, DW_AT_decl_column(0x0f)
      67                    $C$DW$8 .dwtag  DW_TAG_formal_parameter
      68                            .dwattr $C$DW$8, DW_AT_type(*$C$DW$T$29)
      69                    $C$DW$9 .dwtag  DW_TAG_formal_parameter
      70                            .dwattr $C$DW$9, DW_AT_type(*$C$DW$T$43)
      71                    $C$DW$10        .dwtag  DW_TAG_formal_parameter
      72                            .dwattr $C$DW$10, DW_AT_type(*$C$DW$T$3)
      73                            .dwendtag $C$DW$7
      74                    
      75                    
      76                    $C$DW$11        .dwtag  DW_TAG_subprogram, DW_AT_name("pvPortMalloc")
      77                            .dwattr $C$DW$11, DW_AT_TI_symbol_name("pvPortMalloc")
      78                            .dwattr $C$DW$11, DW_AT_type(*$C$DW$T$3)
      79                            .dwattr $C$DW$11, DW_AT_declaration
      80                            .dwattr $C$DW$11, DW_AT_external
      81                            .dwattr $C$DW$11, DW_AT_decl_file("H:\class\690 Adv. Emb. Sys\FreeRTOS8_EECS_TM4C1294_SensorHu
      82                            .dwattr $C$DW$11, DW_AT_decl_line(0x175)
      83                            .dwattr $C$DW$11, DW_AT_decl_column(0x07)
      84                    $C$DW$12        .dwtag  DW_TAG_formal_parameter
      85                            .dwattr $C$DW$12, DW_AT_type(*$C$DW$T$66)
      86                            .dwendtag $C$DW$11
      87                    
      88                    
      89                    $C$DW$13        .dwtag  DW_TAG_subprogram, DW_AT_name("vPortFree")
      90                            .dwattr $C$DW$13, DW_AT_TI_symbol_name("vPortFree")
      91                            .dwattr $C$DW$13, DW_AT_declaration
      92                            .dwattr $C$DW$13, DW_AT_external
      93                            .dwattr $C$DW$13, DW_AT_decl_file("H:\class\690 Adv. Emb. Sys\FreeRTOS8_EECS_TM4C1294_SensorHu
      94                            .dwattr $C$DW$13, DW_AT_decl_line(0x176)
      95                            .dwattr $C$DW$13, DW_AT_decl_column(0x06)
      96                    $C$DW$14        .dwtag  DW_TAG_formal_parameter
      97                            .dwattr $C$DW$14, DW_AT_type(*$C$DW$T$3)
      98                            .dwendtag $C$DW$13
      99                    
     100                    
     101                    $C$DW$15        .dwtag  DW_TAG_subprogram, DW_AT_name("xPortStartScheduler")
     102                            .dwattr $C$DW$15, DW_AT_TI_symbol_name("xPortStartScheduler")
     103                            .dwattr $C$DW$15, DW_AT_type(*$C$DW$T$56)
     104                            .dwattr $C$DW$15, DW_AT_declaration
     105                            .dwattr $C$DW$15, DW_AT_external
     106                            .dwattr $C$DW$15, DW_AT_decl_file("H:\class\690 Adv. Emb. Sys\FreeRTOS8_EECS_TM4C1294_SensorHu
     107                            .dwattr $C$DW$15, DW_AT_decl_line(0x17f)
     108                            .dwattr $C$DW$15, DW_AT_decl_column(0x0c)
     109                    
     110                    $C$DW$16        .dwtag  DW_TAG_subprogram, DW_AT_name("vPortEndScheduler")
TI ARM Assembler PC v5.1.7 Tue Sep 16 08:38:42 2014

Tools Copyright (c) 1996-2014 Texas Instruments Incorporated
tasks.asm                                                            PAGE    3

     111                            .dwattr $C$DW$16, DW_AT_TI_symbol_name("vPortEndScheduler")
     112                            .dwattr $C$DW$16, DW_AT_declaration
     113                            .dwattr $C$DW$16, DW_AT_external
     114                            .dwattr $C$DW$16, DW_AT_decl_file("H:\class\690 Adv. Emb. Sys\FreeRTOS8_EECS_TM4C1294_SensorHu
     115                            .dwattr $C$DW$16, DW_AT_decl_line(0x186)
     116                            .dwattr $C$DW$16, DW_AT_decl_column(0x06)
     117                    
     118                    $C$DW$17        .dwtag  DW_TAG_subprogram, DW_AT_name("vListInitialise")
     119                            .dwattr $C$DW$17, DW_AT_TI_symbol_name("vListInitialise")
     120                            .dwattr $C$DW$17, DW_AT_declaration
     121                            .dwattr $C$DW$17, DW_AT_external
     122                            .dwattr $C$DW$17, DW_AT_decl_file("H:\class\690 Adv. Emb. Sys\FreeRTOS8_EECS_TM4C1294_SensorHu
     123                            .dwattr $C$DW$17, DW_AT_decl_line(0x150)
     124                            .dwattr $C$DW$17, DW_AT_decl_column(0x06)
     125                    $C$DW$18        .dwtag  DW_TAG_formal_parameter
     126                            .dwattr $C$DW$18, DW_AT_type(*$C$DW$T$77)
     127                            .dwendtag $C$DW$17
     128                    
     129                    
     130                    $C$DW$19        .dwtag  DW_TAG_subprogram, DW_AT_name("vListInitialiseItem")
     131                            .dwattr $C$DW$19, DW_AT_TI_symbol_name("vListInitialiseItem")
     132                            .dwattr $C$DW$19, DW_AT_declaration
     133                            .dwattr $C$DW$19, DW_AT_external
     134                            .dwattr $C$DW$19, DW_AT_decl_file("H:\class\690 Adv. Emb. Sys\FreeRTOS8_EECS_TM4C1294_SensorHu
     135                            .dwattr $C$DW$19, DW_AT_decl_line(0x15b)
     136                            .dwattr $C$DW$19, DW_AT_decl_column(0x06)
     137                    $C$DW$20        .dwtag  DW_TAG_formal_parameter
     138                            .dwattr $C$DW$20, DW_AT_type(*$C$DW$T$80)
     139                            .dwendtag $C$DW$19
     140                    
     141                    
     142                    $C$DW$21        .dwtag  DW_TAG_subprogram, DW_AT_name("vListInsert")
     143                            .dwattr $C$DW$21, DW_AT_TI_symbol_name("vListInsert")
     144                            .dwattr $C$DW$21, DW_AT_declaration
     145                            .dwattr $C$DW$21, DW_AT_external
     146                            .dwattr $C$DW$21, DW_AT_decl_file("H:\class\690 Adv. Emb. Sys\FreeRTOS8_EECS_TM4C1294_SensorHu
     147                            .dwattr $C$DW$21, DW_AT_decl_line(0x168)
     148                            .dwattr $C$DW$21, DW_AT_decl_column(0x06)
     149                    $C$DW$22        .dwtag  DW_TAG_formal_parameter
     150                            .dwattr $C$DW$22, DW_AT_type(*$C$DW$T$77)
     151                    $C$DW$23        .dwtag  DW_TAG_formal_parameter
     152                            .dwattr $C$DW$23, DW_AT_type(*$C$DW$T$80)
     153                            .dwendtag $C$DW$21
     154                    
     155                    
     156                    $C$DW$24        .dwtag  DW_TAG_subprogram, DW_AT_name("vListInsertEnd")
     157                            .dwattr $C$DW$24, DW_AT_TI_symbol_name("vListInsertEnd")
     158                            .dwattr $C$DW$24, DW_AT_declaration
     159                            .dwattr $C$DW$24, DW_AT_external
     160                            .dwattr $C$DW$24, DW_AT_decl_file("H:\class\690 Adv. Emb. Sys\FreeRTOS8_EECS_TM4C1294_SensorHu
     161                            .dwattr $C$DW$24, DW_AT_decl_line(0x17d)
     162                            .dwattr $C$DW$24, DW_AT_decl_column(0x06)
     163                    $C$DW$25        .dwtag  DW_TAG_formal_parameter
     164                            .dwattr $C$DW$25, DW_AT_type(*$C$DW$T$77)
     165                    $C$DW$26        .dwtag  DW_TAG_formal_parameter
TI ARM Assembler PC v5.1.7 Tue Sep 16 08:38:42 2014

Tools Copyright (c) 1996-2014 Texas Instruments Incorporated
tasks.asm                                                            PAGE    4

     166                            .dwattr $C$DW$26, DW_AT_type(*$C$DW$T$80)
     167                            .dwendtag $C$DW$24
     168                    
     169                    
     170                    $C$DW$27        .dwtag  DW_TAG_subprogram, DW_AT_name("uxListRemove")
     171                            .dwattr $C$DW$27, DW_AT_TI_symbol_name("uxListRemove")
     172                            .dwattr $C$DW$27, DW_AT_type(*$C$DW$T$28)
     173                            .dwattr $C$DW$27, DW_AT_declaration
     174                            .dwattr $C$DW$27, DW_AT_external
     175                            .dwattr $C$DW$27, DW_AT_decl_file("H:\class\690 Adv. Emb. Sys\FreeRTOS8_EECS_TM4C1294_SensorHu
     176                            .dwattr $C$DW$27, DW_AT_decl_line(0x18c)
     177                            .dwattr $C$DW$27, DW_AT_decl_column(0x0d)
     178                    $C$DW$28        .dwtag  DW_TAG_formal_parameter
     179                            .dwattr $C$DW$28, DW_AT_type(*$C$DW$T$80)
     180                            .dwendtag $C$DW$27
     181                    
     182                            .global pxCurrentTCB
     183 00000000                   .data
     184                            .align  4
     185                            .elfsym pxCurrentTCB,SYM_SIZE(4)
     186 00000000           pxCurrentTCB:
     187 00000000 00000000          .bits   0,32                    ; pxCurrentTCB @ 0
     188                    
     189                    $C$DW$29        .dwtag  DW_TAG_variable, DW_AT_name("pxCurrentTCB")
     190                            .dwattr $C$DW$29, DW_AT_TI_symbol_name("pxCurrentTCB")
     191                            .dwattr $C$DW$29, DW_AT_location[DW_OP_addr pxCurrentTCB]
     192                            .dwattr $C$DW$29, DW_AT_type(*$C$DW$T$193)
     193                            .dwattr $C$DW$29, DW_AT_external
     194                            .dwattr $C$DW$29, DW_AT_decl_file("../Source/tasks.c")
     195                            .dwattr $C$DW$29, DW_AT_decl_line(0xbb)
     196                            .dwattr $C$DW$29, DW_AT_decl_column(0x22)
     197 00000000           pxReadyTasksLists:      .usect  ".bss:pxReadyTasksLists",80,4
     198                    $C$DW$30        .dwtag  DW_TAG_variable, DW_AT_name("pxReadyTasksLists")
     199                            .dwattr $C$DW$30, DW_AT_TI_symbol_name("pxReadyTasksLists")
     200                            .dwattr $C$DW$30, DW_AT_type(*$C$DW$T$195)
     201                            .dwattr $C$DW$30, DW_AT_location[DW_OP_addr pxReadyTasksLists]
     202                            .dwattr $C$DW$30, DW_AT_decl_file("../Source/tasks.c")
     203                            .dwattr $C$DW$30, DW_AT_decl_line(0xbe)
     204                            .dwattr $C$DW$30, DW_AT_decl_column(0x1f)
     205                            .common xDelayedTaskList1,20,4
     206                    $C$DW$31        .dwtag  DW_TAG_variable, DW_AT_name("xDelayedTaskList1")
     207                            .dwattr $C$DW$31, DW_AT_TI_symbol_name("xDelayedTaskList1")
     208                            .dwattr $C$DW$31, DW_AT_type(*$C$DW$T$75)
     209                            .dwattr $C$DW$31, DW_AT_location[DW_OP_addr xDelayedTaskList1]
     210                            .dwattr $C$DW$31, DW_AT_decl_file("../Source/tasks.c")
     211                            .dwattr $C$DW$31, DW_AT_decl_line(0xbf)
     212                            .dwattr $C$DW$31, DW_AT_decl_column(0x1f)
     213                            .common xDelayedTaskList2,20,4
     214                    $C$DW$32        .dwtag  DW_TAG_variable, DW_AT_name("xDelayedTaskList2")
     215                            .dwattr $C$DW$32, DW_AT_TI_symbol_name("xDelayedTaskList2")
     216                            .dwattr $C$DW$32, DW_AT_type(*$C$DW$T$75)
     217                            .dwattr $C$DW$32, DW_AT_location[DW_OP_addr xDelayedTaskList2]
     218                            .dwattr $C$DW$32, DW_AT_decl_file("../Source/tasks.c")
     219                            .dwattr $C$DW$32, DW_AT_decl_line(0xc0)
     220                            .dwattr $C$DW$32, DW_AT_decl_column(0x1f)
TI ARM Assembler PC v5.1.7 Tue Sep 16 08:38:42 2014

Tools Copyright (c) 1996-2014 Texas Instruments Incorporated
tasks.asm                                                            PAGE    5

     221                            .common pxDelayedTaskList,4,4
     222                    $C$DW$33        .dwtag  DW_TAG_variable, DW_AT_name("pxDelayedTaskList")
     223                            .dwattr $C$DW$33, DW_AT_TI_symbol_name("pxDelayedTaskList")
     224                            .dwattr $C$DW$33, DW_AT_type(*$C$DW$T$194)
     225                            .dwattr $C$DW$33, DW_AT_location[DW_OP_addr pxDelayedTaskList]
     226                            .dwattr $C$DW$33, DW_AT_decl_file("../Source/tasks.c")
     227                            .dwattr $C$DW$33, DW_AT_decl_line(0xc1)
     228                            .dwattr $C$DW$33, DW_AT_decl_column(0x2a)
     229                            .common pxOverflowDelayedTaskList,4,4
     230                    $C$DW$34        .dwtag  DW_TAG_variable, DW_AT_name("pxOverflowDelayedTaskList")
     231                            .dwattr $C$DW$34, DW_AT_TI_symbol_name("pxOverflowDelayedTaskList")
     232                            .dwattr $C$DW$34, DW_AT_type(*$C$DW$T$194)
     233                            .dwattr $C$DW$34, DW_AT_location[DW_OP_addr pxOverflowDelayedTaskList]
     234                            .dwattr $C$DW$34, DW_AT_decl_file("../Source/tasks.c")
     235                            .dwattr $C$DW$34, DW_AT_decl_line(0xc2)
     236                            .dwattr $C$DW$34, DW_AT_decl_column(0x2a)
     237                            .common xPendingReadyList,20,4
     238                    $C$DW$35        .dwtag  DW_TAG_variable, DW_AT_name("xPendingReadyList")
     239                            .dwattr $C$DW$35, DW_AT_TI_symbol_name("xPendingReadyList")
     240                            .dwattr $C$DW$35, DW_AT_type(*$C$DW$T$75)
     241                            .dwattr $C$DW$35, DW_AT_location[DW_OP_addr xPendingReadyList]
     242                            .dwattr $C$DW$35, DW_AT_decl_file("../Source/tasks.c")
     243                            .dwattr $C$DW$35, DW_AT_decl_line(0xc3)
     244                            .dwattr $C$DW$35, DW_AT_decl_column(0x1f)
     245 00000004                   .data
     246                            .align  4
     247                            .elfsym uxCurrentNumberOfTasks,SYM_SIZE(4)
     248 00000004           uxCurrentNumberOfTasks:
     249 00000004 00000000          .bits   0,32                    ; uxCurrentNumberOfTasks @ 0
     250                    
     251                    $C$DW$36        .dwtag  DW_TAG_variable, DW_AT_name("uxCurrentNumberOfTasks")
     252                            .dwattr $C$DW$36, DW_AT_TI_symbol_name("uxCurrentNumberOfTasks")
     253                            .dwattr $C$DW$36, DW_AT_type(*$C$DW$T$160)
     254                            .dwattr $C$DW$36, DW_AT_location[DW_OP_addr uxCurrentNumberOfTasks]
     255                            .dwattr $C$DW$36, DW_AT_decl_file("../Source/tasks.c")
     256                            .dwattr $C$DW$36, DW_AT_decl_line(0xd9)
     257                            .dwattr $C$DW$36, DW_AT_decl_column(0x2d)
     258 00000008                   .data
     259                            .align  4
     260                            .elfsym xTickCount,SYM_SIZE(4)
     261 00000008           xTickCount:
     262 00000008 00000000          .bits   0,32                    ; xTickCount @ 0
     263                    
     264                    $C$DW$37        .dwtag  DW_TAG_variable, DW_AT_name("xTickCount")
     265                            .dwattr $C$DW$37, DW_AT_TI_symbol_name("xTickCount")
     266                            .dwattr $C$DW$37, DW_AT_type(*$C$DW$T$158)
     267                            .dwattr $C$DW$37, DW_AT_location[DW_OP_addr xTickCount]
     268                            .dwattr $C$DW$37, DW_AT_decl_file("../Source/tasks.c")
     269                            .dwattr $C$DW$37, DW_AT_decl_line(0xda)
     270                            .dwattr $C$DW$37, DW_AT_decl_column(0x2c)
     271 0000000c                   .data
     272                            .align  4
     273                            .elfsym uxTopReadyPriority,SYM_SIZE(4)
     274 0000000c           uxTopReadyPriority:
     275 0000000c 00000000          .bits   0,32                    ; uxTopReadyPriority @ 0
TI ARM Assembler PC v5.1.7 Tue Sep 16 08:38:42 2014

Tools Copyright (c) 1996-2014 Texas Instruments Incorporated
tasks.asm                                                            PAGE    6

     276                    
     277                    $C$DW$38        .dwtag  DW_TAG_variable, DW_AT_name("uxTopReadyPriority")
     278                            .dwattr $C$DW$38, DW_AT_TI_symbol_name("uxTopReadyPriority")
     279                            .dwattr $C$DW$38, DW_AT_type(*$C$DW$T$160)
     280                            .dwattr $C$DW$38, DW_AT_location[DW_OP_addr uxTopReadyPriority]
     281                            .dwattr $C$DW$38, DW_AT_decl_file("../Source/tasks.c")
     282                            .dwattr $C$DW$38, DW_AT_decl_line(0xdb)
     283                            .dwattr $C$DW$38, DW_AT_decl_column(0x2d)
     284 00000010                   .data
     285                            .align  4
     286                            .elfsym xSchedulerRunning,SYM_SIZE(4)
     287 00000010           xSchedulerRunning:
     288 00000010 00000000          .bits   0,32                    ; xSchedulerRunning @ 0
     289                    
     290                    $C$DW$39        .dwtag  DW_TAG_variable, DW_AT_name("xSchedulerRunning")
     291                            .dwattr $C$DW$39, DW_AT_TI_symbol_name("xSchedulerRunning")
     292                            .dwattr $C$DW$39, DW_AT_type(*$C$DW$T$132)
     293                            .dwattr $C$DW$39, DW_AT_location[DW_OP_addr xSchedulerRunning]
     294                            .dwattr $C$DW$39, DW_AT_decl_file("../Source/tasks.c")
     295                            .dwattr $C$DW$39, DW_AT_decl_line(0xdc)
     296                            .dwattr $C$DW$39, DW_AT_decl_column(0x2c)
     297 00000014                   .data
     298                            .align  4
     299                            .elfsym uxPendedTicks,SYM_SIZE(4)
     300 00000014           uxPendedTicks:
     301 00000014 00000000          .bits   0,32                    ; uxPendedTicks @ 0
     302                    
     303                    $C$DW$40        .dwtag  DW_TAG_variable, DW_AT_name("uxPendedTicks")
     304                            .dwattr $C$DW$40, DW_AT_TI_symbol_name("uxPendedTicks")
     305                            .dwattr $C$DW$40, DW_AT_type(*$C$DW$T$160)
     306                            .dwattr $C$DW$40, DW_AT_location[DW_OP_addr uxPendedTicks]
     307                            .dwattr $C$DW$40, DW_AT_decl_file("../Source/tasks.c")
     308                            .dwattr $C$DW$40, DW_AT_decl_line(0xdd)
     309                            .dwattr $C$DW$40, DW_AT_decl_column(0x2d)
     310 00000018                   .data
     311                            .align  4
     312                            .elfsym xYieldPending,SYM_SIZE(4)
     313 00000018           xYieldPending:
     314 00000018 00000000          .bits   0,32                    ; xYieldPending @ 0
     315                    
     316                    $C$DW$41        .dwtag  DW_TAG_variable, DW_AT_name("xYieldPending")
     317                            .dwattr $C$DW$41, DW_AT_TI_symbol_name("xYieldPending")
     318                            .dwattr $C$DW$41, DW_AT_type(*$C$DW$T$132)
     319                            .dwattr $C$DW$41, DW_AT_location[DW_OP_addr xYieldPending]
     320                            .dwattr $C$DW$41, DW_AT_decl_file("../Source/tasks.c")
     321                            .dwattr $C$DW$41, DW_AT_decl_line(0xde)
     322                            .dwattr $C$DW$41, DW_AT_decl_column(0x2c)
     323 0000001c                   .data
     324                            .align  4
     325                            .elfsym xNumOfOverflows,SYM_SIZE(4)
     326 0000001c           xNumOfOverflows:
     327 0000001c 00000000          .bits   0,32                    ; xNumOfOverflows @ 0
     328                    
     329                    $C$DW$42        .dwtag  DW_TAG_variable, DW_AT_name("xNumOfOverflows")
     330                            .dwattr $C$DW$42, DW_AT_TI_symbol_name("xNumOfOverflows")
TI ARM Assembler PC v5.1.7 Tue Sep 16 08:38:42 2014

Tools Copyright (c) 1996-2014 Texas Instruments Incorporated
tasks.asm                                                            PAGE    7

     331                            .dwattr $C$DW$42, DW_AT_type(*$C$DW$T$132)
     332                            .dwattr $C$DW$42, DW_AT_location[DW_OP_addr xNumOfOverflows]
     333                            .dwattr $C$DW$42, DW_AT_decl_file("../Source/tasks.c")
     334                            .dwattr $C$DW$42, DW_AT_decl_line(0xdf)
     335                            .dwattr $C$DW$42, DW_AT_decl_column(0x2c)
     336 00000020                   .data
     337                            .align  4
     338                            .elfsym uxTaskNumber,SYM_SIZE(4)
     339 00000020           uxTaskNumber:
     340 00000020 00000000          .bits   0,32                    ; uxTaskNumber @ 0
     341                    
     342                    $C$DW$43        .dwtag  DW_TAG_variable, DW_AT_name("uxTaskNumber")
     343                            .dwattr $C$DW$43, DW_AT_TI_symbol_name("uxTaskNumber")
     344                            .dwattr $C$DW$43, DW_AT_type(*$C$DW$T$28)
     345                            .dwattr $C$DW$43, DW_AT_location[DW_OP_addr uxTaskNumber]
     346                            .dwattr $C$DW$43, DW_AT_decl_file("../Source/tasks.c")
     347                            .dwattr $C$DW$43, DW_AT_decl_line(0xe0)
     348                            .dwattr $C$DW$43, DW_AT_decl_column(0x24)
     349 00000024                   .data
     350                            .align  4
     351                            .elfsym xNextTaskUnblockTime,SYM_SIZE(4)
     352 00000024           xNextTaskUnblockTime:
     353 00000024 FFFFFFFF          .bits   -1,32                   ; xNextTaskUnblockTime @ 0
     354                    
     355                    $C$DW$44        .dwtag  DW_TAG_variable, DW_AT_name("xNextTaskUnblockTime")
     356                            .dwattr $C$DW$44, DW_AT_TI_symbol_name("xNextTaskUnblockTime")
     357                            .dwattr $C$DW$44, DW_AT_type(*$C$DW$T$158)
     358                            .dwattr $C$DW$44, DW_AT_location[DW_OP_addr xNextTaskUnblockTime]
     359                            .dwattr $C$DW$44, DW_AT_decl_file("../Source/tasks.c")
     360                            .dwattr $C$DW$44, DW_AT_decl_line(0xe1)
     361                            .dwattr $C$DW$44, DW_AT_decl_column(0x2c)
     362 00000028                   .data
     363                            .align  4
     364                            .elfsym uxSchedulerSuspended,SYM_SIZE(4)
     365 00000028           uxSchedulerSuspended:
     366 00000028 00000000          .bits   0,32                    ; uxSchedulerSuspended @ 0
     367                    
     368                    $C$DW$45        .dwtag  DW_TAG_variable, DW_AT_name("uxSchedulerSuspended")
     369                            .dwattr $C$DW$45, DW_AT_TI_symbol_name("uxSchedulerSuspended")
     370                            .dwattr $C$DW$45, DW_AT_type(*$C$DW$T$160)
     371                            .dwattr $C$DW$45, DW_AT_location[DW_OP_addr uxSchedulerSuspended]
     372                            .dwattr $C$DW$45, DW_AT_decl_file("../Source/tasks.c")
     373                            .dwattr $C$DW$45, DW_AT_decl_line(0xeb)
     374                            .dwattr $C$DW$45, DW_AT_decl_column(0x2d)
     375                    ;       C:\TI_CodeComposer\ccsv6\tools\compiler\arm_5.1.7\bin\armacpia.exe -@C:\\Users\\zflies\\AppDat
     376 00000000                   .sect   ".text"
     377                            .clink
     378                            .thumbfunc xTaskGenericCreate
     379 00000000                   .thumb
     380                            .global xTaskGenericCreate
     381                    
     382                    $C$DW$46        .dwtag  DW_TAG_subprogram, DW_AT_name("xTaskGenericCreate")
     383                            .dwattr $C$DW$46, DW_AT_low_pc(xTaskGenericCreate)
     384                            .dwattr $C$DW$46, DW_AT_high_pc(0x00)
     385                            .dwattr $C$DW$46, DW_AT_TI_symbol_name("xTaskGenericCreate")
TI ARM Assembler PC v5.1.7 Tue Sep 16 08:38:42 2014

Tools Copyright (c) 1996-2014 Texas Instruments Incorporated
tasks.asm                                                            PAGE    8

     386                            .dwattr $C$DW$46, DW_AT_external
     387                            .dwattr $C$DW$46, DW_AT_type(*$C$DW$T$56)
     388                            .dwattr $C$DW$46, DW_AT_TI_begin_file("../Source/tasks.c")
     389                            .dwattr $C$DW$46, DW_AT_TI_begin_line(0x203)
     390                            .dwattr $C$DW$46, DW_AT_TI_begin_column(0x0c)
     391                            .dwattr $C$DW$46, DW_AT_decl_file("../Source/tasks.c")
     392                            .dwattr $C$DW$46, DW_AT_decl_line(0x203)
     393                            .dwattr $C$DW$46, DW_AT_decl_column(0x0c)
     394                            .dwattr $C$DW$46, DW_AT_TI_max_frame_size(0x28)
     395                            .dwpsn  file "../Source/tasks.c",line 516,column 1,is_stmt,address xTaskGenericCreate,isa 1
     396                    
     397                            .dwfde $C$DW$CIE, xTaskGenericCreate
     398                    $C$DW$47        .dwtag  DW_TAG_formal_parameter, DW_AT_name("pxTaskCode")
     399                            .dwattr $C$DW$47, DW_AT_TI_symbol_name("pxTaskCode")
     400                            .dwattr $C$DW$47, DW_AT_type(*$C$DW$T$43)
     401                            .dwattr $C$DW$47, DW_AT_location[DW_OP_reg0]
     402                    $C$DW$48        .dwtag  DW_TAG_formal_parameter, DW_AT_name("pcName")
     403                            .dwattr $C$DW$48, DW_AT_TI_symbol_name("pcName")
     404                            .dwattr $C$DW$48, DW_AT_type(*$C$DW$T$46)
     405                            .dwattr $C$DW$48, DW_AT_location[DW_OP_reg1]
     406                    $C$DW$49        .dwtag  DW_TAG_formal_parameter, DW_AT_name("usStackDepth")
     407                            .dwattr $C$DW$49, DW_AT_TI_symbol_name("usStackDepth")
     408                            .dwattr $C$DW$49, DW_AT_type(*$C$DW$T$105)
     409                            .dwattr $C$DW$49, DW_AT_location[DW_OP_reg2]
     410                    $C$DW$50        .dwtag  DW_TAG_formal_parameter, DW_AT_name("pvParameters")
     411                            .dwattr $C$DW$50, DW_AT_TI_symbol_name("pvParameters")
     412                            .dwattr $C$DW$50, DW_AT_type(*$C$DW$T$69)
     413                            .dwattr $C$DW$50, DW_AT_location[DW_OP_reg3]
     414                    $C$DW$51        .dwtag  DW_TAG_formal_parameter, DW_AT_name("uxPriority")
     415                            .dwattr $C$DW$51, DW_AT_TI_symbol_name("uxPriority")
     416                            .dwattr $C$DW$51, DW_AT_type(*$C$DW$T$28)
     417                            .dwattr $C$DW$51, DW_AT_location[DW_OP_breg13 40]
     418                    $C$DW$52        .dwtag  DW_TAG_formal_parameter, DW_AT_name("pxCreatedTask")
     419                            .dwattr $C$DW$52, DW_AT_TI_symbol_name("pxCreatedTask")
     420                            .dwattr $C$DW$52, DW_AT_type(*$C$DW$T$64)
     421                            .dwattr $C$DW$52, DW_AT_location[DW_OP_breg13 44]
     422                    $C$DW$53        .dwtag  DW_TAG_formal_parameter, DW_AT_name("puxStackBuffer")
     423                            .dwattr $C$DW$53, DW_AT_TI_symbol_name("puxStackBuffer")
     424                            .dwattr $C$DW$53, DW_AT_type(*$C$DW$T$135)
     425                            .dwattr $C$DW$53, DW_AT_location[DW_OP_breg13 48]
     426                    $C$DW$54        .dwtag  DW_TAG_formal_parameter, DW_AT_name("xRegions")
     427                            .dwattr $C$DW$54, DW_AT_TI_symbol_name("xRegions")
     428                            .dwattr $C$DW$54, DW_AT_type(*$C$DW$T$104)
     429                            .dwattr $C$DW$54, DW_AT_location[DW_OP_breg13 52]
     430                    
     431                    ;*****************************************************************************
     432                    ;* FUNCTION NAME: xTaskGenericCreate                                         *
     433                    ;*                                                                           *
     434                    ;*   Regs Modified     : A1,A2,A3,A4,V9,SP,LR,SR,D0,D0_hi,D1,D1_hi,D2,D2_hi, *
     435                    ;*                           D3,D3_hi,D4,D4_hi,D5,D5_hi,D6,D6_hi,D7,D7_hi,   *
     436                    ;*                           FPEXC,FPSCR                                     *
     437                    ;*   Regs Used         : A1,A2,A3,A4,V9,SP,LR,SR,D0,D0_hi,D1,D1_hi,D2,D2_hi, *
     438                    ;*                           D3,D3_hi,D4,D4_hi,D5,D5_hi,D6,D6_hi,D7,D7_hi,   *
     439                    ;*                           FPEXC,FPSCR                                     *
     440                    ;*   Local Frame Size  : 4 Args + 28 Auto + 4 Save = 36 byte                 *
TI ARM Assembler PC v5.1.7 Tue Sep 16 08:38:42 2014

Tools Copyright (c) 1996-2014 Texas Instruments Incorporated
tasks.asm                                                            PAGE    9

     441                    ;*****************************************************************************
     442 00000000           xTaskGenericCreate:
     443                    ;* --------------------------------------------------------------------------*
     444                            .dwcfi  cfa_offset, 0
     445 00000000 B500              PUSH      {LR}                  ; [DPU_3_PIPE]  ; [ORIG 16-BIT INS]
     446                            .dwcfi  cfa_offset, 4
     447                            .dwcfi  save_reg_to_mem, 14, -4
     448 00000002 0D24F1AD          SUB       SP, SP, #36           ; [DPU_3_PIPE]  ; [KEEP 32-BIT INS]
     449                            .dwcfi  cfa_offset, 40
     450                    $C$DW$55        .dwtag  DW_TAG_variable, DW_AT_name("pxTaskCode")
     451                            .dwattr $C$DW$55, DW_AT_TI_symbol_name("pxTaskCode")
     452                            .dwattr $C$DW$55, DW_AT_type(*$C$DW$T$43)
     453                            .dwattr $C$DW$55, DW_AT_location[DW_OP_breg13 4]
     454                    $C$DW$56        .dwtag  DW_TAG_variable, DW_AT_name("pcName")
     455                            .dwattr $C$DW$56, DW_AT_TI_symbol_name("pcName")
     456                            .dwattr $C$DW$56, DW_AT_type(*$C$DW$T$46)
     457                            .dwattr $C$DW$56, DW_AT_location[DW_OP_breg13 8]
     458                    $C$DW$57        .dwtag  DW_TAG_variable, DW_AT_name("usStackDepth")
     459                            .dwattr $C$DW$57, DW_AT_TI_symbol_name("usStackDepth")
     460                            .dwattr $C$DW$57, DW_AT_type(*$C$DW$T$105)
     461                            .dwattr $C$DW$57, DW_AT_location[DW_OP_breg13 12]
     462                    $C$DW$58        .dwtag  DW_TAG_variable, DW_AT_name("pvParameters")
     463                            .dwattr $C$DW$58, DW_AT_TI_symbol_name("pvParameters")
     464                            .dwattr $C$DW$58, DW_AT_type(*$C$DW$T$69)
     465                            .dwattr $C$DW$58, DW_AT_location[DW_OP_breg13 16]
     466                    $C$DW$59        .dwtag  DW_TAG_variable, DW_AT_name("xReturn")
     467                            .dwattr $C$DW$59, DW_AT_TI_symbol_name("xReturn")
     468                            .dwattr $C$DW$59, DW_AT_type(*$C$DW$T$56)
     469                            .dwattr $C$DW$59, DW_AT_location[DW_OP_breg13 20]
     470                    $C$DW$60        .dwtag  DW_TAG_variable, DW_AT_name("pxNewTCB")
     471                            .dwattr $C$DW$60, DW_AT_TI_symbol_name("pxNewTCB")
     472                            .dwattr $C$DW$60, DW_AT_type(*$C$DW$T$100)
     473                            .dwattr $C$DW$60, DW_AT_location[DW_OP_breg13 24]
     474 00000006 9304              STR       A4, [SP, #16]         ; [DPU_3_PIPE] |516|  ; [ORIG 16-BIT INS]
     475 00000008 200CF8AD          STRH      A3, [SP, #12]         ; [DPU_3_PIPE] |516|  ; [KEEP 32-BIT INS]
     476 0000000c 9102              STR       A2, [SP, #8]          ; [DPU_3_PIPE] |516|  ; [ORIG 16-BIT INS]
     477 0000000e 9001              STR       A1, [SP, #4]          ; [DPU_3_PIPE] |516|  ; [ORIG 16-BIT INS]
     478                            .dwpsn  file "../Source/tasks.c",line 525,column 2,is_stmt,isa 1
     479 00000010 990C              LDR       A2, [SP, #48]         ; [DPU_3_PIPE] |525|  ; [ORIG 16-BIT INS]
     480 00000012 000CF8BD          LDRH      A1, [SP, #12]         ; [DPU_3_PIPE] |525|  ; [KEEP 32-BIT INS]
     481                    $C$DW$61        .dwtag  DW_TAG_TI_branch
     482                            .dwattr $C$DW$61, DW_AT_low_pc(0x00)
     483                            .dwattr $C$DW$61, DW_AT_name("prvAllocateTCBAndStack")
     484                            .dwattr $C$DW$61, DW_AT_TI_call
     485 00000016 FBF5F000          BL        prvAllocateTCBAndStack ; [DPU_3_PIPE] |525|  ; [KEEP 32-BIT INS]
     486                            ; CALL OCCURS {prvAllocateTCBAndStack }  ; [] |525| 
     487 0000001a 9006              STR       A1, [SP, #24]         ; [DPU_3_PIPE] |525|  ; [ORIG 16-BIT INS]
     488                            .dwpsn  file "../Source/tasks.c",line 527,column 2,is_stmt,isa 1
     489 0000001c 9806              LDR       A1, [SP, #24]         ; [DPU_3_PIPE] |527|  ; [ORIG 16-BIT INS]
     490 0000001e 2800              CMP       A1, #0                ; [DPU_3_PIPE] |527|  ; [ORIG 16-BIT INS]
     491 00000020 D05E              BEQ       ||$C$L5||             ; [DPU_3_PIPE] |527|  ; [ORIG 16-BIT INS]
     492                            ; BRANCHCC OCCURS {||$C$L5||}    ; [] |527| 
     493                    ;* --------------------------------------------------------------------------*
     494                    
     495                    $C$DW$62        .dwtag  DW_TAG_lexical_block, DW_AT_low_pc(0x00), DW_AT_high_pc(0x00)
TI ARM Assembler PC v5.1.7 Tue Sep 16 08:38:42 2014

Tools Copyright (c) 1996-2014 Texas Instruments Incorporated
tasks.asm                                                            PAGE   10

     496                    $C$DW$63        .dwtag  DW_TAG_variable, DW_AT_name("pxTopOfStack")
     497                            .dwattr $C$DW$63, DW_AT_TI_symbol_name("pxTopOfStack")
     498                            .dwattr $C$DW$63, DW_AT_type(*$C$DW$T$29)
     499                            .dwattr $C$DW$63, DW_AT_location[DW_OP_breg13 28]
     500                            .dwpsn  file "../Source/tasks.c",line 551,column 4,is_stmt,isa 1
     501 00000022 9906              LDR       A2, [SP, #24]         ; [DPU_3_PIPE] |551|  ; [ORIG 16-BIT INS]
     502 00000024 000CF8BD          LDRH      A1, [SP, #12]         ; [DPU_3_PIPE] |551|  ; [KEEP 32-BIT INS]
     503 00000028 6B09              LDR       A2, [A2, #48]         ; [DPU_3_PIPE] |551|  ; [ORIG 16-BIT INS]
     504 0000002a 1E40              SUBS      A1, A1, #1            ; [DPU_3_PIPE] |551|  ; [ORIG 16-BIT INS]
     505 0000002c 0180EB01          ADD       A2, A2, A1, LSL #2    ; [DPU_3_PIPE] |551|  ; [KEEP 32-BIT INS]
     506 00000030 9107              STR       A2, [SP, #28]         ; [DPU_3_PIPE] |551|  ; [ORIG 16-BIT INS]
     507                            .dwpsn  file "../Source/tasks.c",line 552,column 4,is_stmt,isa 1
     508 00000032 9807              LDR       A1, [SP, #28]         ; [DPU_3_PIPE] |552|  ; [ORIG 16-BIT INS]
     509 00000034 0007F020          BIC       A1, A1, #7            ; [DPU_3_PIPE] |552|  ; [KEEP 32-BIT INS]
     510 00000038 9007              STR       A1, [SP, #28]         ; [DPU_3_PIPE] |552|  ; [ORIG 16-BIT INS]
     511                            .dwpsn  file "../Source/tasks.c",line 572,column 3,is_stmt,isa 1
     512 0000003a 000CF8BD          LDRH      A1, [SP, #12]         ; [DPU_3_PIPE] |572|  ; [KEEP 32-BIT INS]
     513 0000003e 9A0A              LDR       A3, [SP, #40]         ; [DPU_3_PIPE] |572|  ; [ORIG 16-BIT INS]
     514 00000040 9B0D              LDR       A4, [SP, #52]         ; [DPU_3_PIPE] |572|  ; [ORIG 16-BIT INS]
     515 00000042 9000              STR       A1, [SP, #0]          ; [DPU_3_PIPE] |572|  ; [ORIG 16-BIT INS]
     516 00000044 9902              LDR       A2, [SP, #8]          ; [DPU_3_PIPE] |572|  ; [ORIG 16-BIT INS]
     517 00000046 9806              LDR       A1, [SP, #24]         ; [DPU_3_PIPE] |572|  ; [ORIG 16-BIT INS]
     518                    $C$DW$64        .dwtag  DW_TAG_TI_branch
     519                            .dwattr $C$DW$64, DW_AT_low_pc(0x00)
     520                            .dwattr $C$DW$64, DW_AT_name("prvInitialiseTCBVariables")
     521                            .dwattr $C$DW$64, DW_AT_TI_call
     522 00000048 FB4CF000          BL        prvInitialiseTCBVariables ; [DPU_3_PIPE] |572|  ; [KEEP 32-BIT INS]
     523                            ; CALL OCCURS {prvInitialiseTCBVariables }  ; [] |572| 
     524                            .dwpsn  file "../Source/tasks.c",line 584,column 4,is_stmt,isa 1
     525 0000004c 9807              LDR       A1, [SP, #28]         ; [DPU_3_PIPE] |584|  ; [ORIG 16-BIT INS]
     526 0000004e 9901              LDR       A2, [SP, #4]          ; [DPU_3_PIPE] |584|  ; [ORIG 16-BIT INS]
     527 00000050 9A04              LDR       A3, [SP, #16]         ; [DPU_3_PIPE] |584|  ; [ORIG 16-BIT INS]
     528                    $C$DW$65        .dwtag  DW_TAG_TI_branch
     529                            .dwattr $C$DW$65, DW_AT_low_pc(0x00)
     530                            .dwattr $C$DW$65, DW_AT_name("pxPortInitialiseStack")
     531                            .dwattr $C$DW$65, DW_AT_TI_call
     532 00000052 FFFEF7FF!         BL        pxPortInitialiseStack ; [DPU_3_PIPE] |584|  ; [KEEP 32-BIT INS]
     533                            ; CALL OCCURS {pxPortInitialiseStack }  ; [] |584| 
     534 00000056 9906              LDR       A2, [SP, #24]         ; [DPU_3_PIPE] |584|  ; [ORIG 16-BIT INS]
     535 00000058 6008              STR       A1, [A2, #0]          ; [DPU_3_PIPE] |584|  ; [ORIG 16-BIT INS]
     536                            .dwpsn  file "../Source/tasks.c",line 588,column 3,is_stmt,isa 1
     537 0000005a 980B              LDR       A1, [SP, #44]         ; [DPU_3_PIPE] |588|  ; [ORIG 16-BIT INS]
     538 0000005c B110              CBZ       A1, ||$C$L1||         ; []  ; [ORIG 16-BIT INS]
     539                            ; BRANCHCC OCCURS {||$C$L1||}    ; [] |588| 
     540                    ;* --------------------------------------------------------------------------*
     541                            .dwpsn  file "../Source/tasks.c",line 593,column 4,is_stmt,isa 1
     542 0000005e 9806              LDR       A1, [SP, #24]         ; [DPU_3_PIPE] |593|  ; [ORIG 16-BIT INS]
     543 00000060 990B              LDR       A2, [SP, #44]         ; [DPU_3_PIPE] |593|  ; [ORIG 16-BIT INS]
     544 00000062 6008              STR       A1, [A2, #0]          ; [DPU_3_PIPE] |593|  ; [ORIG 16-BIT INS]
     545                            .dwpsn  file "../Source/tasks.c",line 594,column 3,is_stmt,isa 1
     546                    ;* --------------------------------------------------------------------------*
     547 00000064           ||$C$L1||:    
     548                            .dwpsn  file "../Source/tasks.c",line 602,column 3,is_stmt,isa 1
     549                    $C$DW$66        .dwtag  DW_TAG_TI_branch
     550                            .dwattr $C$DW$66, DW_AT_low_pc(0x00)
TI ARM Assembler PC v5.1.7 Tue Sep 16 08:38:42 2014

Tools Copyright (c) 1996-2014 Texas Instruments Incorporated
tasks.asm                                                            PAGE   11

     551                            .dwattr $C$DW$66, DW_AT_name("vPortEnterCritical")
     552                            .dwattr $C$DW$66, DW_AT_TI_call
     553 00000064 FFFEF7FF!         BL        vPortEnterCritical    ; [DPU_3_PIPE] |602|  ; [KEEP 32-BIT INS]
     554                            ; CALL OCCURS {vPortEnterCritical }  ; [] |602| 
     555                            .dwpsn  file "../Source/tasks.c",line 604,column 4,is_stmt,isa 1
     556 00000068 49A2              LDR       A2, $C$CON1           ; [DPU_3_PIPE] |604|  ; [ORIG 16-BIT INS]
     557 0000006a 6808              LDR       A1, [A2, #0]          ; [DPU_3_PIPE] |604|  ; [ORIG 16-BIT INS]
     558 0000006c 1C40              ADDS      A1, A1, #1            ; [DPU_3_PIPE] |604|  ; [ORIG 16-BIT INS]
     559 0000006e 6008              STR       A1, [A2, #0]          ; [DPU_3_PIPE] |604|  ; [ORIG 16-BIT INS]
     560                            .dwpsn  file "../Source/tasks.c",line 605,column 4,is_stmt,isa 1
     561 00000070 48A1              LDR       A1, $C$CON2           ; [DPU_3_PIPE] |605|  ; [ORIG 16-BIT INS]
     562 00000072 6800              LDR       A1, [A1, #0]          ; [DPU_3_PIPE] |605|  ; [ORIG 16-BIT INS]
     563 00000074 B948              CBNZ      A1, ||$C$L2||         ; []  ; [ORIG 16-BIT INS]
     564                            ; BRANCHCC OCCURS {||$C$L2||}    ; [] |605| 
     565                    ;* --------------------------------------------------------------------------*
     566                            .dwpsn  file "../Source/tasks.c",line 609,column 5,is_stmt,isa 1
     567 00000076 9806              LDR       A1, [SP, #24]         ; [DPU_3_PIPE] |609|  ; [ORIG 16-BIT INS]
     568 00000078 499F              LDR       A2, $C$CON2           ; [DPU_3_PIPE] |609|  ; [ORIG 16-BIT INS]
     569 0000007a 6008              STR       A1, [A2, #0]          ; [DPU_3_PIPE] |609|  ; [ORIG 16-BIT INS]
     570                            .dwpsn  file "../Source/tasks.c",line 611,column 5,is_stmt,isa 1
     571 0000007c 489D              LDR       A1, $C$CON1           ; [DPU_3_PIPE] |611|  ; [ORIG 16-BIT INS]
     572 0000007e 6800              LDR       A1, [A1, #0]          ; [DPU_3_PIPE] |611|  ; [ORIG 16-BIT INS]
     573 00000080 2801              CMP       A1, #1                ; [DPU_3_PIPE] |611|  ; [ORIG 16-BIT INS]
     574 00000082 D10F              BNE       ||$C$L3||             ; [DPU_3_PIPE] |611|  ; [ORIG 16-BIT INS]
     575                            ; BRANCHCC OCCURS {||$C$L3||}    ; [] |611| 
     576                    ;* --------------------------------------------------------------------------*
     577                            .dwpsn  file "../Source/tasks.c",line 616,column 6,is_stmt,isa 1
     578                    $C$DW$67        .dwtag  DW_TAG_TI_branch
     579                            .dwattr $C$DW$67, DW_AT_low_pc(0x00)
     580                            .dwattr $C$DW$67, DW_AT_name("prvInitialiseTaskLists")
     581                            .dwattr $C$DW$67, DW_AT_TI_call
     582 00000084 FB70F000          BL        prvInitialiseTaskLists ; [DPU_3_PIPE] |616|  ; [KEEP 32-BIT INS]
     583                            ; CALL OCCURS {prvInitialiseTaskLists }  ; [] |616| 
     584                            .dwpsn  file "../Source/tasks.c",line 617,column 5,is_stmt,isa 1
     585 00000088 E00C              B         ||$C$L3||             ; [DPU_3_PIPE] |617|  ; [ORIG 16-BIT INS]
     586                            ; BRANCH OCCURS {||$C$L3||}      ; [] |617| 
     587                    ;* --------------------------------------------------------------------------*
     588                    ;* --------------------------------------------------------------------------*
     589 0000008a           ||$C$L2||:    
     590                            .dwpsn  file "../Source/tasks.c",line 628,column 5,is_stmt,isa 1
     591 0000008a 48A1              LDR       A1, $C$CON3           ; [DPU_3_PIPE] |628|  ; [ORIG 16-BIT INS]
     592 0000008c 6800              LDR       A1, [A1, #0]          ; [DPU_3_PIPE] |628|  ; [ORIG 16-BIT INS]
     593 0000008e B948              CBNZ      A1, ||$C$L3||         ; []  ; [ORIG 16-BIT INS]
     594                            ; BRANCHCC OCCURS {||$C$L3||}    ; [] |628| 
     595                    ;* --------------------------------------------------------------------------*
     596                            .dwpsn  file "../Source/tasks.c",line 630,column 6,is_stmt,isa 1
     597 00000090 4899              LDR       A1, $C$CON2           ; [DPU_3_PIPE] |630|  ; [ORIG 16-BIT INS]
     598 00000092 6801              LDR       A2, [A1, #0]          ; [DPU_3_PIPE] |630|  ; [ORIG 16-BIT INS]
     599 00000094 980A              LDR       A1, [SP, #40]         ; [DPU_3_PIPE] |630|  ; [ORIG 16-BIT INS]
     600 00000096 6AC9              LDR       A2, [A2, #44]         ; [DPU_3_PIPE] |630|  ; [ORIG 16-BIT INS]
     601 00000098 4288              CMP       A1, A2                ; [DPU_3_PIPE] |630|  ; [ORIG 16-BIT INS]
     602 0000009a D303              BCC       ||$C$L3||             ; [DPU_3_PIPE] |630|  ; [ORIG 16-BIT INS]
     603                            ; BRANCHCC OCCURS {||$C$L3||}    ; [] |630| 
     604                    ;* --------------------------------------------------------------------------*
     605                            .dwpsn  file "../Source/tasks.c",line 632,column 7,is_stmt,isa 1
TI ARM Assembler PC v5.1.7 Tue Sep 16 08:38:42 2014

Tools Copyright (c) 1996-2014 Texas Instruments Incorporated
tasks.asm                                                            PAGE   12

     606 0000009c 9806              LDR       A1, [SP, #24]         ; [DPU_3_PIPE] |632|  ; [ORIG 16-BIT INS]
     607 0000009e 4996              LDR       A2, $C$CON2           ; [DPU_3_PIPE] |632|  ; [ORIG 16-BIT INS]
     608 000000a0 6008              STR       A1, [A2, #0]          ; [DPU_3_PIPE] |632|  ; [ORIG 16-BIT INS]
     609                            .dwpsn  file "../Source/tasks.c",line 633,column 6,is_stmt,isa 1
     610 000000a2 E7FF              B         ||$C$L3||             ; [DPU_3_PIPE] |633|  ; [ORIG 16-BIT INS]
     611                            ; BRANCH OCCURS {||$C$L3||}      ; [] |633| 
     612                    ;* --------------------------------------------------------------------------*
     613                    ;* --------------------------------------------------------------------------*
     614 000000a4           ||$C$L3||:    
     615                            .dwpsn  file "../Source/tasks.c",line 645,column 4,is_stmt,isa 1
     616 000000a4 49A3              LDR       A2, $C$CON4           ; [DPU_3_PIPE] |645|  ; [ORIG 16-BIT INS]
     617 000000a6 6808              LDR       A1, [A2, #0]          ; [DPU_3_PIPE] |645|  ; [ORIG 16-BIT INS]
     618 000000a8 1C40              ADDS      A1, A1, #1            ; [DPU_3_PIPE] |645|  ; [ORIG 16-BIT INS]
     619 000000aa 6008              STR       A1, [A2, #0]          ; [DPU_3_PIPE] |645|  ; [ORIG 16-BIT INS]
     620                            .dwpsn  file "../Source/tasks.c",line 655,column 4,is_stmt,isa 1
     621 000000ac 48A2              LDR       A1, $C$CON5           ; [DPU_3_PIPE] |655|  ; [ORIG 16-BIT INS]
     622 000000ae 9906              LDR       A2, [SP, #24]         ; [DPU_3_PIPE] |655|  ; [ORIG 16-BIT INS]
     623 000000b0 6800              LDR       A1, [A1, #0]          ; [DPU_3_PIPE] |655|  ; [ORIG 16-BIT INS]
     624 000000b2 6AC9              LDR       A2, [A2, #44]         ; [DPU_3_PIPE] |655|  ; [ORIG 16-BIT INS]
     625 000000b4 4288              CMP       A1, A2                ; [DPU_3_PIPE] |655|  ; [ORIG 16-BIT INS]
     626 000000b6 D203              BCS       ||$C$L4||             ; [DPU_3_PIPE] |655|  ; [ORIG 16-BIT INS]
     627                            ; BRANCHCC OCCURS {||$C$L4||}    ; [] |655| 
     628                    ;* --------------------------------------------------------------------------*
     629 000000b8 9806              LDR       A1, [SP, #24]         ; [DPU_3_PIPE] |655|  ; [ORIG 16-BIT INS]
     630 000000ba 499F              LDR       A2, $C$CON5           ; [DPU_3_PIPE] |655|  ; [ORIG 16-BIT INS]
     631 000000bc 6AC0              LDR       A1, [A1, #44]         ; [DPU_3_PIPE] |655|  ; [ORIG 16-BIT INS]
     632 000000be 6008              STR       A1, [A2, #0]          ; [DPU_3_PIPE] |655|  ; [ORIG 16-BIT INS]
     633                    ;* --------------------------------------------------------------------------*
     634 000000c0           ||$C$L4||:    
     635 000000c0 9806              LDR       A1, [SP, #24]         ; [DPU_3_PIPE] |655|  ; [ORIG 16-BIT INS]
     636 000000c2 6AC3              LDR       A4, [A1, #44]         ; [DPU_3_PIPE] |655|  ; [ORIG 16-BIT INS]
     637 000000c4 9906              LDR       A2, [SP, #24]         ; [DPU_3_PIPE] |655|  ; [ORIG 16-BIT INS]
     638 000000c6 489D              LDR       A1, $C$CON6           ; [DPU_3_PIPE] |655|  ; [ORIG 16-BIT INS]
     639 000000c8 009A              LSLS      A3, A4, #2            ; [DPU_3_PIPE] |655|  ; [ORIG 16-BIT INS]
     640 000000ca 1D09              ADDS      A2, A2, #4            ; [DPU_3_PIPE] |655|  ; [ORIG 16-BIT INS]
     641 000000cc 1203EB02          ADD       A3, A3, A4, LSL #4    ; [DPU_3_PIPE] |655|  ; [KEEP 32-BIT INS]
     642 000000d0 1880              ADDS      A1, A1, A3            ; [DPU_3_PIPE] |655|  ; [ORIG 16-BIT INS]
     643                    $C$DW$68        .dwtag  DW_TAG_TI_branch
     644                            .dwattr $C$DW$68, DW_AT_low_pc(0x00)
     645                            .dwattr $C$DW$68, DW_AT_name("vListInsertEnd")
     646                            .dwattr $C$DW$68, DW_AT_TI_call
     647 000000d2 FFFEF7FF!         BL        vListInsertEnd        ; [DPU_3_PIPE] |655|  ; [KEEP 32-BIT INS]
     648                            ; CALL OCCURS {vListInsertEnd }  ; [] |655| 
     649                            .dwpsn  file "../Source/tasks.c",line 657,column 4,is_stmt,isa 1
     650 000000d6 2001              MOVS      A1, #1                ; [DPU_3_PIPE] |657|  ; [ORIG 16-BIT INS]
     651 000000d8 9005              STR       A1, [SP, #20]         ; [DPU_3_PIPE] |657|  ; [ORIG 16-BIT INS]
     652                            .dwpsn  file "../Source/tasks.c",line 658,column 4,is_stmt,isa 1
     653                            .dwpsn  file "../Source/tasks.c",line 660,column 3,is_stmt,isa 1
     654                    $C$DW$69        .dwtag  DW_TAG_TI_branch
     655                            .dwattr $C$DW$69, DW_AT_low_pc(0x00)
     656                            .dwattr $C$DW$69, DW_AT_name("vPortExitCritical")
     657                            .dwattr $C$DW$69, DW_AT_TI_call
     658 000000da FFFEF7FF!         BL        vPortExitCritical     ; [DPU_3_PIPE] |660|  ; [KEEP 32-BIT INS]
     659                            ; CALL OCCURS {vPortExitCritical }  ; [] |660| 
     660                            .dwendtag $C$DW$62
TI ARM Assembler PC v5.1.7 Tue Sep 16 08:38:42 2014

Tools Copyright (c) 1996-2014 Texas Instruments Incorporated
tasks.asm                                                            PAGE   13

     661                    
     662                            .dwpsn  file "../Source/tasks.c",line 661,column 2,is_stmt,isa 1
     663 000000de E002              B         ||$C$L6||             ; [DPU_3_PIPE] |661|  ; [ORIG 16-BIT INS]
     664                            ; BRANCH OCCURS {||$C$L6||}      ; [] |661| 
     665                    ;* --------------------------------------------------------------------------*
     666 000000e0           ||$C$L5||:    
     667                            .dwpsn  file "../Source/tasks.c",line 664,column 3,is_stmt,isa 1
     668 000000e0 30FFF04F          MOV       A1, #-1               ; [DPU_3_PIPE] |664|  ; [KEEP 32-BIT INS]
     669 000000e4 9005              STR       A1, [SP, #20]         ; [DPU_3_PIPE] |664|  ; [ORIG 16-BIT INS]
     670                    ;* --------------------------------------------------------------------------*
     671 000000e6           ||$C$L6||:    
     672                            .dwpsn  file "../Source/tasks.c",line 668,column 2,is_stmt,isa 1
     673 000000e6 9805              LDR       A1, [SP, #20]         ; [DPU_3_PIPE] |668|  ; [ORIG 16-BIT INS]
     674 000000e8 2801              CMP       A1, #1                ; [DPU_3_PIPE] |668|  ; [ORIG 16-BIT INS]
     675 000000ea D108              BNE       ||$C$L7||             ; [DPU_3_PIPE] |668|  ; [ORIG 16-BIT INS]
     676                            ; BRANCHCC OCCURS {||$C$L7||}    ; [] |668| 
     677                    ;* --------------------------------------------------------------------------*
     678                            .dwpsn  file "../Source/tasks.c",line 670,column 3,is_stmt,isa 1
     679 000000ec 4888              LDR       A1, $C$CON3           ; [DPU_3_PIPE] |670|  ; [ORIG 16-BIT INS]
     680 000000ee 6800              LDR       A1, [A1, #0]          ; [DPU_3_PIPE] |670|  ; [ORIG 16-BIT INS]
     681 000000f0 B128              CBZ       A1, ||$C$L7||         ; []  ; [ORIG 16-BIT INS]
     682                            ; BRANCHCC OCCURS {||$C$L7||}    ; [] |670| 
     683                    ;* --------------------------------------------------------------------------*
     684                            .dwpsn  file "../Source/tasks.c",line 674,column 4,is_stmt,isa 1
     685 000000f2 4881              LDR       A1, $C$CON2           ; [DPU_3_PIPE] |674|  ; [ORIG 16-BIT INS]
     686 000000f4 6801              LDR       A2, [A1, #0]          ; [DPU_3_PIPE] |674|  ; [ORIG 16-BIT INS]
     687 000000f6 980A              LDR       A1, [SP, #40]         ; [DPU_3_PIPE] |674|  ; [ORIG 16-BIT INS]
     688 000000f8 6AC9              LDR       A2, [A2, #44]         ; [DPU_3_PIPE] |674|  ; [ORIG 16-BIT INS]
     689 000000fa 4288              CMP       A1, A2                ; [DPU_3_PIPE] |674|  ; [ORIG 16-BIT INS]
     690 000000fc D8FF              BHI       ||$C$L7||             ; [DPU_3_PIPE] |674|  ; [ORIG 16-BIT INS]
     691                            ; BRANCHCC OCCURS {||$C$L7||}    ; [] |674| 
     692                    ;* --------------------------------------------------------------------------*
     693                            .dwpsn  file "../Source/tasks.c",line 677,column 4,is_stmt,isa 1
     694                            .dwpsn  file "../Source/tasks.c",line 682,column 3,is_stmt,isa 1
     695                    ;* --------------------------------------------------------------------------*
     696 000000fe           ||$C$L7||:    
     697                            .dwpsn  file "../Source/tasks.c",line 689,column 2,is_stmt,isa 1
     698 000000fe 9805              LDR       A1, [SP, #20]         ; [DPU_3_PIPE] |689|  ; [ORIG 16-BIT INS]
     699                            .dwpsn  file "../Source/tasks.c",line 690,column 1,is_stmt,isa 1
     700 00000100 B009              ADD       SP, SP, #36           ; [DPU_3_PIPE]  ; [ORIG 16-BIT INS]
     701                            .dwcfi  cfa_offset, 4
     702                    $C$DW$70        .dwtag  DW_TAG_TI_branch
     703                            .dwattr $C$DW$70, DW_AT_low_pc(0x00)
     704                            .dwattr $C$DW$70, DW_AT_TI_return
     705 00000102 BD00              POP       {PC}                  ; [DPU_3_PIPE]  ; [ORIG 16-BIT INS]
     706                            .dwcfi  cfa_offset, 0
     707                            ; BRANCH OCCURS                  ; [] 
     708                            .dwattr $C$DW$46, DW_AT_TI_end_file("../Source/tasks.c")
     709                            .dwattr $C$DW$46, DW_AT_TI_end_line(0x2b2)
     710                            .dwattr $C$DW$46, DW_AT_TI_end_column(0x01)
     711                            .dwendentry
     712                            .dwendtag $C$DW$46
     713                    
     714 00000104                   .sect   ".text"
     715                            .clink
TI ARM Assembler PC v5.1.7 Tue Sep 16 08:38:42 2014

Tools Copyright (c) 1996-2014 Texas Instruments Incorporated
tasks.asm                                                            PAGE   14

     716                            .thumbfunc vTaskDelayUntil
     717 00000104                   .thumb
     718                            .global vTaskDelayUntil
     719                    
     720                    $C$DW$71        .dwtag  DW_TAG_subprogram, DW_AT_name("vTaskDelayUntil")
     721                            .dwattr $C$DW$71, DW_AT_low_pc(vTaskDelayUntil)
     722                            .dwattr $C$DW$71, DW_AT_high_pc(0x00)
     723                            .dwattr $C$DW$71, DW_AT_TI_symbol_name("vTaskDelayUntil")
     724                            .dwattr $C$DW$71, DW_AT_external
     725                            .dwattr $C$DW$71, DW_AT_TI_begin_file("../Source/tasks.c")
     726                            .dwattr $C$DW$71, DW_AT_TI_begin_line(0x309)
     727                            .dwattr $C$DW$71, DW_AT_TI_begin_column(0x07)
     728                            .dwattr $C$DW$71, DW_AT_decl_file("../Source/tasks.c")
     729                            .dwattr $C$DW$71, DW_AT_decl_line(0x309)
     730                            .dwattr $C$DW$71, DW_AT_decl_column(0x07)
     731                            .dwattr $C$DW$71, DW_AT_TI_max_frame_size(0x20)
     732                            .dwpsn  file "../Source/tasks.c",line 778,column 2,is_stmt,address vTaskDelayUntil,isa 1
     733                    
     734                            .dwfde $C$DW$CIE, vTaskDelayUntil
     735                    $C$DW$72        .dwtag  DW_TAG_formal_parameter, DW_AT_name("pxPreviousWakeTime")
     736                            .dwattr $C$DW$72, DW_AT_TI_symbol_name("pxPreviousWakeTime")
     737                            .dwattr $C$DW$72, DW_AT_type(*$C$DW$T$86)
     738                            .dwattr $C$DW$72, DW_AT_location[DW_OP_reg0]
     739                    $C$DW$73        .dwtag  DW_TAG_formal_parameter, DW_AT_name("xTimeIncrement")
     740                            .dwattr $C$DW$73, DW_AT_TI_symbol_name("xTimeIncrement")
     741                            .dwattr $C$DW$73, DW_AT_type(*$C$DW$T$87)
     742                            .dwattr $C$DW$73, DW_AT_location[DW_OP_reg1]
     743                    
     744                    ;*****************************************************************************
     745                    ;* FUNCTION NAME: vTaskDelayUntil                                            *
     746                    ;*                                                                           *
     747                    ;*   Regs Modified     : A1,A2,A3,A4,V9,SP,LR,SR,D0,D0_hi,D1,D1_hi,D2,D2_hi, *
     748                    ;*                           D3,D3_hi,D4,D4_hi,D5,D5_hi,D6,D6_hi,D7,D7_hi,   *
     749                    ;*                           FPEXC,FPSCR                                     *
     750                    ;*   Regs Used         : A1,A2,A3,A4,V9,SP,LR,SR,D0,D0_hi,D1,D1_hi,D2,D2_hi, *
     751                    ;*                           D3,D3_hi,D4,D4_hi,D5,D5_hi,D6,D6_hi,D7,D7_hi,   *
     752                    ;*                           FPEXC,FPSCR                                     *
     753                    ;*   Local Frame Size  : 0 Args + 24 Auto + 4 Save = 28 byte                 *
     754                    ;*****************************************************************************
     755 00000104           vTaskDelayUntil:
     756                    ;* --------------------------------------------------------------------------*
     757                            .dwcfi  cfa_offset, 0
     758 00000104 B500              PUSH      {LR}                  ; [DPU_3_PIPE]  ; [ORIG 16-BIT INS]
     759                            .dwcfi  cfa_offset, 4
     760                            .dwcfi  save_reg_to_mem, 14, -4
     761 00000106 0D1CF1AD          SUB       SP, SP, #28           ; [DPU_3_PIPE]  ; [KEEP 32-BIT INS]
     762                            .dwcfi  cfa_offset, 32
     763                    $C$DW$74        .dwtag  DW_TAG_variable, DW_AT_name("pxPreviousWakeTime")
     764                            .dwattr $C$DW$74, DW_AT_TI_symbol_name("pxPreviousWakeTime")
     765                            .dwattr $C$DW$74, DW_AT_type(*$C$DW$T$86)
     766                            .dwattr $C$DW$74, DW_AT_location[DW_OP_breg13 0]
     767                    $C$DW$75        .dwtag  DW_TAG_variable, DW_AT_name("xTimeIncrement")
     768                            .dwattr $C$DW$75, DW_AT_TI_symbol_name("xTimeIncrement")
     769                            .dwattr $C$DW$75, DW_AT_type(*$C$DW$T$87)
     770                            .dwattr $C$DW$75, DW_AT_location[DW_OP_breg13 4]
TI ARM Assembler PC v5.1.7 Tue Sep 16 08:38:42 2014

Tools Copyright (c) 1996-2014 Texas Instruments Incorporated
tasks.asm                                                            PAGE   15

     771                    $C$DW$76        .dwtag  DW_TAG_variable, DW_AT_name("xTimeToWake")
     772                            .dwattr $C$DW$76, DW_AT_TI_symbol_name("xTimeToWake")
     773                            .dwattr $C$DW$76, DW_AT_type(*$C$DW$T$36)
     774                            .dwattr $C$DW$76, DW_AT_location[DW_OP_breg13 8]
     775                    $C$DW$77        .dwtag  DW_TAG_variable, DW_AT_name("xAlreadyYielded")
     776                            .dwattr $C$DW$77, DW_AT_TI_symbol_name("xAlreadyYielded")
     777                            .dwattr $C$DW$77, DW_AT_type(*$C$DW$T$56)
     778                            .dwattr $C$DW$77, DW_AT_location[DW_OP_breg13 12]
     779                    $C$DW$78        .dwtag  DW_TAG_variable, DW_AT_name("xShouldDelay")
     780                            .dwattr $C$DW$78, DW_AT_TI_symbol_name("xShouldDelay")
     781                            .dwattr $C$DW$78, DW_AT_type(*$C$DW$T$56)
     782                            .dwattr $C$DW$78, DW_AT_location[DW_OP_breg13 16]
     783 0000010a 9101              STR       A2, [SP, #4]          ; [DPU_3_PIPE] |778|  ; [ORIG 16-BIT INS]
     784 0000010c 9000              STR       A1, [SP, #0]          ; [DPU_3_PIPE] |778|  ; [ORIG 16-BIT INS]
     785                            .dwpsn  file "../Source/tasks.c",line 780,column 43,is_stmt,isa 1
     786 0000010e 2000              MOVS      A1, #0                ; [DPU_3_PIPE] |780|  ; [ORIG 16-BIT INS]
     787 00000110 9004              STR       A1, [SP, #16]         ; [DPU_3_PIPE] |780|  ; [ORIG 16-BIT INS]
     788                            .dwpsn  file "../Source/tasks.c",line 786,column 3,is_stmt,isa 1
     789                    $C$DW$79        .dwtag  DW_TAG_TI_branch
     790                            .dwattr $C$DW$79, DW_AT_low_pc(0x00)
     791                            .dwattr $C$DW$79, DW_AT_name("vTaskSuspendAll")
     792                            .dwattr $C$DW$79, DW_AT_TI_call
     793 00000112 F889F000          BL        vTaskSuspendAll       ; [DPU_3_PIPE] |786|  ; [KEEP 32-BIT INS]
     794                            ; CALL OCCURS {vTaskSuspendAll }  ; [] |786| 
     795                    
     796                    $C$DW$80        .dwtag  DW_TAG_lexical_block, DW_AT_low_pc(0x00), DW_AT_high_pc(0x00)
     797                    $C$DW$81        .dwtag  DW_TAG_variable, DW_AT_name("xConstTickCount")
     798                            .dwattr $C$DW$81, DW_AT_TI_symbol_name("xConstTickCount")
     799                            .dwattr $C$DW$81, DW_AT_type(*$C$DW$T$87)
     800                            .dwattr $C$DW$81, DW_AT_location[DW_OP_breg13 20]
     801                            .dwpsn  file "../Source/tasks.c",line 790,column 37,is_stmt,isa 1
     802 00000116 489E              LDR       A1, $C$CON7           ; [DPU_3_PIPE] |790|  ; [ORIG 16-BIT INS]
     803 00000118 6800              LDR       A1, [A1, #0]          ; [DPU_3_PIPE] |790|  ; [ORIG 16-BIT INS]
     804 0000011a 9005              STR       A1, [SP, #20]         ; [DPU_3_PIPE] |790|  ; [ORIG 16-BIT INS]
     805                            .dwpsn  file "../Source/tasks.c",line 793,column 4,is_stmt,isa 1
     806 0000011c 9900              LDR       A2, [SP, #0]          ; [DPU_3_PIPE] |793|  ; [ORIG 16-BIT INS]
     807 0000011e 9801              LDR       A1, [SP, #4]          ; [DPU_3_PIPE] |793|  ; [ORIG 16-BIT INS]
     808 00000120 6809              LDR       A2, [A2, #0]          ; [DPU_3_PIPE] |793|  ; [ORIG 16-BIT INS]
     809 00000122 1840              ADDS      A1, A1, A2            ; [DPU_3_PIPE] |793|  ; [ORIG 16-BIT INS]
     810 00000124 9002              STR       A1, [SP, #8]          ; [DPU_3_PIPE] |793|  ; [ORIG 16-BIT INS]
     811                            .dwpsn  file "../Source/tasks.c",line 795,column 4,is_stmt,isa 1
     812 00000126 9800              LDR       A1, [SP, #0]          ; [DPU_3_PIPE] |795|  ; [ORIG 16-BIT INS]
     813 00000128 9905              LDR       A2, [SP, #20]         ; [DPU_3_PIPE] |795|  ; [ORIG 16-BIT INS]
     814 0000012a 6800              LDR       A1, [A1, #0]          ; [DPU_3_PIPE] |795|  ; [ORIG 16-BIT INS]
     815 0000012c 4288              CMP       A1, A2                ; [DPU_3_PIPE] |795|  ; [ORIG 16-BIT INS]
     816 0000012e D90B              BLS       ||$C$L8||             ; [DPU_3_PIPE] |795|  ; [ORIG 16-BIT INS]
     817                            ; BRANCHCC OCCURS {||$C$L8||}    ; [] |795| 
     818                    ;* --------------------------------------------------------------------------*
     819                            .dwpsn  file "../Source/tasks.c",line 802,column 5,is_stmt,isa 1
     820 00000130 9800              LDR       A1, [SP, #0]          ; [DPU_3_PIPE] |802|  ; [ORIG 16-BIT INS]
     821 00000132 9902              LDR       A2, [SP, #8]          ; [DPU_3_PIPE] |802|  ; [ORIG 16-BIT INS]
     822 00000134 6800              LDR       A1, [A1, #0]          ; [DPU_3_PIPE] |802|  ; [ORIG 16-BIT INS]
     823 00000136 4288              CMP       A1, A2                ; [DPU_3_PIPE] |802|  ; [ORIG 16-BIT INS]
     824 00000138 D911              BLS       ||$C$L10||            ; [DPU_3_PIPE] |802|  ; [ORIG 16-BIT INS]
     825                            ; BRANCHCC OCCURS {||$C$L10||}   ; [] |802| 
TI ARM Assembler PC v5.1.7 Tue Sep 16 08:38:42 2014

Tools Copyright (c) 1996-2014 Texas Instruments Incorporated
tasks.asm                                                            PAGE   16

     826                    ;* --------------------------------------------------------------------------*
     827 0000013a 9805              LDR       A1, [SP, #20]         ; [DPU_3_PIPE] |802|  ; [ORIG 16-BIT INS]
     828 0000013c 9902              LDR       A2, [SP, #8]          ; [DPU_3_PIPE] |802|  ; [ORIG 16-BIT INS]
     829 0000013e 4288              CMP       A1, A2                ; [DPU_3_PIPE] |802|  ; [ORIG 16-BIT INS]
     830 00000140 D20D              BCS       ||$C$L10||            ; [DPU_3_PIPE] |802|  ; [ORIG 16-BIT INS]
     831                            ; BRANCHCC OCCURS {||$C$L10||}   ; [] |802| 
     832                    ;* --------------------------------------------------------------------------*
     833                            .dwpsn  file "../Source/tasks.c",line 804,column 6,is_stmt,isa 1
     834 00000142 2001              MOVS      A1, #1                ; [DPU_3_PIPE] |804|  ; [ORIG 16-BIT INS]
     835 00000144 9004              STR       A1, [SP, #16]         ; [DPU_3_PIPE] |804|  ; [ORIG 16-BIT INS]
     836                            .dwpsn  file "../Source/tasks.c",line 805,column 5,is_stmt,isa 1
     837 00000146 E00A              B         ||$C$L10||            ; [DPU_3_PIPE] |805|  ; [ORIG 16-BIT INS]
     838                            ; BRANCH OCCURS {||$C$L10||}     ; [] |805| 
     839                    ;* --------------------------------------------------------------------------*
     840                    ;* --------------------------------------------------------------------------*
     841 00000148           ||$C$L8||:    
     842                            .dwpsn  file "../Source/tasks.c",line 816,column 5,is_stmt,isa 1
     843 00000148 9800              LDR       A1, [SP, #0]          ; [DPU_3_PIPE] |816|  ; [ORIG 16-BIT INS]
     844 0000014a 9902              LDR       A2, [SP, #8]          ; [DPU_3_PIPE] |816|  ; [ORIG 16-BIT INS]
     845 0000014c 6800              LDR       A1, [A1, #0]          ; [DPU_3_PIPE] |816|  ; [ORIG 16-BIT INS]
     846 0000014e 4288              CMP       A1, A2                ; [DPU_3_PIPE] |816|  ; [ORIG 16-BIT INS]
     847 00000150 D803              BHI       ||$C$L9||             ; [DPU_3_PIPE] |816|  ; [ORIG 16-BIT INS]
     848                            ; BRANCHCC OCCURS {||$C$L9||}    ; [] |816| 
     849                    ;* --------------------------------------------------------------------------*
     850 00000152 9805              LDR       A1, [SP, #20]         ; [DPU_3_PIPE] |816|  ; [ORIG 16-BIT INS]
     851 00000154 9902              LDR       A2, [SP, #8]          ; [DPU_3_PIPE] |816|  ; [ORIG 16-BIT INS]
     852 00000156 4288              CMP       A1, A2                ; [DPU_3_PIPE] |816|  ; [ORIG 16-BIT INS]
     853 00000158 D201              BCS       ||$C$L10||            ; [DPU_3_PIPE] |816|  ; [ORIG 16-BIT INS]
     854                            ; BRANCHCC OCCURS {||$C$L10||}   ; [] |816| 
     855                    ;* --------------------------------------------------------------------------*
     856 0000015a           ||$C$L9||:    
     857                            .dwpsn  file "../Source/tasks.c",line 818,column 6,is_stmt,isa 1
     858 0000015a 2001              MOVS      A1, #1                ; [DPU_3_PIPE] |818|  ; [ORIG 16-BIT INS]
     859 0000015c 9004              STR       A1, [SP, #16]         ; [DPU_3_PIPE] |818|  ; [ORIG 16-BIT INS]
     860                            .dwpsn  file "../Source/tasks.c",line 819,column 5,is_stmt,isa 1
     861                    ;* --------------------------------------------------------------------------*
     862 0000015e           ||$C$L10||:    
     863                            .dwpsn  file "../Source/tasks.c",line 827,column 4,is_stmt,isa 1
     864 0000015e 9802              LDR       A1, [SP, #8]          ; [DPU_3_PIPE] |827|  ; [ORIG 16-BIT INS]
     865 00000160 9900              LDR       A2, [SP, #0]          ; [DPU_3_PIPE] |827|  ; [ORIG 16-BIT INS]
     866 00000162 6008              STR       A1, [A2, #0]          ; [DPU_3_PIPE] |827|  ; [ORIG 16-BIT INS]
     867                            .dwpsn  file "../Source/tasks.c",line 829,column 4,is_stmt,isa 1
     868 00000164 9804              LDR       A1, [SP, #16]         ; [DPU_3_PIPE] |829|  ; [ORIG 16-BIT INS]
     869 00000166 B148              CBZ       A1, ||$C$L12||        ; []  ; [ORIG 16-BIT INS]
     870                            ; BRANCHCC OCCURS {||$C$L12||}   ; [] |829| 
     871                    ;* --------------------------------------------------------------------------*
     872                            .dwpsn  file "../Source/tasks.c",line 835,column 5,is_stmt,isa 1
     873 00000168 4863              LDR       A1, $C$CON2           ; [DPU_3_PIPE] |835|  ; [ORIG 16-BIT INS]
     874 0000016a 6800              LDR       A1, [A1, #0]          ; [DPU_3_PIPE] |835|  ; [ORIG 16-BIT INS]
     875 0000016c 1D00              ADDS      A1, A1, #4            ; [DPU_3_PIPE] |835|  ; [ORIG 16-BIT INS]
     876                    $C$DW$82        .dwtag  DW_TAG_TI_branch
     877                            .dwattr $C$DW$82, DW_AT_low_pc(0x00)
     878                            .dwattr $C$DW$82, DW_AT_name("uxListRemove")
     879                            .dwattr $C$DW$82, DW_AT_TI_call
     880 0000016e FFFEF7FF!         BL        uxListRemove          ; [DPU_3_PIPE] |835|  ; [KEEP 32-BIT INS]
TI ARM Assembler PC v5.1.7 Tue Sep 16 08:38:42 2014

Tools Copyright (c) 1996-2014 Texas Instruments Incorporated
tasks.asm                                                            PAGE   17

     881                            ; CALL OCCURS {uxListRemove }    ; [] |835| 
     882 00000172 2800              CMP       A1, #0                ; [DPU_3_PIPE] |835|  ; [ORIG 16-BIT INS]
     883 00000174 D0FF              BEQ       ||$C$L11||            ; [DPU_3_PIPE] |835|  ; [ORIG 16-BIT INS]
     884                            ; BRANCHCC OCCURS {||$C$L11||}   ; [] |835| 
     885                    ;* --------------------------------------------------------------------------*
     886                            .dwpsn  file "../Source/tasks.c",line 841,column 5,is_stmt,isa 1
     887                    ;* --------------------------------------------------------------------------*
     888 00000176           ||$C$L11||:    
     889                            .dwpsn  file "../Source/tasks.c",line 847,column 5,is_stmt,isa 1
     890 00000176 9802              LDR       A1, [SP, #8]          ; [DPU_3_PIPE] |847|  ; [ORIG 16-BIT INS]
     891                    $C$DW$83        .dwtag  DW_TAG_TI_branch
     892                            .dwattr $C$DW$83, DW_AT_low_pc(0x00)
     893                            .dwattr $C$DW$83, DW_AT_name("prvAddCurrentTaskToDelayedList")
     894                            .dwattr $C$DW$83, DW_AT_TI_call
     895 00000178 FB1EF000          BL        prvAddCurrentTaskToDelayedList ; [DPU_3_PIPE] |847|  ; [KEEP 32-BIT INS]
     896                            ; CALL OCCURS {prvAddCurrentTaskToDelayedList }  ; [] |847| 
     897                            .dwpsn  file "../Source/tasks.c",line 848,column 4,is_stmt,isa 1
     898                    ;* --------------------------------------------------------------------------*
     899                    ||$C$L12||:    
     900                            .dwendtag $C$DW$80
     901                    
     902                            .dwpsn  file "../Source/tasks.c",line 854,column 3,is_stmt,isa 1
     903                    $C$DW$84        .dwtag  DW_TAG_TI_branch
     904                            .dwattr $C$DW$84, DW_AT_low_pc(0x00)
     905                            .dwattr $C$DW$84, DW_AT_name("xTaskResumeAll")
     906                            .dwattr $C$DW$84, DW_AT_TI_call
     907 0000017c F859F000          BL        xTaskResumeAll        ; [DPU_3_PIPE] |854|  ; [KEEP 32-BIT INS]
     908                            ; CALL OCCURS {xTaskResumeAll }  ; [] |854| 
     909 00000180 9003              STR       A1, [SP, #12]         ; [DPU_3_PIPE] |854|  ; [ORIG 16-BIT INS]
     910                            .dwpsn  file "../Source/tasks.c",line 858,column 3,is_stmt,isa 1
     911 00000182 9803              LDR       A1, [SP, #12]         ; [DPU_3_PIPE] |858|  ; [ORIG 16-BIT INS]
     912 00000184 B910              CBNZ      A1, ||$C$L13||        ; []  ; [ORIG 16-BIT INS]
     913                            ; BRANCHCC OCCURS {||$C$L13||}   ; [] |858| 
     914                    ;* --------------------------------------------------------------------------*
     915                            .dwpsn  file "../Source/tasks.c",line 860,column 4,is_stmt,isa 1
     916                    $C$DW$85        .dwtag  DW_TAG_TI_branch
     917                            .dwattr $C$DW$85, DW_AT_low_pc(0x00)
     918                            .dwattr $C$DW$85, DW_AT_name("vPortYieldFromISR")
     919                            .dwattr $C$DW$85, DW_AT_TI_call
     920 00000186 FFFEF7FF!         BL        vPortYieldFromISR     ; [DPU_3_PIPE] |860|  ; [KEEP 32-BIT INS]
     921                            ; CALL OCCURS {vPortYieldFromISR }  ; [] |860| 
     922                            .dwpsn  file "../Source/tasks.c",line 861,column 3,is_stmt,isa 1
     923 0000018a E7FF              B         ||$C$L13||            ; [DPU_3_PIPE] |861|  ; [ORIG 16-BIT INS]
     924                            ; BRANCH OCCURS {||$C$L13||}     ; [] |861| 
     925                    ;* --------------------------------------------------------------------------*
     926                    ;* --------------------------------------------------------------------------*
     927 0000018c           ||$C$L13||:    
     928 0000018c B007              ADD       SP, SP, #28           ; [DPU_3_PIPE]  ; [ORIG 16-BIT INS]
     929                            .dwcfi  cfa_offset, 4
     930                    $C$DW$86        .dwtag  DW_TAG_TI_branch
     931                            .dwattr $C$DW$86, DW_AT_low_pc(0x00)
     932                            .dwattr $C$DW$86, DW_AT_TI_return
     933 0000018e BD00              POP       {PC}                  ; [DPU_3_PIPE]  ; [ORIG 16-BIT INS]
     934                            .dwcfi  cfa_offset, 0
     935                            ; BRANCH OCCURS                  ; [] 
TI ARM Assembler PC v5.1.7 Tue Sep 16 08:38:42 2014

Tools Copyright (c) 1996-2014 Texas Instruments Incorporated
tasks.asm                                                            PAGE   18

     936                            .dwattr $C$DW$71, DW_AT_TI_end_file("../Source/tasks.c")
     937                            .dwattr $C$DW$71, DW_AT_TI_end_line(0x362)
     938                            .dwattr $C$DW$71, DW_AT_TI_end_column(0x02)
     939                            .dwendentry
     940                            .dwendtag $C$DW$71
     941                    
     942 00000190                   .sect   ".text"
     943                            .clink
     944                            .thumbfunc vTaskDelay
     945 00000190                   .thumb
     946                            .global vTaskDelay
     947                    
     948                    $C$DW$87        .dwtag  DW_TAG_subprogram, DW_AT_name("vTaskDelay")
     949                            .dwattr $C$DW$87, DW_AT_low_pc(vTaskDelay)
     950                            .dwattr $C$DW$87, DW_AT_high_pc(0x00)
     951                            .dwattr $C$DW$87, DW_AT_TI_symbol_name("vTaskDelay")
     952                            .dwattr $C$DW$87, DW_AT_external
     953                            .dwattr $C$DW$87, DW_AT_TI_begin_file("../Source/tasks.c")
     954                            .dwattr $C$DW$87, DW_AT_TI_begin_line(0x369)
     955                            .dwattr $C$DW$87, DW_AT_TI_begin_column(0x07)
     956                            .dwattr $C$DW$87, DW_AT_decl_file("../Source/tasks.c")
     957                            .dwattr $C$DW$87, DW_AT_decl_line(0x369)
     958                            .dwattr $C$DW$87, DW_AT_decl_column(0x07)
     959                            .dwattr $C$DW$87, DW_AT_TI_max_frame_size(0x10)
     960                            .dwpsn  file "../Source/tasks.c",line 874,column 2,is_stmt,address vTaskDelay,isa 1
     961                    
     962                            .dwfde $C$DW$CIE, vTaskDelay
     963                    $C$DW$88        .dwtag  DW_TAG_formal_parameter, DW_AT_name("xTicksToDelay")
     964                            .dwattr $C$DW$88, DW_AT_TI_symbol_name("xTicksToDelay")
     965                            .dwattr $C$DW$88, DW_AT_type(*$C$DW$T$87)
     966                            .dwattr $C$DW$88, DW_AT_location[DW_OP_reg0]
     967                    
     968                    ;*****************************************************************************
     969                    ;* FUNCTION NAME: vTaskDelay                                                 *
     970                    ;*                                                                           *
     971                    ;*   Regs Modified     : A1,A2,A3,A4,V9,SP,LR,SR,D0,D0_hi,D1,D1_hi,D2,D2_hi, *
     972                    ;*                           D3,D3_hi,D4,D4_hi,D5,D5_hi,D6,D6_hi,D7,D7_hi,   *
     973                    ;*                           FPEXC,FPSCR                                     *
     974                    ;*   Regs Used         : A1,A2,A3,A4,V9,SP,LR,SR,D0,D0_hi,D1,D1_hi,D2,D2_hi, *
     975                    ;*                           D3,D3_hi,D4,D4_hi,D5,D5_hi,D6,D6_hi,D7,D7_hi,   *
     976                    ;*                           FPEXC,FPSCR                                     *
     977                    ;*   Local Frame Size  : 0 Args + 12 Auto + 4 Save = 16 byte                 *
     978                    ;*****************************************************************************
     979 00000190           vTaskDelay:
     980                    ;* --------------------------------------------------------------------------*
     981                            .dwcfi  cfa_offset, 0
     982 00000190 B50E              PUSH      {A2, A3, A4, LR}      ; [DPU_3_PIPE]  ; [ORIG 16-BIT INS]
     983                            .dwcfi  cfa_offset, 16
     984                            .dwcfi  save_reg_to_mem, 14, -4
     985                            .dwcfi  save_reg_to_mem, 3, -8
     986                            .dwcfi  save_reg_to_mem, 2, -12
     987                            .dwcfi  save_reg_to_mem, 1, -16
     988                    $C$DW$89        .dwtag  DW_TAG_variable, DW_AT_name("xTicksToDelay")
     989                            .dwattr $C$DW$89, DW_AT_TI_symbol_name("xTicksToDelay")
     990                            .dwattr $C$DW$89, DW_AT_type(*$C$DW$T$87)
TI ARM Assembler PC v5.1.7 Tue Sep 16 08:38:42 2014

Tools Copyright (c) 1996-2014 Texas Instruments Incorporated
tasks.asm                                                            PAGE   19

     991                            .dwattr $C$DW$89, DW_AT_location[DW_OP_breg13 0]
     992                    $C$DW$90        .dwtag  DW_TAG_variable, DW_AT_name("xTimeToWake")
     993                            .dwattr $C$DW$90, DW_AT_TI_symbol_name("xTimeToWake")
     994                            .dwattr $C$DW$90, DW_AT_type(*$C$DW$T$36)
     995                            .dwattr $C$DW$90, DW_AT_location[DW_OP_breg13 4]
     996                    $C$DW$91        .dwtag  DW_TAG_variable, DW_AT_name("xAlreadyYielded")
     997                            .dwattr $C$DW$91, DW_AT_TI_symbol_name("xAlreadyYielded")
     998                            .dwattr $C$DW$91, DW_AT_type(*$C$DW$T$56)
     999                            .dwattr $C$DW$91, DW_AT_location[DW_OP_breg13 8]
    1000 00000192 9000              STR       A1, [SP, #0]          ; [DPU_3_PIPE] |874|  ; [ORIG 16-BIT INS]
    1001                            .dwpsn  file "../Source/tasks.c",line 876,column 29,is_stmt,isa 1
    1002 00000194 2000              MOVS      A1, #0                ; [DPU_3_PIPE] |876|  ; [ORIG 16-BIT INS]
    1003 00000196 9002              STR       A1, [SP, #8]          ; [DPU_3_PIPE] |876|  ; [ORIG 16-BIT INS]
    1004                            .dwpsn  file "../Source/tasks.c",line 880,column 3,is_stmt,isa 1
    1005 00000198 9800              LDR       A1, [SP, #0]          ; [DPU_3_PIPE] |880|  ; [ORIG 16-BIT INS]
    1006 0000019a B198              CBZ       A1, ||$C$L15||        ; []  ; [ORIG 16-BIT INS]
    1007                            ; BRANCHCC OCCURS {||$C$L15||}   ; [] |880| 
    1008                    ;* --------------------------------------------------------------------------*
    1009                            .dwpsn  file "../Source/tasks.c",line 883,column 4,is_stmt,isa 1
    1010                    $C$DW$92        .dwtag  DW_TAG_TI_branch
    1011                            .dwattr $C$DW$92, DW_AT_low_pc(0x00)
    1012                            .dwattr $C$DW$92, DW_AT_name("vTaskSuspendAll")
    1013                            .dwattr $C$DW$92, DW_AT_TI_call
    1014 0000019c F844F000          BL        vTaskSuspendAll       ; [DPU_3_PIPE] |883|  ; [KEEP 32-BIT INS]
    1015                            ; CALL OCCURS {vTaskSuspendAll }  ; [] |883| 
    1016                            .dwpsn  file "../Source/tasks.c",line 897,column 5,is_stmt,isa 1
    1017 000001a0 497B              LDR       A2, $C$CON7           ; [DPU_3_PIPE] |897|  ; [ORIG 16-BIT INS]
    1018 000001a2 9800              LDR       A1, [SP, #0]          ; [DPU_3_PIPE] |897|  ; [ORIG 16-BIT INS]
    1019 000001a4 6809              LDR       A2, [A2, #0]          ; [DPU_3_PIPE] |897|  ; [ORIG 16-BIT INS]
    1020 000001a6 1840              ADDS      A1, A1, A2            ; [DPU_3_PIPE] |897|  ; [ORIG 16-BIT INS]
    1021 000001a8 9001              STR       A1, [SP, #4]          ; [DPU_3_PIPE] |897|  ; [ORIG 16-BIT INS]
    1022                            .dwpsn  file "../Source/tasks.c",line 902,column 5,is_stmt,isa 1
    1023 000001aa 4853              LDR       A1, $C$CON2           ; [DPU_3_PIPE] |902|  ; [ORIG 16-BIT INS]
    1024 000001ac 6800              LDR       A1, [A1, #0]          ; [DPU_3_PIPE] |902|  ; [ORIG 16-BIT INS]
    1025 000001ae 1D00              ADDS      A1, A1, #4            ; [DPU_3_PIPE] |902|  ; [ORIG 16-BIT INS]
    1026                    $C$DW$93        .dwtag  DW_TAG_TI_branch
    1027                            .dwattr $C$DW$93, DW_AT_low_pc(0x00)
    1028                            .dwattr $C$DW$93, DW_AT_name("uxListRemove")
    1029                            .dwattr $C$DW$93, DW_AT_TI_call
    1030 000001b0 FFFEF7FF!         BL        uxListRemove          ; [DPU_3_PIPE] |902|  ; [KEEP 32-BIT INS]
    1031                            ; CALL OCCURS {uxListRemove }    ; [] |902| 
    1032 000001b4 2800              CMP       A1, #0                ; [DPU_3_PIPE] |902|  ; [ORIG 16-BIT INS]
    1033 000001b6 D0FF              BEQ       ||$C$L14||            ; [DPU_3_PIPE] |902|  ; [ORIG 16-BIT INS]
    1034                            ; BRANCHCC OCCURS {||$C$L14||}   ; [] |902| 
    1035                    ;* --------------------------------------------------------------------------*
    1036                            .dwpsn  file "../Source/tasks.c",line 908,column 5,is_stmt,isa 1
    1037                    ;* --------------------------------------------------------------------------*
    1038 000001b8           ||$C$L14||:    
    1039                            .dwpsn  file "../Source/tasks.c",line 913,column 5,is_stmt,isa 1
    1040 000001b8 9801              LDR       A1, [SP, #4]          ; [DPU_3_PIPE] |913|  ; [ORIG 16-BIT INS]
    1041                    $C$DW$94        .dwtag  DW_TAG_TI_branch
    1042                            .dwattr $C$DW$94, DW_AT_low_pc(0x00)
    1043                            .dwattr $C$DW$94, DW_AT_name("prvAddCurrentTaskToDelayedList")
    1044                            .dwattr $C$DW$94, DW_AT_TI_call
    1045 000001ba FAFDF000          BL        prvAddCurrentTaskToDelayedList ; [DPU_3_PIPE] |913|  ; [KEEP 32-BIT INS]
TI ARM Assembler PC v5.1.7 Tue Sep 16 08:38:42 2014

Tools Copyright (c) 1996-2014 Texas Instruments Incorporated
tasks.asm                                                            PAGE   20

    1046                            ; CALL OCCURS {prvAddCurrentTaskToDelayedList }  ; [] |913| 
    1047                            .dwpsn  file "../Source/tasks.c",line 915,column 4,is_stmt,isa 1
    1048                    $C$DW$95        .dwtag  DW_TAG_TI_branch
    1049                            .dwattr $C$DW$95, DW_AT_low_pc(0x00)
    1050                            .dwattr $C$DW$95, DW_AT_name("xTaskResumeAll")
    1051                            .dwattr $C$DW$95, DW_AT_TI_call
    1052 000001be F838F000          BL        xTaskResumeAll        ; [DPU_3_PIPE] |915|  ; [KEEP 32-BIT INS]
    1053                            ; CALL OCCURS {xTaskResumeAll }  ; [] |915| 
    1054 000001c2 9002              STR       A1, [SP, #8]          ; [DPU_3_PIPE] |915|  ; [ORIG 16-BIT INS]
    1055                            .dwpsn  file "../Source/tasks.c",line 916,column 3,is_stmt,isa 1
    1056                    ;* --------------------------------------------------------------------------*
    1057 000001c4           ||$C$L15||:    
    1058                            .dwpsn  file "../Source/tasks.c",line 924,column 3,is_stmt,isa 1
    1059 000001c4 9802              LDR       A1, [SP, #8]          ; [DPU_3_PIPE] |924|  ; [ORIG 16-BIT INS]
    1060 000001c6 B910              CBNZ      A1, ||$C$L16||        ; []  ; [ORIG 16-BIT INS]
    1061                            ; BRANCHCC OCCURS {||$C$L16||}   ; [] |924| 
    1062                    ;* --------------------------------------------------------------------------*
    1063                            .dwpsn  file "../Source/tasks.c",line 926,column 4,is_stmt,isa 1
    1064                    $C$DW$96        .dwtag  DW_TAG_TI_branch
    1065                            .dwattr $C$DW$96, DW_AT_low_pc(0x00)
    1066                            .dwattr $C$DW$96, DW_AT_name("vPortYieldFromISR")
    1067                            .dwattr $C$DW$96, DW_AT_TI_call
    1068 000001c8 FFFEF7FF!         BL        vPortYieldFromISR     ; [DPU_3_PIPE] |926|  ; [KEEP 32-BIT INS]
    1069                            ; CALL OCCURS {vPortYieldFromISR }  ; [] |926| 
    1070                            .dwpsn  file "../Source/tasks.c",line 927,column 3,is_stmt,isa 1
    1071 000001cc E7FF              B         ||$C$L16||            ; [DPU_3_PIPE] |927|  ; [ORIG 16-BIT INS]
    1072                            ; BRANCH OCCURS {||$C$L16||}     ; [] |927| 
    1073                    ;* --------------------------------------------------------------------------*
    1074                    ;* --------------------------------------------------------------------------*
    1075                    ||$C$L16||:    
    1076                    $C$DW$97        .dwtag  DW_TAG_TI_branch
    1077                            .dwattr $C$DW$97, DW_AT_low_pc(0x00)
    1078                            .dwattr $C$DW$97, DW_AT_TI_return
    1079 000001ce BD0E              POP       {A2, A3, A4, PC}      ; [DPU_3_PIPE]  ; [ORIG 16-BIT INS]
    1080                            .dwcfi  cfa_offset, 0
    1081                            ; BRANCH OCCURS                  ; [] 
    1082                            .dwattr $C$DW$87, DW_AT_TI_end_file("../Source/tasks.c")
    1083                            .dwattr $C$DW$87, DW_AT_TI_end_line(0x3a4)
    1084                            .dwattr $C$DW$87, DW_AT_TI_end_column(0x02)
    1085                            .dwendentry
    1086                            .dwendtag $C$DW$87
    1087                    
    1088 000001d0                   .sect   ".text"
    1089                            .clink
    1090                            .thumbfunc vTaskStartScheduler
    1091 000001d0                   .thumb
    1092                            .global vTaskStartScheduler
    1093                    
    1094                    $C$DW$98        .dwtag  DW_TAG_subprogram, DW_AT_name("vTaskStartScheduler")
    1095                            .dwattr $C$DW$98, DW_AT_low_pc(vTaskStartScheduler)
    1096                            .dwattr $C$DW$98, DW_AT_high_pc(0x00)
    1097                            .dwattr $C$DW$98, DW_AT_TI_symbol_name("vTaskStartScheduler")
    1098                            .dwattr $C$DW$98, DW_AT_external
    1099                            .dwattr $C$DW$98, DW_AT_TI_begin_file("../Source/tasks.c")
    1100                            .dwattr $C$DW$98, DW_AT_TI_begin_line(0x5ae)
TI ARM Assembler PC v5.1.7 Tue Sep 16 08:38:42 2014

Tools Copyright (c) 1996-2014 Texas Instruments Incorporated
tasks.asm                                                            PAGE   21

    1101                            .dwattr $C$DW$98, DW_AT_TI_begin_column(0x06)
    1102                            .dwattr $C$DW$98, DW_AT_decl_file("../Source/tasks.c")
    1103                            .dwattr $C$DW$98, DW_AT_decl_line(0x5ae)
    1104                            .dwattr $C$DW$98, DW_AT_decl_column(0x06)
    1105                            .dwattr $C$DW$98, DW_AT_TI_max_frame_size(0x18)
    1106                            .dwpsn  file "../Source/tasks.c",line 1455,column 1,is_stmt,address vTaskStartScheduler,isa 1
    1107                    
    1108                            .dwfde $C$DW$CIE, vTaskStartScheduler
    1109                    
    1110                    ;*****************************************************************************
    1111                    ;* FUNCTION NAME: vTaskStartScheduler                                        *
    1112                    ;*                                                                           *
    1113                    ;*   Regs Modified     : A1,A2,A3,A4,V9,SP,LR,SR,D0,D0_hi,D1,D1_hi,D2,D2_hi, *
    1114                    ;*                           D3,D3_hi,D4,D4_hi,D5,D5_hi,D6,D6_hi,D7,D7_hi,   *
    1115                    ;*                           FPEXC,FPSCR                                     *
    1116                    ;*   Regs Used         : A1,A2,A3,A4,V9,SP,LR,SR,D0,D0_hi,D1,D1_hi,D2,D2_hi, *
    1117                    ;*                           D3,D3_hi,D4,D4_hi,D5,D5_hi,D6,D6_hi,D7,D7_hi,   *
    1118                    ;*                           FPEXC,FPSCR                                     *
    1119                    ;*   Local Frame Size  : 16 Args + 4 Auto + 4 Save = 24 byte                 *
    1120                    ;*****************************************************************************
    1121 000001d0           vTaskStartScheduler:
    1122                    ;* --------------------------------------------------------------------------*
    1123                            .dwcfi  cfa_offset, 0
    1124 000001d0 B500              PUSH      {LR}                  ; [DPU_3_PIPE]  ; [ORIG 16-BIT INS]
    1125                            .dwcfi  cfa_offset, 4
    1126                            .dwcfi  save_reg_to_mem, 14, -4
    1127 000001d2 0D14F1AD          SUB       SP, SP, #20           ; [DPU_3_PIPE]  ; [KEEP 32-BIT INS]
    1128                            .dwcfi  cfa_offset, 24
    1129                    $C$DW$99        .dwtag  DW_TAG_variable, DW_AT_name("xReturn")
    1130                            .dwattr $C$DW$99, DW_AT_TI_symbol_name("xReturn")
    1131                            .dwattr $C$DW$99, DW_AT_type(*$C$DW$T$56)
    1132                            .dwattr $C$DW$99, DW_AT_location[DW_OP_breg13 16]
    1133                            .dwpsn  file "../Source/tasks.c",line 1468,column 3,is_stmt,isa 1
    1134 000001d6 2000              MOVS      A1, #0                ; [DPU_3_PIPE] |1468|  ; [ORIG 16-BIT INS]
    1135 000001d8 9000              STR       A1, [SP, #0]          ; [DPU_3_PIPE] |1468|  ; [ORIG 16-BIT INS]
    1136 000001da 2000              MOVS      A1, #0                ; [DPU_3_PIPE] |1468|  ; [ORIG 16-BIT INS]
    1137 000001dc 9001              STR       A1, [SP, #4]          ; [DPU_3_PIPE] |1468|  ; [ORIG 16-BIT INS]
    1138 000001de 2000              MOVS      A1, #0                ; [DPU_3_PIPE] |1468|  ; [ORIG 16-BIT INS]
    1139 000001e0 9002              STR       A1, [SP, #8]          ; [DPU_3_PIPE] |1468|  ; [ORIG 16-BIT INS]
    1140 000001e2 2000              MOVS      A1, #0                ; [DPU_3_PIPE] |1468|  ; [ORIG 16-BIT INS]
    1141 000001e4 9003              STR       A1, [SP, #12]         ; [DPU_3_PIPE] |1468|  ; [ORIG 16-BIT INS]
    1142 000001e6 488F              LDR       A1, $C$CON8           ; [DPU_3_PIPE] |1468|  ; [ORIG 16-BIT INS]
    1143 000001e8 A18C              ADR       A2, $C$SL1            ; [DPU_3_PIPE] |1468|  ; [ORIG 16-BIT INS]
    1144 000001ea 2280              MOVS      A3, #128              ; [DPU_3_PIPE] |1468|  ; [ORIG 16-BIT INS]
    1145 000001ec 2300              MOVS      A4, #0                ; [DPU_3_PIPE] |1468|  ; [ORIG 16-BIT INS]
    1146                    $C$DW$100       .dwtag  DW_TAG_TI_branch
    1147                            .dwattr $C$DW$100, DW_AT_low_pc(0x00)
    1148                            .dwattr $C$DW$100, DW_AT_name("xTaskGenericCreate")
    1149                            .dwattr $C$DW$100, DW_AT_TI_call
    1150 000001ee FF07F7FF          BL        xTaskGenericCreate    ; [DPU_3_PIPE] |1468|  ; [KEEP 32-BIT INS]
    1151                            ; CALL OCCURS {xTaskGenericCreate }  ; [] |1468| 
    1152 000001f2 9004              STR       A1, [SP, #16]         ; [DPU_3_PIPE] |1468|  ; [ORIG 16-BIT INS]
    1153                            .dwpsn  file "../Source/tasks.c",line 1485,column 2,is_stmt,isa 1
    1154 000001f4 9804              LDR       A1, [SP, #16]         ; [DPU_3_PIPE] |1485|  ; [ORIG 16-BIT INS]
    1155 000001f6 2801              CMP       A1, #1                ; [DPU_3_PIPE] |1485|  ; [ORIG 16-BIT INS]
TI ARM Assembler PC v5.1.7 Tue Sep 16 08:38:42 2014

Tools Copyright (c) 1996-2014 Texas Instruments Incorporated
tasks.asm                                                            PAGE   22

    1156 000001f8 D10B              BNE       ||$C$L17||            ; [DPU_3_PIPE] |1485|  ; [ORIG 16-BIT INS]
    1157                            ; BRANCHCC OCCURS {||$C$L17||}   ; [] |1485| 
    1158                    ;* --------------------------------------------------------------------------*
    1159                            .dwpsn  file "../Source/tasks.c",line 1492,column 3,is_stmt,isa 1
    1160                    $C$DW$101       .dwtag  DW_TAG_TI_branch
    1161                            .dwattr $C$DW$101, DW_AT_low_pc(0x00)
    1162                            .dwattr $C$DW$101, DW_AT_name("ulPortSetInterruptMask")
    1163                            .dwattr $C$DW$101, DW_AT_TI_call
    1164 000001fa FFFEF7FF!         BL        ulPortSetInterruptMask ; [DPU_3_PIPE] |1492|  ; [KEEP 32-BIT INS]
    1165                            ; CALL OCCURS {ulPortSetInterruptMask }  ; [] |1492| 
    1166                            .dwpsn  file "../Source/tasks.c",line 1502,column 3,is_stmt,isa 1
    1167 000001fe 4944              LDR       A2, $C$CON3           ; [DPU_3_PIPE] |1502|  ; [ORIG 16-BIT INS]
    1168 00000200 2001              MOVS      A1, #1                ; [DPU_3_PIPE] |1502|  ; [ORIG 16-BIT INS]
    1169 00000202 6008              STR       A1, [A2, #0]          ; [DPU_3_PIPE] |1502|  ; [ORIG 16-BIT INS]
    1170                            .dwpsn  file "../Source/tasks.c",line 1503,column 3,is_stmt,isa 1
    1171 00000204 4962              LDR       A2, $C$CON7           ; [DPU_3_PIPE] |1503|  ; [ORIG 16-BIT INS]
    1172 00000206 2000              MOVS      A1, #0                ; [DPU_3_PIPE] |1503|  ; [ORIG 16-BIT INS]
    1173 00000208 6008              STR       A1, [A2, #0]          ; [DPU_3_PIPE] |1503|  ; [ORIG 16-BIT INS]
    1174                            .dwpsn  file "../Source/tasks.c",line 1512,column 3,is_stmt,isa 1
    1175                    $C$DW$102       .dwtag  DW_TAG_TI_branch
    1176                            .dwattr $C$DW$102, DW_AT_low_pc(0x00)
    1177                            .dwattr $C$DW$102, DW_AT_name("xPortStartScheduler")
    1178                            .dwattr $C$DW$102, DW_AT_TI_call
    1179 0000020a FFFEF7FF!         BL        xPortStartScheduler   ; [DPU_3_PIPE] |1512|  ; [KEEP 32-BIT INS]
    1180                            ; CALL OCCURS {xPortStartScheduler }  ; [] |1512| 
    1181 0000020e B900              CBNZ      A1, ||$C$L17||        ; []  ; [ORIG 16-BIT INS]
    1182                            ; BRANCHCC OCCURS {||$C$L17||}   ; [] |1512| 
    1183                    ;* --------------------------------------------------------------------------*
    1184                            .dwpsn  file "../Source/tasks.c",line 1516,column 3,is_stmt,isa 1
    1185                            .dwpsn  file "../Source/tasks.c",line 1521,column 2,is_stmt,isa 1
    1186 00000210 E7FF              B         ||$C$L17||            ; [DPU_3_PIPE] |1521|  ; [ORIG 16-BIT INS]
    1187                            ; BRANCH OCCURS {||$C$L17||}     ; [] |1521| 
    1188                    ;* --------------------------------------------------------------------------*
    1189                    ;* --------------------------------------------------------------------------*
    1190 00000212           ||$C$L17||:    
    1191 00000212 B005              ADD       SP, SP, #20           ; [DPU_3_PIPE]  ; [ORIG 16-BIT INS]
    1192                            .dwcfi  cfa_offset, 4
    1193                    $C$DW$103       .dwtag  DW_TAG_TI_branch
    1194                            .dwattr $C$DW$103, DW_AT_low_pc(0x00)
    1195                            .dwattr $C$DW$103, DW_AT_TI_return
    1196 00000214 BD00              POP       {PC}                  ; [DPU_3_PIPE]  ; [ORIG 16-BIT INS]
    1197                            .dwcfi  cfa_offset, 0
    1198                            ; BRANCH OCCURS                  ; [] 
    1199                            .dwattr $C$DW$98, DW_AT_TI_end_file("../Source/tasks.c")
    1200                            .dwattr $C$DW$98, DW_AT_TI_end_line(0x5f9)
    1201                            .dwattr $C$DW$98, DW_AT_TI_end_column(0x01)
    1202                            .dwendentry
    1203                            .dwendtag $C$DW$98
    1204                    
    1205 00000216                   .sect   ".text"
    1206                            .clink
    1207                            .thumbfunc vTaskEndScheduler
    1208 00000216                   .thumb
    1209                            .global vTaskEndScheduler
    1210                    
TI ARM Assembler PC v5.1.7 Tue Sep 16 08:38:42 2014

Tools Copyright (c) 1996-2014 Texas Instruments Incorporated
tasks.asm                                                            PAGE   23

    1211                    $C$DW$104       .dwtag  DW_TAG_subprogram, DW_AT_name("vTaskEndScheduler")
    1212                            .dwattr $C$DW$104, DW_AT_low_pc(vTaskEndScheduler)
    1213                            .dwattr $C$DW$104, DW_AT_high_pc(0x00)
    1214                            .dwattr $C$DW$104, DW_AT_TI_symbol_name("vTaskEndScheduler")
    1215                            .dwattr $C$DW$104, DW_AT_external
    1216                            .dwattr $C$DW$104, DW_AT_TI_begin_file("../Source/tasks.c")
    1217                            .dwattr $C$DW$104, DW_AT_TI_begin_line(0x5fc)
    1218                            .dwattr $C$DW$104, DW_AT_TI_begin_column(0x06)
    1219                            .dwattr $C$DW$104, DW_AT_decl_file("../Source/tasks.c")
    1220                            .dwattr $C$DW$104, DW_AT_decl_line(0x5fc)
    1221                            .dwattr $C$DW$104, DW_AT_decl_column(0x06)
    1222                            .dwattr $C$DW$104, DW_AT_TI_max_frame_size(0x08)
    1223                            .dwpsn  file "../Source/tasks.c",line 1533,column 1,is_stmt,address vTaskEndScheduler,isa 1
    1224                    
    1225                            .dwfde $C$DW$CIE, vTaskEndScheduler
    1226                    
    1227                    ;*****************************************************************************
    1228                    ;* FUNCTION NAME: vTaskEndScheduler                                          *
    1229                    ;*                                                                           *
    1230                    ;*   Regs Modified     : A1,A2,A3,A4,V9,SP,LR,SR,D0,D0_hi,D1,D1_hi,D2,D2_hi, *
    1231                    ;*                           D3,D3_hi,D4,D4_hi,D5,D5_hi,D6,D6_hi,D7,D7_hi,   *
    1232                    ;*                           FPEXC,FPSCR                                     *
    1233                    ;*   Regs Used         : A1,A2,A3,A4,V9,SP,LR,SR,D0,D0_hi,D1,D1_hi,D2,D2_hi, *
    1234                    ;*                           D3,D3_hi,D4,D4_hi,D5,D5_hi,D6,D6_hi,D7,D7_hi,   *
    1235                    ;*                           FPEXC,FPSCR                                     *
    1236                    ;*   Local Frame Size  : 0 Args + 0 Auto + 4 Save = 4 byte                   *
    1237                    ;*****************************************************************************
    1238 00000216           vTaskEndScheduler:
    1239                    ;* --------------------------------------------------------------------------*
    1240                            .dwcfi  cfa_offset, 0
    1241 00000216 B508              PUSH      {A4, LR}              ; [DPU_3_PIPE]  ; [ORIG 16-BIT INS]
    1242                            .dwcfi  cfa_offset, 8
    1243                            .dwcfi  save_reg_to_mem, 14, -4
    1244                            .dwcfi  save_reg_to_mem, 3, -8
    1245                            .dwpsn  file "../Source/tasks.c",line 1537,column 2,is_stmt,isa 1
    1246                    $C$DW$105       .dwtag  DW_TAG_TI_branch
    1247                            .dwattr $C$DW$105, DW_AT_low_pc(0x00)
    1248                            .dwattr $C$DW$105, DW_AT_name("ulPortSetInterruptMask")
    1249                            .dwattr $C$DW$105, DW_AT_TI_call
    1250 00000218 FFFEF7FF!         BL        ulPortSetInterruptMask ; [DPU_3_PIPE] |1537|  ; [KEEP 32-BIT INS]
    1251                            ; CALL OCCURS {ulPortSetInterruptMask }  ; [] |1537| 
    1252                            .dwpsn  file "../Source/tasks.c",line 1538,column 2,is_stmt,isa 1
    1253 0000021c 493C              LDR       A2, $C$CON3           ; [DPU_3_PIPE] |1538|  ; [ORIG 16-BIT INS]
    1254 0000021e 2000              MOVS      A1, #0                ; [DPU_3_PIPE] |1538|  ; [ORIG 16-BIT INS]
    1255 00000220 6008              STR       A1, [A2, #0]          ; [DPU_3_PIPE] |1538|  ; [ORIG 16-BIT INS]
    1256                            .dwpsn  file "../Source/tasks.c",line 1539,column 2,is_stmt,isa 1
    1257                    $C$DW$106       .dwtag  DW_TAG_TI_branch
    1258                            .dwattr $C$DW$106, DW_AT_low_pc(0x00)
    1259                            .dwattr $C$DW$106, DW_AT_name("vPortEndScheduler")
    1260                            .dwattr $C$DW$106, DW_AT_TI_call
    1261 00000222 FFFEF7FF!         BL        vPortEndScheduler     ; [DPU_3_PIPE] |1539|  ; [KEEP 32-BIT INS]
    1262                            ; CALL OCCURS {vPortEndScheduler }  ; [] |1539| 
    1263                            .dwpsn  file "../Source/tasks.c",line 1540,column 1,is_stmt,isa 1
    1264                    $C$DW$107       .dwtag  DW_TAG_TI_branch
    1265                            .dwattr $C$DW$107, DW_AT_low_pc(0x00)
TI ARM Assembler PC v5.1.7 Tue Sep 16 08:38:42 2014

Tools Copyright (c) 1996-2014 Texas Instruments Incorporated
tasks.asm                                                            PAGE   24

    1266                            .dwattr $C$DW$107, DW_AT_TI_return
    1267 00000226 BD08              POP       {A4, PC}              ; [DPU_3_PIPE]  ; [ORIG 16-BIT INS]
    1268                            .dwcfi  cfa_offset, 0
    1269                            ; BRANCH OCCURS                  ; [] 
    1270                            .dwattr $C$DW$104, DW_AT_TI_end_file("../Source/tasks.c")
    1271                            .dwattr $C$DW$104, DW_AT_TI_end_line(0x604)
    1272                            .dwattr $C$DW$104, DW_AT_TI_end_column(0x01)
    1273                            .dwendentry
    1274                            .dwendtag $C$DW$104
    1275                    
    1276 00000228                   .sect   ".text"
    1277                            .clink
    1278                            .thumbfunc vTaskSuspendAll
    1279 00000228                   .thumb
    1280                            .global vTaskSuspendAll
    1281                    
    1282                    $C$DW$108       .dwtag  DW_TAG_subprogram, DW_AT_name("vTaskSuspendAll")
    1283                            .dwattr $C$DW$108, DW_AT_low_pc(vTaskSuspendAll)
    1284                            .dwattr $C$DW$108, DW_AT_high_pc(0x00)
    1285                            .dwattr $C$DW$108, DW_AT_TI_symbol_name("vTaskSuspendAll")
    1286                            .dwattr $C$DW$108, DW_AT_external
    1287                            .dwattr $C$DW$108, DW_AT_TI_begin_file("../Source/tasks.c")
    1288                            .dwattr $C$DW$108, DW_AT_TI_begin_line(0x607)
    1289                            .dwattr $C$DW$108, DW_AT_TI_begin_column(0x06)
    1290                            .dwattr $C$DW$108, DW_AT_decl_file("../Source/tasks.c")
    1291                            .dwattr $C$DW$108, DW_AT_decl_line(0x607)
    1292                            .dwattr $C$DW$108, DW_AT_decl_column(0x06)
    1293                            .dwattr $C$DW$108, DW_AT_TI_max_frame_size(0x00)
    1294                            .dwpsn  file "../Source/tasks.c",line 1544,column 1,is_stmt,address vTaskSuspendAll,isa 1
    1295                    
    1296                            .dwfde $C$DW$CIE, vTaskSuspendAll
    1297                    
    1298                    ;*****************************************************************************
    1299                    ;* FUNCTION NAME: vTaskSuspendAll                                            *
    1300                    ;*                                                                           *
    1301                    ;*   Regs Modified     : A1,A2,SR                                            *
    1302                    ;*   Regs Used         : A1,A2,LR,SR                                         *
    1303                    ;*   Local Frame Size  : 0 Args + 0 Auto + 0 Save = 0 byte                   *
    1304                    ;*****************************************************************************
    1305 00000228           vTaskSuspendAll:
    1306                    ;* --------------------------------------------------------------------------*
    1307                            .dwcfi  cfa_offset, 0
    1308                            .dwpsn  file "../Source/tasks.c",line 1549,column 2,is_stmt,isa 1
    1309 00000228 499D              LDR       A2, $C$CON9           ; [DPU_3_PIPE] |1549|  ; [ORIG 16-BIT INS]
    1310 0000022a 6808              LDR       A1, [A2, #0]          ; [DPU_3_PIPE] |1549|  ; [ORIG 16-BIT INS]
    1311 0000022c 1C40              ADDS      A1, A1, #1            ; [DPU_3_PIPE] |1549|  ; [ORIG 16-BIT INS]
    1312 0000022e 6008              STR       A1, [A2, #0]          ; [DPU_3_PIPE] |1549|  ; [ORIG 16-BIT INS]
    1313                            .dwpsn  file "../Source/tasks.c",line 1550,column 1,is_stmt,isa 1
    1314                    $C$DW$109       .dwtag  DW_TAG_TI_branch
    1315                            .dwattr $C$DW$109, DW_AT_low_pc(0x00)
    1316                            .dwattr $C$DW$109, DW_AT_TI_return
    1317 00000230 4770              BX        LR                    ; [DPU_3_PIPE]  ; [ORIG 16-BIT INS]
    1318                            ; BRANCH OCCURS                  ; [] 
    1319                            .dwattr $C$DW$108, DW_AT_TI_end_file("../Source/tasks.c")
    1320                            .dwattr $C$DW$108, DW_AT_TI_end_line(0x60e)
TI ARM Assembler PC v5.1.7 Tue Sep 16 08:38:42 2014

Tools Copyright (c) 1996-2014 Texas Instruments Incorporated
tasks.asm                                                            PAGE   25

    1321                            .dwattr $C$DW$108, DW_AT_TI_end_column(0x01)
    1322                            .dwendentry
    1323                            .dwendtag $C$DW$108
    1324                    
    1325 00000232                   .sect   ".text"
    1326                            .clink
    1327                            .thumbfunc xTaskResumeAll
    1328 00000232                   .thumb
    1329                            .global xTaskResumeAll
    1330                    
    1331                    $C$DW$110       .dwtag  DW_TAG_subprogram, DW_AT_name("xTaskResumeAll")
    1332                            .dwattr $C$DW$110, DW_AT_low_pc(xTaskResumeAll)
    1333                            .dwattr $C$DW$110, DW_AT_high_pc(0x00)
    1334                            .dwattr $C$DW$110, DW_AT_TI_symbol_name("xTaskResumeAll")
    1335                            .dwattr $C$DW$110, DW_AT_external
    1336                            .dwattr $C$DW$110, DW_AT_type(*$C$DW$T$56)
    1337                            .dwattr $C$DW$110, DW_AT_TI_begin_file("../Source/tasks.c")
    1338                            .dwattr $C$DW$110, DW_AT_TI_begin_line(0x62d)
    1339                            .dwattr $C$DW$110, DW_AT_TI_begin_column(0x0c)
    1340                            .dwattr $C$DW$110, DW_AT_decl_file("../Source/tasks.c")
    1341                            .dwattr $C$DW$110, DW_AT_decl_line(0x62d)
    1342                            .dwattr $C$DW$110, DW_AT_decl_column(0x0c)
    1343                            .dwattr $C$DW$110, DW_AT_TI_max_frame_size(0x10)
    1344                            .dwpsn  file "../Source/tasks.c",line 1582,column 1,is_stmt,address xTaskResumeAll,isa 1
    1345                    
    1346                            .dwfde $C$DW$CIE, xTaskResumeAll
    1347                    
    1348                    ;*****************************************************************************
    1349                    ;* FUNCTION NAME: xTaskResumeAll                                             *
    1350                    ;*                                                                           *
    1351                    ;*   Regs Modified     : A1,A2,A3,A4,V9,SP,LR,SR,D0,D0_hi,D1,D1_hi,D2,D2_hi, *
    1352                    ;*                           D3,D3_hi,D4,D4_hi,D5,D5_hi,D6,D6_hi,D7,D7_hi,   *
    1353                    ;*                           FPEXC,FPSCR                                     *
    1354                    ;*   Regs Used         : A1,A2,A3,A4,V9,SP,LR,SR,D0,D0_hi,D1,D1_hi,D2,D2_hi, *
    1355                    ;*                           D3,D3_hi,D4,D4_hi,D5,D5_hi,D6,D6_hi,D7,D7_hi,   *
    1356                    ;*                           FPEXC,FPSCR                                     *
    1357                    ;*   Local Frame Size  : 0 Args + 8 Auto + 4 Save = 12 byte                  *
    1358                    ;*****************************************************************************
    1359 00000232           xTaskResumeAll:
    1360                    ;* --------------------------------------------------------------------------*
    1361                            .dwcfi  cfa_offset, 0
    1362 00000232 B50E              PUSH      {A2, A3, A4, LR}      ; [DPU_3_PIPE]  ; [ORIG 16-BIT INS]
    1363                            .dwcfi  cfa_offset, 16
    1364                            .dwcfi  save_reg_to_mem, 14, -4
    1365                            .dwcfi  save_reg_to_mem, 3, -8
    1366                            .dwcfi  save_reg_to_mem, 2, -12
    1367                            .dwcfi  save_reg_to_mem, 1, -16
    1368                    $C$DW$111       .dwtag  DW_TAG_variable, DW_AT_name("pxTCB")
    1369                            .dwattr $C$DW$111, DW_AT_TI_symbol_name("pxTCB")
    1370                            .dwattr $C$DW$111, DW_AT_type(*$C$DW$T$100)
    1371                            .dwattr $C$DW$111, DW_AT_location[DW_OP_breg13 0]
    1372                    $C$DW$112       .dwtag  DW_TAG_variable, DW_AT_name("xAlreadyYielded")
    1373                            .dwattr $C$DW$112, DW_AT_TI_symbol_name("xAlreadyYielded")
    1374                            .dwattr $C$DW$112, DW_AT_type(*$C$DW$T$56)
    1375                            .dwattr $C$DW$112, DW_AT_location[DW_OP_breg13 4]
TI ARM Assembler PC v5.1.7 Tue Sep 16 08:38:42 2014

Tools Copyright (c) 1996-2014 Texas Instruments Incorporated
tasks.asm                                                            PAGE   26

    1376                            .dwpsn  file "../Source/tasks.c",line 1584,column 28,is_stmt,isa 1
    1377 00000234 2000              MOVS      A1, #0                ; [DPU_3_PIPE] |1584|  ; [ORIG 16-BIT INS]
    1378 00000236 9001              STR       A1, [SP, #4]          ; [DPU_3_PIPE] |1584|  ; [ORIG 16-BIT INS]
    1379                            .dwpsn  file "../Source/tasks.c",line 1595,column 2,is_stmt,isa 1
    1380                    $C$DW$113       .dwtag  DW_TAG_TI_branch
    1381                            .dwattr $C$DW$113, DW_AT_low_pc(0x00)
    1382                            .dwattr $C$DW$113, DW_AT_name("vPortEnterCritical")
    1383                            .dwattr $C$DW$113, DW_AT_TI_call
    1384 00000238 FFFEF7FF!         BL        vPortEnterCritical    ; [DPU_3_PIPE] |1595|  ; [KEEP 32-BIT INS]
    1385                            ; CALL OCCURS {vPortEnterCritical }  ; [] |1595| 
    1386                            .dwpsn  file "../Source/tasks.c",line 1597,column 3,is_stmt,isa 1
    1387 0000023c 4998              LDR       A2, $C$CON9           ; [DPU_3_PIPE] |1597|  ; [ORIG 16-BIT INS]
    1388 0000023e 6808              LDR       A1, [A2, #0]          ; [DPU_3_PIPE] |1597|  ; [ORIG 16-BIT INS]
    1389 00000240 1E40              SUBS      A1, A1, #1            ; [DPU_3_PIPE] |1597|  ; [ORIG 16-BIT INS]
    1390 00000242 6008              STR       A1, [A2, #0]          ; [DPU_3_PIPE] |1597|  ; [ORIG 16-BIT INS]
    1391                            .dwpsn  file "../Source/tasks.c",line 1599,column 3,is_stmt,isa 1
    1392 00000244 4896              LDR       A1, $C$CON9           ; [DPU_3_PIPE] |1599|  ; [ORIG 16-BIT INS]
    1393 00000246 6800              LDR       A1, [A1, #0]          ; [DPU_3_PIPE] |1599|  ; [ORIG 16-BIT INS]
    1394 00000248 2800              CMP       A1, #0                ; [DPU_3_PIPE] |1599|  ; [ORIG 16-BIT INS]
    1395 0000024a D14E              BNE       ||$C$L25||            ; [DPU_3_PIPE] |1599|  ; [ORIG 16-BIT INS]
    1396                            ; BRANCHCC OCCURS {||$C$L25||}   ; [] |1599| 
    1397                    ;* --------------------------------------------------------------------------*
    1398                            .dwpsn  file "../Source/tasks.c",line 1601,column 4,is_stmt,isa 1
    1399 0000024c 4829              LDR       A1, $C$CON1           ; [DPU_3_PIPE] |1601|  ; [ORIG 16-BIT INS]
    1400 0000024e 6800              LDR       A1, [A1, #0]          ; [DPU_3_PIPE] |1601|  ; [ORIG 16-BIT INS]
    1401 00000250 2800              CMP       A1, #0                ; [DPU_3_PIPE] |1601|  ; [ORIG 16-BIT INS]
    1402 00000252 D04A              BEQ       ||$C$L25||            ; [DPU_3_PIPE] |1601|  ; [ORIG 16-BIT INS]
    1403                            ; BRANCHCC OCCURS {||$C$L25||}   ; [] |1601| 
    1404                    ;* --------------------------------------------------------------------------*
    1405                            .dwpsn  file "../Source/tasks.c",line 1605,column 5,is_stmt,isa 1
    1406 00000254 E02A              B         ||$C$L20||            ; [DPU_3_PIPE] |1605|  ; [ORIG 16-BIT INS]
    1407                            ; BRANCH OCCURS {||$C$L20||}     ; [] |1605| 
    1408                    ;* --------------------------------------------------------------------------*
    1409 00000256           ||$C$L18||:    
    1410                            .dwpsn  file "../Source/tasks.c",line 1607,column 6,is_stmt,isa 1
    1411 00000256 48A0              LDR       A1, $C$CON10          ; [DPU_3_PIPE] |1607|  ; [ORIG 16-BIT INS]
    1412 00000258 6800              LDR       A1, [A1, #0]          ; [DPU_3_PIPE] |1607|  ; [ORIG 16-BIT INS]
    1413 0000025a 68C0              LDR       A1, [A1, #12]         ; [DPU_3_PIPE] |1607|  ; [ORIG 16-BIT INS]
    1414 0000025c 9000              STR       A1, [SP, #0]          ; [DPU_3_PIPE] |1607|  ; [ORIG 16-BIT INS]
    1415                            .dwpsn  file "../Source/tasks.c",line 1608,column 6,is_stmt,isa 1
    1416 0000025e 9800              LDR       A1, [SP, #0]          ; [DPU_3_PIPE] |1608|  ; [ORIG 16-BIT INS]
    1417 00000260 3018              ADDS      A1, A1, #24           ; [DPU_3_PIPE] |1608|  ; [ORIG 16-BIT INS]
    1418                    $C$DW$114       .dwtag  DW_TAG_TI_branch
    1419                            .dwattr $C$DW$114, DW_AT_low_pc(0x00)
    1420                            .dwattr $C$DW$114, DW_AT_name("uxListRemove")
    1421                            .dwattr $C$DW$114, DW_AT_TI_call
    1422 00000262 FFFEF7FF!         BL        uxListRemove          ; [DPU_3_PIPE] |1608|  ; [KEEP 32-BIT INS]
    1423                            ; CALL OCCURS {uxListRemove }    ; [] |1608| 
    1424                            .dwpsn  file "../Source/tasks.c",line 1609,column 6,is_stmt,isa 1
    1425 00000266 9800              LDR       A1, [SP, #0]          ; [DPU_3_PIPE] |1609|  ; [ORIG 16-BIT INS]
    1426 00000268 1D00              ADDS      A1, A1, #4            ; [DPU_3_PIPE] |1609|  ; [ORIG 16-BIT INS]
    1427                    $C$DW$115       .dwtag  DW_TAG_TI_branch
    1428                            .dwattr $C$DW$115, DW_AT_low_pc(0x00)
    1429                            .dwattr $C$DW$115, DW_AT_name("uxListRemove")
    1430                            .dwattr $C$DW$115, DW_AT_TI_call
TI ARM Assembler PC v5.1.7 Tue Sep 16 08:38:42 2014

Tools Copyright (c) 1996-2014 Texas Instruments Incorporated
tasks.asm                                                            PAGE   27

    1431 0000026a FFFEF7FF!         BL        uxListRemove          ; [DPU_3_PIPE] |1609|  ; [KEEP 32-BIT INS]
    1432                            ; CALL OCCURS {uxListRemove }    ; [] |1609| 
    1433                            .dwpsn  file "../Source/tasks.c",line 1610,column 6,is_stmt,isa 1
    1434 0000026e 4832              LDR       A1, $C$CON5           ; [DPU_3_PIPE] |1610|  ; [ORIG 16-BIT INS]
    1435 00000270 9900              LDR       A2, [SP, #0]          ; [DPU_3_PIPE] |1610|  ; [ORIG 16-BIT INS]
    1436 00000272 6800              LDR       A1, [A1, #0]          ; [DPU_3_PIPE] |1610|  ; [ORIG 16-BIT INS]
    1437 00000274 6AC9              LDR       A2, [A2, #44]         ; [DPU_3_PIPE] |1610|  ; [ORIG 16-BIT INS]
    1438 00000276 4288              CMP       A1, A2                ; [DPU_3_PIPE] |1610|  ; [ORIG 16-BIT INS]
    1439 00000278 D203              BCS       ||$C$L19||            ; [DPU_3_PIPE] |1610|  ; [ORIG 16-BIT INS]
    1440                            ; BRANCHCC OCCURS {||$C$L19||}   ; [] |1610| 
    1441                    ;* --------------------------------------------------------------------------*
    1442 0000027a 9800              LDR       A1, [SP, #0]          ; [DPU_3_PIPE] |1610|  ; [ORIG 16-BIT INS]
    1443 0000027c 492E              LDR       A2, $C$CON5           ; [DPU_3_PIPE] |1610|  ; [ORIG 16-BIT INS]
    1444 0000027e 6AC0              LDR       A1, [A1, #44]         ; [DPU_3_PIPE] |1610|  ; [ORIG 16-BIT INS]
    1445 00000280 6008              STR       A1, [A2, #0]          ; [DPU_3_PIPE] |1610|  ; [ORIG 16-BIT INS]
    1446                    ;* --------------------------------------------------------------------------*
    1447 00000282           ||$C$L19||:    
    1448 00000282 9800              LDR       A1, [SP, #0]          ; [DPU_3_PIPE] |1610|  ; [ORIG 16-BIT INS]
    1449 00000284 6AC3              LDR       A4, [A1, #44]         ; [DPU_3_PIPE] |1610|  ; [ORIG 16-BIT INS]
    1450 00000286 9900              LDR       A2, [SP, #0]          ; [DPU_3_PIPE] |1610|  ; [ORIG 16-BIT INS]
    1451 00000288 482C              LDR       A1, $C$CON6           ; [DPU_3_PIPE] |1610|  ; [ORIG 16-BIT INS]
    1452 0000028a 009A              LSLS      A3, A4, #2            ; [DPU_3_PIPE] |1610|  ; [ORIG 16-BIT INS]
    1453 0000028c 1D09              ADDS      A2, A2, #4            ; [DPU_3_PIPE] |1610|  ; [ORIG 16-BIT INS]
    1454 0000028e 1203EB02          ADD       A3, A3, A4, LSL #4    ; [DPU_3_PIPE] |1610|  ; [KEEP 32-BIT INS]
    1455 00000292 1880              ADDS      A1, A1, A3            ; [DPU_3_PIPE] |1610|  ; [ORIG 16-BIT INS]
    1456                    $C$DW$116       .dwtag  DW_TAG_TI_branch
    1457                            .dwattr $C$DW$116, DW_AT_low_pc(0x00)
    1458                            .dwattr $C$DW$116, DW_AT_name("vListInsertEnd")
    1459                            .dwattr $C$DW$116, DW_AT_TI_call
    1460 00000294 FFFEF7FF!         BL        vListInsertEnd        ; [DPU_3_PIPE] |1610|  ; [KEEP 32-BIT INS]
    1461                            ; CALL OCCURS {vListInsertEnd }  ; [] |1610| 
    1462                            .dwpsn  file "../Source/tasks.c",line 1614,column 6,is_stmt,isa 1
    1463 00000298 4817              LDR       A1, $C$CON2           ; [DPU_3_PIPE] |1614|  ; [ORIG 16-BIT INS]
    1464 0000029a 9900              LDR       A2, [SP, #0]          ; [DPU_3_PIPE] |1614|  ; [ORIG 16-BIT INS]
    1465 0000029c 6800              LDR       A1, [A1, #0]          ; [DPU_3_PIPE] |1614|  ; [ORIG 16-BIT INS]
    1466 0000029e 6AC9              LDR       A2, [A2, #44]         ; [DPU_3_PIPE] |1614|  ; [ORIG 16-BIT INS]
    1467 000002a0 6AC0              LDR       A1, [A1, #44]         ; [DPU_3_PIPE] |1614|  ; [ORIG 16-BIT INS]
    1468 000002a2 4288              CMP       A1, A2                ; [DPU_3_PIPE] |1614|  ; [ORIG 16-BIT INS]
    1469 000002a4 D802              BHI       ||$C$L20||            ; [DPU_3_PIPE] |1614|  ; [ORIG 16-BIT INS]
    1470                            ; BRANCHCC OCCURS {||$C$L20||}   ; [] |1614| 
    1471                    ;* --------------------------------------------------------------------------*
    1472                            .dwpsn  file "../Source/tasks.c",line 1616,column 7,is_stmt,isa 1
    1473 000002a6 499F              LDR       A2, $C$CON11          ; [DPU_3_PIPE] |1616|  ; [ORIG 16-BIT INS]
    1474 000002a8 2001              MOVS      A1, #1                ; [DPU_3_PIPE] |1616|  ; [ORIG 16-BIT INS]
    1475 000002aa 6008              STR       A1, [A2, #0]          ; [DPU_3_PIPE] |1616|  ; [ORIG 16-BIT INS]
    1476                            .dwpsn  file "../Source/tasks.c",line 1617,column 6,is_stmt,isa 1
    1477                    ;* --------------------------------------------------------------------------*
    1478                    ;*   BEGIN LOOP ||$C$L20||
    1479                    ;* --------------------------------------------------------------------------*
    1480 000002ac           ||$C$L20||:    
    1481                            .dwpsn  file "../Source/tasks.c",line 1605,column 12,is_stmt,isa 1
    1482 000002ac 489E              LDR       A1, $C$CON12          ; [DPU_3_PIPE] |1605|  ; [ORIG 16-BIT INS]
    1483 000002ae 6801              LDR       A2, [A1, #0]          ; [DPU_3_PIPE] |1605|  ; [ORIG 16-BIT INS]
    1484 000002b0 2000              MOVS      A1, #0                ; [DPU_3_PIPE] |1605|  ; [ORIG 16-BIT INS]
    1485 000002b2 B901              CBNZ      A2, ||$C$L21||        ; []  ; [ORIG 16-BIT INS]
TI ARM Assembler PC v5.1.7 Tue Sep 16 08:38:42 2014

Tools Copyright (c) 1996-2014 Texas Instruments Incorporated
tasks.asm                                                            PAGE   28

    1486                            ; BRANCHCC OCCURS {||$C$L21||}   ; [] |1605| 
    1487                    ;* --------------------------------------------------------------------------*
    1488 000002b4 2001              MOVS      A1, #1                ; [DPU_3_PIPE] |1605|  ; [ORIG 16-BIT INS]
    1489                    ;* --------------------------------------------------------------------------*
    1490 000002b6           ||$C$L21||:    
    1491 000002b6 2800              CMP       A1, #0                ; [DPU_3_PIPE] |1605|  ; [ORIG 16-BIT INS]
    1492 000002b8 D0CD              BEQ       ||$C$L18||            ; [DPU_3_PIPE] |1605|  ; [ORIG 16-BIT INS]
    1493                            ; BRANCHCC OCCURS {||$C$L18||}   ; [] |1605| 
    1494                    ;* --------------------------------------------------------------------------*
    1495                            .dwpsn  file "../Source/tasks.c",line 1628,column 5,is_stmt,isa 1
    1496 000002ba 489C              LDR       A1, $C$CON13          ; [DPU_3_PIPE] |1628|  ; [ORIG 16-BIT INS]
    1497 000002bc 6800              LDR       A1, [A1, #0]          ; [DPU_3_PIPE] |1628|  ; [ORIG 16-BIT INS]
    1498 000002be B180              CBZ       A1, ||$C$L24||        ; []  ; [ORIG 16-BIT INS]
    1499                            ; BRANCHCC OCCURS {||$C$L24||}   ; [] |1628| 
    1500                    ;* --------------------------------------------------------------------------*
    1501                            .dwpsn  file "../Source/tasks.c",line 1630,column 13,is_stmt,isa 1
    1502 000002c0 489A              LDR       A1, $C$CON13          ; [DPU_3_PIPE] |1630|  ; [ORIG 16-BIT INS]
    1503 000002c2 6800              LDR       A1, [A1, #0]          ; [DPU_3_PIPE] |1630|  ; [ORIG 16-BIT INS]
    1504 000002c4 B168              CBZ       A1, ||$C$L24||        ; []  ; [ORIG 16-BIT INS]
    1505                            ; BRANCHCC OCCURS {||$C$L24||}   ; [] |1630| 
    1506                    ;* --------------------------------------------------------------------------*
    1507                    ;*   BEGIN LOOP ||$C$L22||
    1508                    ;*
    1509                    ;*   Loop source line                : 1630
    1510                    ;*   Loop closing brace source line  : 1641
    1511                    ;*   Known Minimum Trip Count        : 1
    1512                    ;*   Known Maximum Trip Count        : 4294967295
    1513                    ;*   Known Max Trip Count Factor     : 1
    1514                    ;* --------------------------------------------------------------------------*
    1515 000002c6           ||$C$L22||:    
    1516                            .dwpsn  file "../Source/tasks.c",line 1632,column 7,is_stmt,isa 1
    1517                    $C$DW$117       .dwtag  DW_TAG_TI_branch
    1518                            .dwattr $C$DW$117, DW_AT_low_pc(0x00)
    1519                            .dwattr $C$DW$117, DW_AT_name("xTaskIncrementTick")
    1520                            .dwattr $C$DW$117, DW_AT_TI_call
    1521 000002c6 F83BF000          BL        xTaskIncrementTick    ; [DPU_3_PIPE] |1632|  ; [KEEP 32-BIT INS]
    1522                            ; CALL OCCURS {xTaskIncrementTick }  ; [] |1632| 
    1523 000002ca B110              CBZ       A1, ||$C$L23||        ; []  ; [ORIG 16-BIT INS]
    1524                            ; BRANCHCC OCCURS {||$C$L23||}   ; [] |1632| 
    1525                    ;* --------------------------------------------------------------------------*
    1526                            .dwpsn  file "../Source/tasks.c",line 1634,column 8,is_stmt,isa 1
    1527 000002cc 4995              LDR       A2, $C$CON11          ; [DPU_3_PIPE] |1634|  ; [ORIG 16-BIT INS]
    1528 000002ce 2001              MOVS      A1, #1                ; [DPU_3_PIPE] |1634|  ; [ORIG 16-BIT INS]
    1529 000002d0 6008              STR       A1, [A2, #0]          ; [DPU_3_PIPE] |1634|  ; [ORIG 16-BIT INS]
    1530                            .dwpsn  file "../Source/tasks.c",line 1635,column 7,is_stmt,isa 1
    1531                    ;* --------------------------------------------------------------------------*
    1532 000002d2           ||$C$L23||:    
    1533                            .dwpsn  file "../Source/tasks.c",line 1640,column 7,is_stmt,isa 1
    1534 000002d2 4996              LDR       A2, $C$CON13          ; [DPU_3_PIPE] |1640|  ; [ORIG 16-BIT INS]
    1535 000002d4 6808              LDR       A1, [A2, #0]          ; [DPU_3_PIPE] |1640|  ; [ORIG 16-BIT INS]
    1536 000002d6 1E40              SUBS      A1, A1, #1            ; [DPU_3_PIPE] |1640|  ; [ORIG 16-BIT INS]
    1537 000002d8 6008              STR       A1, [A2, #0]          ; [DPU_3_PIPE] |1640|  ; [ORIG 16-BIT INS]
    1538                            .dwpsn  file "../Source/tasks.c",line 1630,column 13,is_stmt,isa 1
    1539 000002da 4894              LDR       A1, $C$CON13          ; [DPU_3_PIPE] |1630|  ; [ORIG 16-BIT INS]
    1540 000002dc 6800              LDR       A1, [A1, #0]          ; [DPU_3_PIPE] |1630|  ; [ORIG 16-BIT INS]
TI ARM Assembler PC v5.1.7 Tue Sep 16 08:38:42 2014

Tools Copyright (c) 1996-2014 Texas Instruments Incorporated
tasks.asm                                                            PAGE   29

    1541 000002de 2800              CMP       A1, #0                ; [DPU_3_PIPE] |1630|  ; [ORIG 16-BIT INS]
    1542 000002e0 D1F1              BNE       ||$C$L22||            ; [DPU_3_PIPE] |1630|  ; [ORIG 16-BIT INS]
    1543                            ; BRANCHCC OCCURS {||$C$L22||}   ; [] |1630| 
    1544                    ;* --------------------------------------------------------------------------*
    1545                            .dwpsn  file "../Source/tasks.c",line 1642,column 5,is_stmt,isa 1
    1546                    ;* --------------------------------------------------------------------------*
    1547 000002e2           ||$C$L24||:    
    1548                            .dwpsn  file "../Source/tasks.c",line 1648,column 5,is_stmt,isa 1
    1549 000002e2 4890              LDR       A1, $C$CON11          ; [DPU_3_PIPE] |1648|  ; [ORIG 16-BIT INS]
    1550 000002e4 6800              LDR       A1, [A1, #0]          ; [DPU_3_PIPE] |1648|  ; [ORIG 16-BIT INS]
    1551 000002e6 2801              CMP       A1, #1                ; [DPU_3_PIPE] |1648|  ; [ORIG 16-BIT INS]
    1552 000002e8 D0FF              BEQ       ||$C$L25||            ; [DPU_3_PIPE] |1648|  ; [ORIG 16-BIT INS]
    1553                            ; BRANCHCC OCCURS {||$C$L25||}   ; [] |1648| 
    1554                    ;* --------------------------------------------------------------------------*
    1555                            .dwpsn  file "../Source/tasks.c",line 1656,column 5,is_stmt,isa 1
    1556                            .dwpsn  file "../Source/tasks.c",line 1662,column 3,is_stmt,isa 1
    1557                    ;* --------------------------------------------------------------------------*
    1558 000002ea           ||$C$L25||:    
    1559                            .dwpsn  file "../Source/tasks.c",line 1668,column 2,is_stmt,isa 1
    1560                    $C$DW$118       .dwtag  DW_TAG_TI_branch
    1561                            .dwattr $C$DW$118, DW_AT_low_pc(0x00)
    1562                            .dwattr $C$DW$118, DW_AT_name("vPortExitCritical")
    1563                            .dwattr $C$DW$118, DW_AT_TI_call
    1564 000002ea FFFEF7FF!         BL        vPortExitCritical     ; [DPU_3_PIPE] |1668|  ; [KEEP 32-BIT INS]
    1565                            ; CALL OCCURS {vPortExitCritical }  ; [] |1668| 
    1566                            .dwpsn  file "../Source/tasks.c",line 1670,column 2,is_stmt,isa 1
    1567 000002ee 9801              LDR       A1, [SP, #4]          ; [DPU_3_PIPE] |1670|  ; [ORIG 16-BIT INS]
    1568                            .dwpsn  file "../Source/tasks.c",line 1671,column 1,is_stmt,isa 1
    1569                    $C$DW$119       .dwtag  DW_TAG_TI_branch
    1570                            .dwattr $C$DW$119, DW_AT_low_pc(0x00)
    1571                            .dwattr $C$DW$119, DW_AT_TI_return
    1572 000002f0 BD0E              POP       {A2, A3, A4, PC}      ; [DPU_3_PIPE]  ; [ORIG 16-BIT INS]
    1573                            .dwcfi  cfa_offset, 0
    1574                            ; BRANCH OCCURS                  ; [] 
    1575                    ;******************************************************************************
    1576                    ;* CONSTANT TABLE                                                             *
    1577                    ;******************************************************************************
    1578 000002f2                   .sect   ".text"
    1579                            .align  4
    1580 000002f2 000046C0! ||$C$CON1||:    .bits   uxCurrentNumberOfTasks,32
         000002f6 00000000 
    1581                            .dwattr $C$DW$110, DW_AT_TI_end_file("../Source/tasks.c")
    1582                            .dwattr $C$DW$110, DW_AT_TI_end_line(0x687)
    1583                            .dwattr $C$DW$110, DW_AT_TI_end_column(0x01)
    1584                            .dwendentry
    1585                            .dwendtag $C$DW$110
    1586                    
    1587                    ;******************************************************************************
    1588                    ;* CONSTANT TABLE                                                             *
    1589                    ;******************************************************************************
    1590 000002f8                   .sect   ".text"
    1591                            .align  4
    1592 000002f6 00000000! ||$C$CON2||:    .bits   pxCurrentTCB,32
         000002fa 00000000 
    1593 000002fc                   .sect   ".text"
TI ARM Assembler PC v5.1.7 Tue Sep 16 08:38:42 2014

Tools Copyright (c) 1996-2014 Texas Instruments Incorporated
tasks.asm                                                            PAGE   30

    1594                            .clink
    1595                            .thumbfunc xTaskGetTickCount
    1596 000002fc                   .thumb
    1597                            .global xTaskGetTickCount
    1598                    
    1599                    $C$DW$120       .dwtag  DW_TAG_subprogram, DW_AT_name("xTaskGetTickCount")
    1600                            .dwattr $C$DW$120, DW_AT_low_pc(xTaskGetTickCount)
    1601                            .dwattr $C$DW$120, DW_AT_high_pc(0x00)
    1602                            .dwattr $C$DW$120, DW_AT_TI_symbol_name("xTaskGetTickCount")
    1603                            .dwattr $C$DW$120, DW_AT_external
    1604                            .dwattr $C$DW$120, DW_AT_type(*$C$DW$T$36)
    1605                            .dwattr $C$DW$120, DW_AT_TI_begin_file("../Source/tasks.c")
    1606                            .dwattr $C$DW$120, DW_AT_TI_begin_line(0x68a)
    1607                            .dwattr $C$DW$120, DW_AT_TI_begin_column(0x0c)
    1608                            .dwattr $C$DW$120, DW_AT_decl_file("../Source/tasks.c")
    1609                            .dwattr $C$DW$120, DW_AT_decl_line(0x68a)
    1610                            .dwattr $C$DW$120, DW_AT_decl_column(0x0c)
    1611                            .dwattr $C$DW$120, DW_AT_TI_max_frame_size(0x08)
    1612                            .dwpsn  file "../Source/tasks.c",line 1675,column 1,is_stmt,address xTaskGetTickCount,isa 1
    1613                    
    1614                            .dwfde $C$DW$CIE, xTaskGetTickCount
    1615                    
    1616                    ;*****************************************************************************
    1617                    ;* FUNCTION NAME: xTaskGetTickCount                                          *
    1618                    ;*                                                                           *
    1619                    ;*   Regs Modified     : A1,A2,A3,A4,V9,SP,LR,SR,D0,D0_hi,D1,D1_hi,D2,D2_hi, *
    1620                    ;*                           D3,D3_hi,D4,D4_hi,D5,D5_hi,D6,D6_hi,D7,D7_hi,   *
    1621                    ;*                           FPEXC,FPSCR                                     *
    1622                    ;*   Regs Used         : A1,A2,A3,A4,V9,SP,LR,SR,D0,D0_hi,D1,D1_hi,D2,D2_hi, *
    1623                    ;*                           D3,D3_hi,D4,D4_hi,D5,D5_hi,D6,D6_hi,D7,D7_hi,   *
    1624                    ;*                           FPEXC,FPSCR                                     *
    1625                    ;*   Local Frame Size  : 0 Args + 4 Auto + 4 Save = 8 byte                   *
    1626                    ;*****************************************************************************
    1627 000002fc           xTaskGetTickCount:
    1628                    ;* --------------------------------------------------------------------------*
    1629                            .dwcfi  cfa_offset, 0
    1630 000002fc B508              PUSH      {A4, LR}              ; [DPU_3_PIPE]  ; [ORIG 16-BIT INS]
    1631                            .dwcfi  cfa_offset, 8
    1632                            .dwcfi  save_reg_to_mem, 14, -4
    1633                            .dwcfi  save_reg_to_mem, 3, -8
    1634                    $C$DW$121       .dwtag  DW_TAG_variable, DW_AT_name("xTicks")
    1635                            .dwattr $C$DW$121, DW_AT_TI_symbol_name("xTicks")
    1636                            .dwattr $C$DW$121, DW_AT_type(*$C$DW$T$36)
    1637                            .dwattr $C$DW$121, DW_AT_location[DW_OP_breg13 0]
    1638                            .dwpsn  file "../Source/tasks.c",line 1679,column 2,is_stmt,isa 1
    1639                    $C$DW$122       .dwtag  DW_TAG_TI_branch
    1640                            .dwattr $C$DW$122, DW_AT_low_pc(0x00)
    1641                            .dwattr $C$DW$122, DW_AT_name("vPortEnterCritical")
    1642                            .dwattr $C$DW$122, DW_AT_TI_call
    1643 000002fe FFFEF7FF!         BL        vPortEnterCritical    ; [DPU_3_PIPE] |1679|  ; [KEEP 32-BIT INS]
    1644                            ; CALL OCCURS {vPortEnterCritical }  ; [] |1679| 
    1645                            .dwpsn  file "../Source/tasks.c",line 1681,column 3,is_stmt,isa 1
    1646 00000302 4823              LDR       A1, $C$CON7           ; [DPU_3_PIPE] |1681|  ; [ORIG 16-BIT INS]
    1647 00000304 6800              LDR       A1, [A1, #0]          ; [DPU_3_PIPE] |1681|  ; [ORIG 16-BIT INS]
    1648 00000306 9000              STR       A1, [SP, #0]          ; [DPU_3_PIPE] |1681|  ; [ORIG 16-BIT INS]
TI ARM Assembler PC v5.1.7 Tue Sep 16 08:38:42 2014

Tools Copyright (c) 1996-2014 Texas Instruments Incorporated
tasks.asm                                                            PAGE   31

    1649                            .dwpsn  file "../Source/tasks.c",line 1683,column 2,is_stmt,isa 1
    1650                    $C$DW$123       .dwtag  DW_TAG_TI_branch
    1651                            .dwattr $C$DW$123, DW_AT_low_pc(0x00)
    1652                            .dwattr $C$DW$123, DW_AT_name("vPortExitCritical")
    1653                            .dwattr $C$DW$123, DW_AT_TI_call
    1654 00000308 FFFEF7FF!         BL        vPortExitCritical     ; [DPU_3_PIPE] |1683|  ; [KEEP 32-BIT INS]
    1655                            ; CALL OCCURS {vPortExitCritical }  ; [] |1683| 
    1656                            .dwpsn  file "../Source/tasks.c",line 1685,column 2,is_stmt,isa 1
    1657 0000030c 9800              LDR       A1, [SP, #0]          ; [DPU_3_PIPE] |1685|  ; [ORIG 16-BIT INS]
    1658                            .dwpsn  file "../Source/tasks.c",line 1686,column 1,is_stmt,isa 1
    1659                    $C$DW$124       .dwtag  DW_TAG_TI_branch
    1660                            .dwattr $C$DW$124, DW_AT_low_pc(0x00)
    1661                            .dwattr $C$DW$124, DW_AT_TI_return
    1662 0000030e BD08              POP       {A4, PC}              ; [DPU_3_PIPE]  ; [ORIG 16-BIT INS]
    1663                            .dwcfi  cfa_offset, 0
    1664                            ; BRANCH OCCURS                  ; [] 
    1665                            .dwattr $C$DW$120, DW_AT_TI_end_file("../Source/tasks.c")
    1666                            .dwattr $C$DW$120, DW_AT_TI_end_line(0x696)
    1667                            .dwattr $C$DW$120, DW_AT_TI_end_column(0x01)
    1668                            .dwendentry
    1669                            .dwendtag $C$DW$120
    1670                    
    1671                    ;******************************************************************************
    1672                    ;* CONSTANT TABLE                                                             *
    1673                    ;******************************************************************************
    1674 00000310                   .sect   ".text"
    1675                            .align  4
    1676 00000310 00000000! ||$C$CON3||:    .bits   xSchedulerRunning,32
    1677 00000314                   .sect   ".text"
    1678                            .clink
    1679                            .thumbfunc xTaskGetTickCountFromISR
    1680 00000314                   .thumb
    1681                            .global xTaskGetTickCountFromISR
    1682                    
    1683                    $C$DW$125       .dwtag  DW_TAG_subprogram, DW_AT_name("xTaskGetTickCountFromISR")
    1684                            .dwattr $C$DW$125, DW_AT_low_pc(xTaskGetTickCountFromISR)
    1685                            .dwattr $C$DW$125, DW_AT_high_pc(0x00)
    1686                            .dwattr $C$DW$125, DW_AT_TI_symbol_name("xTaskGetTickCountFromISR")
    1687                            .dwattr $C$DW$125, DW_AT_external
    1688                            .dwattr $C$DW$125, DW_AT_type(*$C$DW$T$36)
    1689                            .dwattr $C$DW$125, DW_AT_TI_begin_file("../Source/tasks.c")
    1690                            .dwattr $C$DW$125, DW_AT_TI_begin_line(0x699)
    1691                            .dwattr $C$DW$125, DW_AT_TI_begin_column(0x0c)
    1692                            .dwattr $C$DW$125, DW_AT_decl_file("../Source/tasks.c")
    1693                            .dwattr $C$DW$125, DW_AT_decl_line(0x699)
    1694                            .dwattr $C$DW$125, DW_AT_decl_column(0x0c)
    1695                            .dwattr $C$DW$125, DW_AT_TI_max_frame_size(0x10)
    1696                            .dwpsn  file "../Source/tasks.c",line 1690,column 1,is_stmt,address xTaskGetTickCountFromISR,i
    1697                    
    1698                            .dwfde $C$DW$CIE, xTaskGetTickCountFromISR
    1699                    
    1700                    ;*****************************************************************************
    1701                    ;* FUNCTION NAME: xTaskGetTickCountFromISR                                   *
    1702                    ;*                                                                           *
    1703                    ;*   Regs Modified     : A1,A2,A3,A4,V9,SP,LR,SR,D0,D0_hi,D1,D1_hi,D2,D2_hi, *
TI ARM Assembler PC v5.1.7 Tue Sep 16 08:38:42 2014

Tools Copyright (c) 1996-2014 Texas Instruments Incorporated
tasks.asm                                                            PAGE   32

    1704                    ;*                           D3,D3_hi,D4,D4_hi,D5,D5_hi,D6,D6_hi,D7,D7_hi,   *
    1705                    ;*                           FPEXC,FPSCR                                     *
    1706                    ;*   Regs Used         : A1,A2,A3,A4,V9,SP,LR,SR,D0,D0_hi,D1,D1_hi,D2,D2_hi, *
    1707                    ;*                           D3,D3_hi,D4,D4_hi,D5,D5_hi,D6,D6_hi,D7,D7_hi,   *
    1708                    ;*                           FPEXC,FPSCR                                     *
    1709                    ;*   Local Frame Size  : 0 Args + 8 Auto + 4 Save = 12 byte                  *
    1710                    ;*****************************************************************************
    1711 00000314           xTaskGetTickCountFromISR:
    1712                    ;* --------------------------------------------------------------------------*
    1713                            .dwcfi  cfa_offset, 0
    1714 00000314 B50E              PUSH      {A2, A3, A4, LR}      ; [DPU_3_PIPE]  ; [ORIG 16-BIT INS]
    1715                            .dwcfi  cfa_offset, 16
    1716                            .dwcfi  save_reg_to_mem, 14, -4
    1717                            .dwcfi  save_reg_to_mem, 3, -8
    1718                            .dwcfi  save_reg_to_mem, 2, -12
    1719                            .dwcfi  save_reg_to_mem, 1, -16
    1720                    $C$DW$126       .dwtag  DW_TAG_variable, DW_AT_name("xReturn")
    1721                            .dwattr $C$DW$126, DW_AT_TI_symbol_name("xReturn")
    1722                            .dwattr $C$DW$126, DW_AT_type(*$C$DW$T$36)
    1723                            .dwattr $C$DW$126, DW_AT_location[DW_OP_breg13 0]
    1724                    $C$DW$127       .dwtag  DW_TAG_variable, DW_AT_name("uxSavedInterruptStatus")
    1725                            .dwattr $C$DW$127, DW_AT_TI_symbol_name("uxSavedInterruptStatus")
    1726                            .dwattr $C$DW$127, DW_AT_type(*$C$DW$T$28)
    1727                            .dwattr $C$DW$127, DW_AT_location[DW_OP_breg13 4]
    1728                            .dwpsn  file "../Source/tasks.c",line 1710,column 2,is_stmt,isa 1
    1729                    $C$DW$128       .dwtag  DW_TAG_TI_branch
    1730                            .dwattr $C$DW$128, DW_AT_low_pc(0x00)
    1731                            .dwattr $C$DW$128, DW_AT_name("ulPortSetInterruptMask")
    1732                            .dwattr $C$DW$128, DW_AT_TI_call
    1733 00000316 FFFEF7FF!         BL        ulPortSetInterruptMask ; [DPU_3_PIPE] |1710|  ; [KEEP 32-BIT INS]
    1734                            ; CALL OCCURS {ulPortSetInterruptMask }  ; [] |1710| 
    1735 0000031a 9001              STR       A1, [SP, #4]          ; [DPU_3_PIPE] |1710|  ; [ORIG 16-BIT INS]
    1736                            .dwpsn  file "../Source/tasks.c",line 1712,column 3,is_stmt,isa 1
    1737 0000031c 481C              LDR       A1, $C$CON7           ; [DPU_3_PIPE] |1712|  ; [ORIG 16-BIT INS]
    1738 0000031e 6800              LDR       A1, [A1, #0]          ; [DPU_3_PIPE] |1712|  ; [ORIG 16-BIT INS]
    1739 00000320 9000              STR       A1, [SP, #0]          ; [DPU_3_PIPE] |1712|  ; [ORIG 16-BIT INS]
    1740                            .dwpsn  file "../Source/tasks.c",line 1714,column 2,is_stmt,isa 1
    1741 00000322 9801              LDR       A1, [SP, #4]          ; [DPU_3_PIPE] |1714|  ; [ORIG 16-BIT INS]
    1742                    $C$DW$129       .dwtag  DW_TAG_TI_branch
    1743                            .dwattr $C$DW$129, DW_AT_low_pc(0x00)
    1744                            .dwattr $C$DW$129, DW_AT_name("vPortClearInterruptMask")
    1745                            .dwattr $C$DW$129, DW_AT_TI_call
    1746 00000324 FFFEF7FF!         BL        vPortClearInterruptMask ; [DPU_3_PIPE] |1714|  ; [KEEP 32-BIT INS]
    1747                            ; CALL OCCURS {vPortClearInterruptMask }  ; [] |1714| 
    1748                            .dwpsn  file "../Source/tasks.c",line 1716,column 2,is_stmt,isa 1
    1749 00000328 9800              LDR       A1, [SP, #0]          ; [DPU_3_PIPE] |1716|  ; [ORIG 16-BIT INS]
    1750                            .dwpsn  file "../Source/tasks.c",line 1717,column 1,is_stmt,isa 1
    1751                    $C$DW$130       .dwtag  DW_TAG_TI_branch
    1752                            .dwattr $C$DW$130, DW_AT_low_pc(0x00)
    1753                            .dwattr $C$DW$130, DW_AT_TI_return
    1754 0000032a BD0E              POP       {A2, A3, A4, PC}      ; [DPU_3_PIPE]  ; [ORIG 16-BIT INS]
    1755                            .dwcfi  cfa_offset, 0
    1756                            ; BRANCH OCCURS                  ; [] 
    1757                            .dwattr $C$DW$125, DW_AT_TI_end_file("../Source/tasks.c")
    1758                            .dwattr $C$DW$125, DW_AT_TI_end_line(0x6b5)
TI ARM Assembler PC v5.1.7 Tue Sep 16 08:38:42 2014

Tools Copyright (c) 1996-2014 Texas Instruments Incorporated
tasks.asm                                                            PAGE   33

    1759                            .dwattr $C$DW$125, DW_AT_TI_end_column(0x01)
    1760                            .dwendentry
    1761                            .dwendtag $C$DW$125
    1762                    
    1763 0000032c                   .sect   ".text"
    1764                            .clink
    1765                            .thumbfunc uxTaskGetNumberOfTasks
    1766 0000032c                   .thumb
    1767                            .global uxTaskGetNumberOfTasks
    1768                    
    1769                    $C$DW$131       .dwtag  DW_TAG_subprogram, DW_AT_name("uxTaskGetNumberOfTasks")
    1770                            .dwattr $C$DW$131, DW_AT_low_pc(uxTaskGetNumberOfTasks)
    1771                            .dwattr $C$DW$131, DW_AT_high_pc(0x00)
    1772                            .dwattr $C$DW$131, DW_AT_TI_symbol_name("uxTaskGetNumberOfTasks")
    1773                            .dwattr $C$DW$131, DW_AT_external
    1774                            .dwattr $C$DW$131, DW_AT_type(*$C$DW$T$28)
    1775                            .dwattr $C$DW$131, DW_AT_TI_begin_file("../Source/tasks.c")
    1776                            .dwattr $C$DW$131, DW_AT_TI_begin_line(0x6b8)
    1777                            .dwattr $C$DW$131, DW_AT_TI_begin_column(0x0d)
    1778                            .dwattr $C$DW$131, DW_AT_decl_file("../Source/tasks.c")
    1779                            .dwattr $C$DW$131, DW_AT_decl_line(0x6b8)
    1780                            .dwattr $C$DW$131, DW_AT_decl_column(0x0d)
    1781                            .dwattr $C$DW$131, DW_AT_TI_max_frame_size(0x00)
    1782                            .dwpsn  file "../Source/tasks.c",line 1721,column 1,is_stmt,address uxTaskGetNumberOfTasks,isa
    1783                    
    1784                            .dwfde $C$DW$CIE, uxTaskGetNumberOfTasks
    1785                    
    1786                    ;*****************************************************************************
    1787                    ;* FUNCTION NAME: uxTaskGetNumberOfTasks                                     *
    1788                    ;*                                                                           *
    1789                    ;*   Regs Modified     : A1                                                  *
    1790                    ;*   Regs Used         : A1,LR                                               *
    1791                    ;*   Local Frame Size  : 0 Args + 0 Auto + 0 Save = 0 byte                   *
    1792                    ;*****************************************************************************
    1793 0000032c           uxTaskGetNumberOfTasks:
    1794                    ;* --------------------------------------------------------------------------*
    1795                            .dwcfi  cfa_offset, 0
    1796                            .dwpsn  file "../Source/tasks.c",line 1724,column 2,is_stmt,isa 1
    1797 0000032c 489F              LDR       A1, $C$CON14          ; [DPU_3_PIPE] |1724|  ; [ORIG 16-BIT INS]
    1798 0000032e 6800              LDR       A1, [A1, #0]          ; [DPU_3_PIPE] |1724|  ; [ORIG 16-BIT INS]
    1799                            .dwpsn  file "../Source/tasks.c",line 1725,column 1,is_stmt,isa 1
    1800                    $C$DW$132       .dwtag  DW_TAG_TI_branch
    1801                            .dwattr $C$DW$132, DW_AT_low_pc(0x00)
    1802                            .dwattr $C$DW$132, DW_AT_TI_return
    1803 00000330 4770              BX        LR                    ; [DPU_3_PIPE]  ; [ORIG 16-BIT INS]
    1804                            ; BRANCH OCCURS                  ; [] 
    1805                            .dwattr $C$DW$131, DW_AT_TI_end_file("../Source/tasks.c")
    1806                            .dwattr $C$DW$131, DW_AT_TI_end_line(0x6bd)
    1807                            .dwattr $C$DW$131, DW_AT_TI_end_column(0x01)
    1808                            .dwendentry
    1809                            .dwendtag $C$DW$131
    1810                    
    1811                    ;******************************************************************************
    1812                    ;* CONSTANT TABLE                                                             *
    1813                    ;******************************************************************************
TI ARM Assembler PC v5.1.7 Tue Sep 16 08:38:42 2014

Tools Copyright (c) 1996-2014 Texas Instruments Incorporated
tasks.asm                                                            PAGE   34

    1814 00000332                   .sect   ".text"
    1815                            .align  4
    1816 00000332 000046C0! ||$C$CON4||:    .bits   uxTaskNumber,32
         00000336 00000000 
    1817                            .align  4
    1818 00000336 00000000! ||$C$CON5||:    .bits   uxTopReadyPriority,32
         0000033a 00000000 
    1819                            .align  4
    1820 0000033a 00000000! ||$C$CON6||:    .bits   pxReadyTasksLists,32
         0000033e 00000000 
    1821 00000340                   .sect   ".text"
    1822                            .clink
    1823                            .thumbfunc xTaskIncrementTick
    1824 00000340                   .thumb
    1825                            .global xTaskIncrementTick
    1826                    
    1827                    $C$DW$133       .dwtag  DW_TAG_subprogram, DW_AT_name("xTaskIncrementTick")
    1828                            .dwattr $C$DW$133, DW_AT_low_pc(xTaskIncrementTick)
    1829                            .dwattr $C$DW$133, DW_AT_high_pc(0x00)
    1830                            .dwattr $C$DW$133, DW_AT_TI_symbol_name("xTaskIncrementTick")
    1831                            .dwattr $C$DW$133, DW_AT_external
    1832                            .dwattr $C$DW$133, DW_AT_type(*$C$DW$T$56)
    1833                            .dwattr $C$DW$133, DW_AT_TI_begin_file("../Source/tasks.c")
    1834                            .dwattr $C$DW$133, DW_AT_TI_begin_line(0x739)
    1835                            .dwattr $C$DW$133, DW_AT_TI_begin_column(0x0c)
    1836                            .dwattr $C$DW$133, DW_AT_decl_file("../Source/tasks.c")
    1837                            .dwattr $C$DW$133, DW_AT_decl_line(0x739)
    1838                            .dwattr $C$DW$133, DW_AT_decl_column(0x0c)
    1839                            .dwattr $C$DW$133, DW_AT_TI_max_frame_size(0x20)
    1840                            .dwpsn  file "../Source/tasks.c",line 1850,column 1,is_stmt,address xTaskIncrementTick,isa 1
    1841                    
    1842                            .dwfde $C$DW$CIE, xTaskIncrementTick
    1843                    
    1844                    ;*****************************************************************************
    1845                    ;* FUNCTION NAME: xTaskIncrementTick                                         *
    1846                    ;*                                                                           *
    1847                    ;*   Regs Modified     : A1,A2,A3,A4,V1,V9,SP,LR,SR,D0,D0_hi,D1,D1_hi,D2,    *
    1848                    ;*                           D2_hi,D3,D3_hi,D4,D4_hi,D5,D5_hi,D6,D6_hi,D7,   *
    1849                    ;*                           D7_hi,FPEXC,FPSCR                               *
    1850                    ;*   Regs Used         : A1,A2,A3,A4,V1,V9,SP,LR,SR,D0,D0_hi,D1,D1_hi,D2,    *
    1851                    ;*                           D2_hi,D3,D3_hi,D4,D4_hi,D5,D5_hi,D6,D6_hi,D7,   *
    1852                    ;*                           D7_hi,FPEXC,FPSCR                               *
    1853                    ;*   Local Frame Size  : 0 Args + 20 Auto + 8 Save = 28 byte                 *
    1854                    ;*****************************************************************************
    1855 00000340           xTaskIncrementTick:
    1856                    ;* --------------------------------------------------------------------------*
    1857                            .dwcfi  cfa_offset, 0
    1858 00000340 B510              PUSH      {V1, LR}              ; [DPU_3_PIPE]  ; [ORIG 16-BIT INS]
    1859                            .dwcfi  cfa_offset, 8
    1860                            .dwcfi  save_reg_to_mem, 14, -4
    1861                            .dwcfi  save_reg_to_mem, 4, -8
    1862 00000342 0D18F1AD          SUB       SP, SP, #24           ; [DPU_3_PIPE]  ; [KEEP 32-BIT INS]
    1863                            .dwcfi  cfa_offset, 32
    1864                    $C$DW$134       .dwtag  DW_TAG_variable, DW_AT_name("pxTCB")
    1865                            .dwattr $C$DW$134, DW_AT_TI_symbol_name("pxTCB")
TI ARM Assembler PC v5.1.7 Tue Sep 16 08:38:42 2014

Tools Copyright (c) 1996-2014 Texas Instruments Incorporated
tasks.asm                                                            PAGE   35

    1866                            .dwattr $C$DW$134, DW_AT_type(*$C$DW$T$100)
    1867                            .dwattr $C$DW$134, DW_AT_location[DW_OP_breg13 0]
    1868                    $C$DW$135       .dwtag  DW_TAG_variable, DW_AT_name("xItemValue")
    1869                            .dwattr $C$DW$135, DW_AT_TI_symbol_name("xItemValue")
    1870                            .dwattr $C$DW$135, DW_AT_type(*$C$DW$T$36)
    1871                            .dwattr $C$DW$135, DW_AT_location[DW_OP_breg13 4]
    1872                    $C$DW$136       .dwtag  DW_TAG_variable, DW_AT_name("xSwitchRequired")
    1873                            .dwattr $C$DW$136, DW_AT_TI_symbol_name("xSwitchRequired")
    1874                            .dwattr $C$DW$136, DW_AT_type(*$C$DW$T$56)
    1875                            .dwattr $C$DW$136, DW_AT_location[DW_OP_breg13 8]
    1876                            .dwpsn  file "../Source/tasks.c",line 1853,column 28,is_stmt,isa 1
    1877 00000346 2000              MOVS      A1, #0                ; [DPU_3_PIPE] |1853|  ; [ORIG 16-BIT INS]
    1878 00000348 9002              STR       A1, [SP, #8]          ; [DPU_3_PIPE] |1853|  ; [ORIG 16-BIT INS]
    1879                            .dwpsn  file "../Source/tasks.c",line 1859,column 2,is_stmt,isa 1
    1880 0000034a 4855              LDR       A1, $C$CON9           ; [DPU_3_PIPE] |1859|  ; [ORIG 16-BIT INS]
    1881 0000034c 6800              LDR       A1, [A1, #0]          ; [DPU_3_PIPE] |1859|  ; [ORIG 16-BIT INS]
    1882 0000034e 2800              CMP       A1, #0                ; [DPU_3_PIPE] |1859|  ; [ORIG 16-BIT INS]
    1883 00000350 D15D              BNE       ||$C$L33||            ; [DPU_3_PIPE] |1859|  ; [ORIG 16-BIT INS]
    1884                            ; BRANCHCC OCCURS {||$C$L33||}   ; [] |1859| 
    1885                    ;* --------------------------------------------------------------------------*
    1886                            .dwpsn  file "../Source/tasks.c",line 1863,column 3,is_stmt,isa 1
    1887 00000352 490F              LDR       A2, $C$CON7           ; [DPU_3_PIPE] |1863|  ; [ORIG 16-BIT INS]
    1888 00000354 6808              LDR       A1, [A2, #0]          ; [DPU_3_PIPE] |1863|  ; [ORIG 16-BIT INS]
    1889 00000356 1C40              ADDS      A1, A1, #1            ; [DPU_3_PIPE] |1863|  ; [ORIG 16-BIT INS]
    1890 00000358 6008              STR       A1, [A2, #0]          ; [DPU_3_PIPE] |1863|  ; [ORIG 16-BIT INS]
    1891                    
    1892                    $C$DW$137       .dwtag  DW_TAG_lexical_block, DW_AT_low_pc(0x00), DW_AT_high_pc(0x00)
    1893                    $C$DW$138       .dwtag  DW_TAG_variable, DW_AT_name("xConstTickCount")
    1894                            .dwattr $C$DW$138, DW_AT_TI_symbol_name("xConstTickCount")
    1895                            .dwattr $C$DW$138, DW_AT_type(*$C$DW$T$87)
    1896                            .dwattr $C$DW$138, DW_AT_location[DW_OP_breg13 12]
    1897                            .dwpsn  file "../Source/tasks.c",line 1868,column 37,is_stmt,isa 1
    1898 0000035a 480D              LDR       A1, $C$CON7           ; [DPU_3_PIPE] |1868|  ; [ORIG 16-BIT INS]
    1899 0000035c 6800              LDR       A1, [A1, #0]          ; [DPU_3_PIPE] |1868|  ; [ORIG 16-BIT INS]
    1900 0000035e 9003              STR       A1, [SP, #12]         ; [DPU_3_PIPE] |1868|  ; [ORIG 16-BIT INS]
    1901                            .dwpsn  file "../Source/tasks.c",line 1870,column 4,is_stmt,isa 1
    1902 00000360 9803              LDR       A1, [SP, #12]         ; [DPU_3_PIPE] |1870|  ; [ORIG 16-BIT INS]
    1903 00000362 B978              CBNZ      A1, ||$C$L26||        ; []  ; [ORIG 16-BIT INS]
    1904                            ; BRANCHCC OCCURS {||$C$L26||}   ; [] |1870| 
    1905                    ;* --------------------------------------------------------------------------*
    1906                    
    1907                    $C$DW$139       .dwtag  DW_TAG_lexical_block, DW_AT_low_pc(0x00), DW_AT_high_pc(0x00)
    1908                    $C$DW$140       .dwtag  DW_TAG_variable, DW_AT_name("pxTemp")
    1909                            .dwattr $C$DW$140, DW_AT_TI_symbol_name("pxTemp")
    1910                            .dwattr $C$DW$140, DW_AT_type(*$C$DW$T$76)
    1911                            .dwattr $C$DW$140, DW_AT_location[DW_OP_breg13 16]
    1912                            .dwpsn  file "../Source/tasks.c",line 1872,column 5,is_stmt,isa 1
    1913 00000364 4892              LDR       A1, $C$CON15          ; [DPU_3_PIPE] |1872|  ; [ORIG 16-BIT INS]
    1914 00000366 4993              LDR       A2, $C$CON16          ; [DPU_3_PIPE] |1872|  ; [ORIG 16-BIT INS]
    1915 00000368 6800              LDR       A1, [A1, #0]          ; [DPU_3_PIPE] |1872|  ; [ORIG 16-BIT INS]
    1916 0000036a 4C91              LDR       V1, $C$CON15          ; [DPU_3_PIPE] |1872|  ; [ORIG 16-BIT INS]
    1917 0000036c 4B91              LDR       A4, $C$CON16          ; [DPU_3_PIPE] |1872|  ; [ORIG 16-BIT INS]
    1918 0000036e 680A              LDR       A3, [A2, #0]          ; [DPU_3_PIPE] |1872|  ; [ORIG 16-BIT INS]
    1919 00000370 9004              STR       A1, [SP, #16]         ; [DPU_3_PIPE] |1872|  ; [ORIG 16-BIT INS]
    1920 00000372 9804              LDR       A1, [SP, #16]         ; [DPU_3_PIPE] |1872|  ; [ORIG 16-BIT INS]
TI ARM Assembler PC v5.1.7 Tue Sep 16 08:38:42 2014

Tools Copyright (c) 1996-2014 Texas Instruments Incorporated
tasks.asm                                                            PAGE   36

    1921 00000374 49AE              LDR       A2, $C$CON17          ; [DPU_3_PIPE] |1872|  ; [ORIG 16-BIT INS]
    1922 00000376 6022              STR       A3, [V1, #0]          ; [DPU_3_PIPE] |1872|  ; [ORIG 16-BIT INS]
    1923 00000378 6018              STR       A1, [A4, #0]          ; [DPU_3_PIPE] |1872|  ; [ORIG 16-BIT INS]
    1924 0000037a 6808              LDR       A1, [A2, #0]          ; [DPU_3_PIPE] |1872|  ; [ORIG 16-BIT INS]
    1925 0000037c 1C40              ADDS      A1, A1, #1            ; [DPU_3_PIPE] |1872|  ; [ORIG 16-BIT INS]
    1926 0000037e 6008              STR       A1, [A2, #0]          ; [DPU_3_PIPE] |1872|  ; [ORIG 16-BIT INS]
    1927                    $C$DW$141       .dwtag  DW_TAG_TI_branch
    1928                            .dwattr $C$DW$141, DW_AT_low_pc(0x00)
    1929                            .dwattr $C$DW$141, DW_AT_name("prvResetNextTaskUnblockTime")
    1930                            .dwattr $C$DW$141, DW_AT_TI_call
    1931 00000380 FA62F000          BL        prvResetNextTaskUnblockTime ; [DPU_3_PIPE] |1872|  ; [KEEP 32-BIT INS]
    1932                            ; CALL OCCURS {prvResetNextTaskUnblockTime }  ; [] |1872| 
    1933                            .dwendtag $C$DW$139
    1934                    
    1935                            .dwpsn  file "../Source/tasks.c",line 1873,column 4,is_stmt,isa 1
    1936                    ;* --------------------------------------------------------------------------*
    1937 00000384           ||$C$L26||:    
    1938                            .dwpsn  file "../Source/tasks.c",line 1883,column 4,is_stmt,isa 1
    1939 00000384 48AB              LDR       A1, $C$CON18          ; [DPU_3_PIPE] |1883|  ; [ORIG 16-BIT INS]
    1940 00000386 9903              LDR       A2, [SP, #12]         ; [DPU_3_PIPE] |1883|  ; [ORIG 16-BIT INS]
    1941 00000388 6800              LDR       A1, [A1, #0]          ; [DPU_3_PIPE] |1883|  ; [ORIG 16-BIT INS]
    1942 0000038a 4288              CMP       A1, A2                ; [DPU_3_PIPE] |1883|  ; [ORIG 16-BIT INS]
    1943 0000038c D843              BHI       ||$C$L34||            ; [DPU_3_PIPE] |1883|  ; [ORIG 16-BIT INS]
    1944                            ; BRANCHCC OCCURS {||$C$L34||}   ; [] |1883| 
    1945                    ;* --------------------------------------------------------------------------*
    1946 0000038e E001              B         ||$C$L27||            ; []  ; [ORIG 16-BIT INS]
    1947                            ; BRANCH OCCURS {||$C$L27||}     ; [] 
    1948                    ;******************************************************************************
    1949                    ;* CONSTANT TABLE                                                             *
    1950                    ;******************************************************************************
    1951 00000390                   .sect   ".text"
    1952                            .align  4
    1953 00000390 00000000! ||$C$CON7||:    .bits   xTickCount,32
    1954                    ;* --------------------------------------------------------------------------*
    1955                    ;*   BEGIN LOOP ||$C$L27||
    1956                    ;*
    1957                    ;*   Loop source line                : 1885
    1958                    ;*   Loop closing brace source line  : 1958
    1959                    ;*   Known Minimum Trip Count        : 1
    1960                    ;*   Known Maximum Trip Count        : 4294967295
    1961                    ;*   Known Max Trip Count Factor     : 1
    1962                    ;* --------------------------------------------------------------------------*
    1963 00000394           ||$C$L27||:    
    1964                            .dwpsn  file "../Source/tasks.c",line 1887,column 6,is_stmt,isa 1
    1965 00000394 4886              LDR       A1, $C$CON15          ; [DPU_3_PIPE] |1887|  ; [ORIG 16-BIT INS]
    1966 00000396 6800              LDR       A1, [A1, #0]          ; [DPU_3_PIPE] |1887|  ; [ORIG 16-BIT INS]
    1967 00000398 6801              LDR       A2, [A1, #0]          ; [DPU_3_PIPE] |1887|  ; [ORIG 16-BIT INS]
    1968 0000039a 2000              MOVS      A1, #0                ; [DPU_3_PIPE] |1887|  ; [ORIG 16-BIT INS]
    1969 0000039c B901              CBNZ      A2, ||$C$L28||        ; []  ; [ORIG 16-BIT INS]
    1970                            ; BRANCHCC OCCURS {||$C$L28||}   ; [] |1887| 
    1971                    ;* --------------------------------------------------------------------------*
    1972 0000039e 2001              MOVS      A1, #1                ; [DPU_3_PIPE] |1887|  ; [ORIG 16-BIT INS]
    1973                    ;* --------------------------------------------------------------------------*
    1974 000003a0           ||$C$L28||:    
    1975 000003a0 B120              CBZ       A1, ||$C$L29||        ; []  ; [ORIG 16-BIT INS]
TI ARM Assembler PC v5.1.7 Tue Sep 16 08:38:42 2014

Tools Copyright (c) 1996-2014 Texas Instruments Incorporated
tasks.asm                                                            PAGE   37

    1976                            ; BRANCHCC OCCURS {||$C$L29||}   ; [] |1887| 
    1977                    ;* --------------------------------------------------------------------------*
    1978                            .dwpsn  file "../Source/tasks.c",line 1894,column 7,is_stmt,isa 1
    1979 000003a2 49A4              LDR       A2, $C$CON18          ; [DPU_3_PIPE] |1894|  ; [ORIG 16-BIT INS]
    1980 000003a4 30FFF04F          MOV       A1, #-1               ; [DPU_3_PIPE] |1894|  ; [KEEP 32-BIT INS]
    1981 000003a8 6008              STR       A1, [A2, #0]          ; [DPU_3_PIPE] |1894|  ; [ORIG 16-BIT INS]
    1982                            .dwpsn  file "../Source/tasks.c",line 1895,column 7,is_stmt,isa 1
    1983 000003aa E034              B         ||$C$L34||            ; [DPU_3_PIPE] |1895|  ; [ORIG 16-BIT INS]
    1984                            ; BRANCH OCCURS {||$C$L34||}     ; [] |1895| 
    1985                    ;* --------------------------------------------------------------------------*
    1986                    ;* --------------------------------------------------------------------------*
    1987 000003ac           ||$C$L29||:    
    1988                            .dwpsn  file "../Source/tasks.c",line 1903,column 7,is_stmt,isa 1
    1989 000003ac 4880              LDR       A1, $C$CON15          ; [DPU_3_PIPE] |1903|  ; [ORIG 16-BIT INS]
    1990 000003ae 6800              LDR       A1, [A1, #0]          ; [DPU_3_PIPE] |1903|  ; [ORIG 16-BIT INS]
    1991 000003b0 68C0              LDR       A1, [A1, #12]         ; [DPU_3_PIPE] |1903|  ; [ORIG 16-BIT INS]
    1992 000003b2 68C0              LDR       A1, [A1, #12]         ; [DPU_3_PIPE] |1903|  ; [ORIG 16-BIT INS]
    1993 000003b4 9000              STR       A1, [SP, #0]          ; [DPU_3_PIPE] |1903|  ; [ORIG 16-BIT INS]
    1994                            .dwpsn  file "../Source/tasks.c",line 1904,column 7,is_stmt,isa 1
    1995 000003b6 9800              LDR       A1, [SP, #0]          ; [DPU_3_PIPE] |1904|  ; [ORIG 16-BIT INS]
    1996 000003b8 6840              LDR       A1, [A1, #4]          ; [DPU_3_PIPE] |1904|  ; [ORIG 16-BIT INS]
    1997 000003ba 9001              STR       A1, [SP, #4]          ; [DPU_3_PIPE] |1904|  ; [ORIG 16-BIT INS]
    1998                            .dwpsn  file "../Source/tasks.c",line 1906,column 7,is_stmt,isa 1
    1999 000003bc 9903              LDR       A2, [SP, #12]         ; [DPU_3_PIPE] |1906|  ; [ORIG 16-BIT INS]
    2000 000003be 9801              LDR       A1, [SP, #4]          ; [DPU_3_PIPE] |1906|  ; [ORIG 16-BIT INS]
    2001 000003c0 4288              CMP       A1, A2                ; [DPU_3_PIPE] |1906|  ; [ORIG 16-BIT INS]
    2002 000003c2 D903              BLS       ||$C$L30||            ; [DPU_3_PIPE] |1906|  ; [ORIG 16-BIT INS]
    2003                            ; BRANCHCC OCCURS {||$C$L30||}   ; [] |1906| 
    2004                    ;* --------------------------------------------------------------------------*
    2005                            .dwpsn  file "../Source/tasks.c",line 1913,column 8,is_stmt,isa 1
    2006 000003c4 9801              LDR       A1, [SP, #4]          ; [DPU_3_PIPE] |1913|  ; [ORIG 16-BIT INS]
    2007 000003c6 499B              LDR       A2, $C$CON18          ; [DPU_3_PIPE] |1913|  ; [ORIG 16-BIT INS]
    2008 000003c8 6008              STR       A1, [A2, #0]          ; [DPU_3_PIPE] |1913|  ; [ORIG 16-BIT INS]
    2009                            .dwpsn  file "../Source/tasks.c",line 1914,column 8,is_stmt,isa 1
    2010 000003ca E024              B         ||$C$L34||            ; [DPU_3_PIPE] |1914|  ; [ORIG 16-BIT INS]
    2011                            ; BRANCH OCCURS {||$C$L34||}     ; [] |1914| 
    2012                    ;* --------------------------------------------------------------------------*
    2013                    ;* --------------------------------------------------------------------------*
    2014 000003cc           ||$C$L30||:    
    2015                            .dwpsn  file "../Source/tasks.c",line 1922,column 7,is_stmt,isa 1
    2016 000003cc 9800              LDR       A1, [SP, #0]          ; [DPU_3_PIPE] |1922|  ; [ORIG 16-BIT INS]
    2017 000003ce 1D00              ADDS      A1, A1, #4            ; [DPU_3_PIPE] |1922|  ; [ORIG 16-BIT INS]
    2018                    $C$DW$142       .dwtag  DW_TAG_TI_branch
    2019                            .dwattr $C$DW$142, DW_AT_low_pc(0x00)
    2020                            .dwattr $C$DW$142, DW_AT_name("uxListRemove")
    2021                            .dwattr $C$DW$142, DW_AT_TI_call
    2022 000003d0 FFFEF7FF!         BL        uxListRemove          ; [DPU_3_PIPE] |1922|  ; [KEEP 32-BIT INS]
    2023                            ; CALL OCCURS {uxListRemove }    ; [] |1922| 
    2024                            .dwpsn  file "../Source/tasks.c",line 1926,column 7,is_stmt,isa 1
    2025 000003d4 9800              LDR       A1, [SP, #0]          ; [DPU_3_PIPE] |1926|  ; [ORIG 16-BIT INS]
    2026 000003d6 6A80              LDR       A1, [A1, #40]         ; [DPU_3_PIPE] |1926|  ; [ORIG 16-BIT INS]
    2027 000003d8 B118              CBZ       A1, ||$C$L31||        ; []  ; [ORIG 16-BIT INS]
    2028                            ; BRANCHCC OCCURS {||$C$L31||}   ; [] |1926| 
    2029                    ;* --------------------------------------------------------------------------*
    2030                            .dwpsn  file "../Source/tasks.c",line 1928,column 8,is_stmt,isa 1
TI ARM Assembler PC v5.1.7 Tue Sep 16 08:38:42 2014

Tools Copyright (c) 1996-2014 Texas Instruments Incorporated
tasks.asm                                                            PAGE   38

    2031 000003da 9800              LDR       A1, [SP, #0]          ; [DPU_3_PIPE] |1928|  ; [ORIG 16-BIT INS]
    2032 000003dc 3018              ADDS      A1, A1, #24           ; [DPU_3_PIPE] |1928|  ; [ORIG 16-BIT INS]
    2033                    $C$DW$143       .dwtag  DW_TAG_TI_branch
    2034                            .dwattr $C$DW$143, DW_AT_low_pc(0x00)
    2035                            .dwattr $C$DW$143, DW_AT_name("uxListRemove")
    2036                            .dwattr $C$DW$143, DW_AT_TI_call
    2037 000003de FFFEF7FF!         BL        uxListRemove          ; [DPU_3_PIPE] |1928|  ; [KEEP 32-BIT INS]
    2038                            ; CALL OCCURS {uxListRemove }    ; [] |1928| 
    2039                            .dwpsn  file "../Source/tasks.c",line 1929,column 7,is_stmt,isa 1
    2040                    ;* --------------------------------------------------------------------------*
    2041 000003e2           ||$C$L31||:    
    2042                            .dwpsn  file "../Source/tasks.c",line 1937,column 7,is_stmt,isa 1
    2043 000003e2 489C              LDR       A1, $C$CON19          ; [DPU_3_PIPE] |1937|  ; [ORIG 16-BIT INS]
    2044 000003e4 9900              LDR       A2, [SP, #0]          ; [DPU_3_PIPE] |1937|  ; [ORIG 16-BIT INS]
    2045 000003e6 6800              LDR       A1, [A1, #0]          ; [DPU_3_PIPE] |1937|  ; [ORIG 16-BIT INS]
    2046 000003e8 6AC9              LDR       A2, [A2, #44]         ; [DPU_3_PIPE] |1937|  ; [ORIG 16-BIT INS]
    2047 000003ea 4288              CMP       A1, A2                ; [DPU_3_PIPE] |1937|  ; [ORIG 16-BIT INS]
    2048 000003ec D203              BCS       ||$C$L32||            ; [DPU_3_PIPE] |1937|  ; [ORIG 16-BIT INS]
    2049                            ; BRANCHCC OCCURS {||$C$L32||}   ; [] |1937| 
    2050                    ;* --------------------------------------------------------------------------*
    2051 000003ee 9800              LDR       A1, [SP, #0]          ; [DPU_3_PIPE] |1937|  ; [ORIG 16-BIT INS]
    2052 000003f0 4998              LDR       A2, $C$CON19          ; [DPU_3_PIPE] |1937|  ; [ORIG 16-BIT INS]
    2053 000003f2 6AC0              LDR       A1, [A1, #44]         ; [DPU_3_PIPE] |1937|  ; [ORIG 16-BIT INS]
    2054 000003f4 6008              STR       A1, [A2, #0]          ; [DPU_3_PIPE] |1937|  ; [ORIG 16-BIT INS]
    2055                    ;* --------------------------------------------------------------------------*
    2056 000003f6           ||$C$L32||:    
    2057 000003f6 9800              LDR       A1, [SP, #0]          ; [DPU_3_PIPE] |1937|  ; [ORIG 16-BIT INS]
    2058 000003f8 6AC3              LDR       A4, [A1, #44]         ; [DPU_3_PIPE] |1937|  ; [ORIG 16-BIT INS]
    2059 000003fa 9900              LDR       A2, [SP, #0]          ; [DPU_3_PIPE] |1937|  ; [ORIG 16-BIT INS]
    2060 000003fc 48B1              LDR       A1, $C$CON20          ; [DPU_3_PIPE] |1937|  ; [ORIG 16-BIT INS]
    2061 000003fe 009A              LSLS      A3, A4, #2            ; [DPU_3_PIPE] |1937|  ; [ORIG 16-BIT INS]
    2062 00000400 1D09              ADDS      A2, A2, #4            ; [DPU_3_PIPE] |1937|  ; [ORIG 16-BIT INS]
    2063 00000402 1203EB02          ADD       A3, A3, A4, LSL #4    ; [DPU_3_PIPE] |1937|  ; [KEEP 32-BIT INS]
    2064 00000406 1880              ADDS      A1, A1, A3            ; [DPU_3_PIPE] |1937|  ; [ORIG 16-BIT INS]
    2065                    $C$DW$144       .dwtag  DW_TAG_TI_branch
    2066                            .dwattr $C$DW$144, DW_AT_low_pc(0x00)
    2067                            .dwattr $C$DW$144, DW_AT_name("vListInsertEnd")
    2068                            .dwattr $C$DW$144, DW_AT_TI_call
    2069 00000408 FFFEF7FF!         BL        vListInsertEnd        ; [DPU_3_PIPE] |1937|  ; [KEEP 32-BIT INS]
    2070                            ; CALL OCCURS {vListInsertEnd }  ; [] |1937| 
    2071                            .dwpsn  file "../Source/tasks.c",line 1958,column 5,is_stmt,isa 1
    2072 0000040c E7C2              B         ||$C$L27||            ; [DPU_3_PIPE] |1958|  ; [ORIG 16-BIT INS]
    2073                            ; BRANCH OCCURS {||$C$L27||}     ; [] |1958| 
    2074                    ;* --------------------------------------------------------------------------*
    2075                            .dwendtag $C$DW$137
    2076                    
    2077                    ;* --------------------------------------------------------------------------*
    2078 0000040e           ||$C$L33||:    
    2079                            .dwpsn  file "../Source/tasks.c",line 1995,column 3,is_stmt,isa 1
    2080 0000040e 4947              LDR       A2, $C$CON13          ; [DPU_3_PIPE] |1995|  ; [ORIG 16-BIT INS]
    2081 00000410 6808              LDR       A1, [A2, #0]          ; [DPU_3_PIPE] |1995|  ; [ORIG 16-BIT INS]
    2082 00000412 1C40              ADDS      A1, A1, #1            ; [DPU_3_PIPE] |1995|  ; [ORIG 16-BIT INS]
    2083 00000414 6008              STR       A1, [A2, #0]          ; [DPU_3_PIPE] |1995|  ; [ORIG 16-BIT INS]
    2084                    ;* --------------------------------------------------------------------------*
    2085 00000416           ||$C$L34||:    
TI ARM Assembler PC v5.1.7 Tue Sep 16 08:38:42 2014

Tools Copyright (c) 1996-2014 Texas Instruments Incorporated
tasks.asm                                                            PAGE   39

    2086                            .dwpsn  file "../Source/tasks.c",line 2019,column 2,is_stmt,isa 1
    2087 00000416 9802              LDR       A1, [SP, #8]          ; [DPU_3_PIPE] |2019|  ; [ORIG 16-BIT INS]
    2088                            .dwpsn  file "../Source/tasks.c",line 2020,column 1,is_stmt,isa 1
    2089 00000418 B006              ADD       SP, SP, #24           ; [DPU_3_PIPE]  ; [ORIG 16-BIT INS]
    2090                            .dwcfi  cfa_offset, 8
    2091                    $C$DW$145       .dwtag  DW_TAG_TI_branch
    2092                            .dwattr $C$DW$145, DW_AT_low_pc(0x00)
    2093                            .dwattr $C$DW$145, DW_AT_TI_return
    2094 0000041a BD10              POP       {V1, PC}              ; [DPU_3_PIPE]  ; [ORIG 16-BIT INS]
    2095                            .dwcfi  cfa_offset, 0
    2096                            ; BRANCH OCCURS                  ; [] 
    2097                            .dwattr $C$DW$133, DW_AT_TI_end_file("../Source/tasks.c")
    2098                            .dwattr $C$DW$133, DW_AT_TI_end_line(0x7e4)
    2099                            .dwattr $C$DW$133, DW_AT_TI_end_column(0x01)
    2100                            .dwendentry
    2101                            .dwendtag $C$DW$133
    2102                    
    2103                    ;******************************************************************************
    2104                    ;* STRINGS                                                                    *
    2105                    ;******************************************************************************
    2106 0000041c                   .sect   ".text"
    2107                            .align  4
    2108 0000041c 49        ||$C$SL1||:     .string "IDLE",0
         0000041d 44       
         0000041e 4C       
         0000041f 45       
         00000420 00       
    2109                    ;******************************************************************************
    2110                    ;* CONSTANT TABLE                                                             *
    2111                    ;******************************************************************************
    2112 00000421                   .sect   ".text"
    2113                            .align  4
    2114 00000424 00000000! ||$C$CON8||:    .bits   prvIdleTask,32
    2115 00000428                   .sect   ".text"
    2116                            .clink
    2117                            .thumbfunc vTaskSwitchContext
    2118 00000428                   .thumb
    2119                            .global vTaskSwitchContext
    2120                    
    2121                    $C$DW$146       .dwtag  DW_TAG_subprogram, DW_AT_name("vTaskSwitchContext")
    2122                            .dwattr $C$DW$146, DW_AT_low_pc(vTaskSwitchContext)
    2123                            .dwattr $C$DW$146, DW_AT_high_pc(0x00)
    2124                            .dwattr $C$DW$146, DW_AT_TI_symbol_name("vTaskSwitchContext")
    2125                            .dwattr $C$DW$146, DW_AT_external
    2126                            .dwattr $C$DW$146, DW_AT_TI_begin_file("../Source/tasks.c")
    2127                            .dwattr $C$DW$146, DW_AT_TI_begin_line(0x841)
    2128                            .dwattr $C$DW$146, DW_AT_TI_begin_column(0x06)
    2129                            .dwattr $C$DW$146, DW_AT_decl_file("../Source/tasks.c")
    2130                            .dwattr $C$DW$146, DW_AT_decl_line(0x841)
    2131                            .dwattr $C$DW$146, DW_AT_decl_column(0x06)
    2132                            .dwattr $C$DW$146, DW_AT_TI_max_frame_size(0x08)
    2133                            .dwpsn  file "../Source/tasks.c",line 2114,column 1,is_stmt,address vTaskSwitchContext,isa 1
    2134                    
    2135                            .dwfde $C$DW$CIE, vTaskSwitchContext
    2136                    
TI ARM Assembler PC v5.1.7 Tue Sep 16 08:38:42 2014

Tools Copyright (c) 1996-2014 Texas Instruments Incorporated
tasks.asm                                                            PAGE   40

    2137                    ;*****************************************************************************
    2138                    ;* FUNCTION NAME: vTaskSwitchContext                                         *
    2139                    ;*                                                                           *
    2140                    ;*   Regs Modified     : A1,A2,A3,SP,SR                                      *
    2141                    ;*   Regs Used         : A1,A2,A3,SP,LR,SR                                   *
    2142                    ;*   Local Frame Size  : 0 Args + 4 Auto + 0 Save = 4 byte                   *
    2143                    ;*****************************************************************************
    2144 00000428           vTaskSwitchContext:
    2145                    ;* --------------------------------------------------------------------------*
    2146                            .dwcfi  cfa_offset, 0
    2147 00000428 0D08F1AD          SUB       SP, SP, #8            ; [DPU_3_PIPE]  ; [KEEP 32-BIT INS]
    2148                            .dwcfi  cfa_offset, 8
    2149                            .dwpsn  file "../Source/tasks.c",line 2115,column 2,is_stmt,isa 1
    2150 0000042c 481C              LDR       A1, $C$CON9           ; [DPU_3_PIPE] |2115|  ; [ORIG 16-BIT INS]
    2151 0000042e 6800              LDR       A1, [A1, #0]          ; [DPU_3_PIPE] |2115|  ; [ORIG 16-BIT INS]
    2152 00000430 B118              CBZ       A1, ||$C$L35||        ; []  ; [ORIG 16-BIT INS]
    2153                            ; BRANCHCC OCCURS {||$C$L35||}   ; [] |2115| 
    2154                    ;* --------------------------------------------------------------------------*
    2155                            .dwpsn  file "../Source/tasks.c",line 2119,column 3,is_stmt,isa 1
    2156 00000432 493C              LDR       A2, $C$CON11          ; [DPU_3_PIPE] |2119|  ; [ORIG 16-BIT INS]
    2157 00000434 2001              MOVS      A1, #1                ; [DPU_3_PIPE] |2119|  ; [ORIG 16-BIT INS]
    2158 00000436 6008              STR       A1, [A2, #0]          ; [DPU_3_PIPE] |2119|  ; [ORIG 16-BIT INS]
    2159                            .dwpsn  file "../Source/tasks.c",line 2120,column 2,is_stmt,isa 1
    2160 00000438 E030              B         ||$C$L40||            ; [DPU_3_PIPE] |2120|  ; [ORIG 16-BIT INS]
    2161                            ; BRANCH OCCURS {||$C$L40||}     ; [] |2120| 
    2162                    ;* --------------------------------------------------------------------------*
    2163 0000043a           ||$C$L35||:    
    2164                            .dwpsn  file "../Source/tasks.c",line 2123,column 3,is_stmt,isa 1
    2165 0000043a 493A              LDR       A2, $C$CON11          ; [DPU_3_PIPE] |2123|  ; [ORIG 16-BIT INS]
    2166 0000043c 2000              MOVS      A1, #0                ; [DPU_3_PIPE] |2123|  ; [ORIG 16-BIT INS]
    2167 0000043e 6008              STR       A1, [A2, #0]          ; [DPU_3_PIPE] |2123|  ; [ORIG 16-BIT INS]
    2168                            .dwpsn  file "../Source/tasks.c",line 2156,column 3,is_stmt,isa 1
    2169 00000440 E003              B         ||$C$L37||            ; [DPU_3_PIPE] |2156|  ; [ORIG 16-BIT INS]
    2170                            ; BRANCH OCCURS {||$C$L37||}     ; [] |2156| 
    2171                    ;* --------------------------------------------------------------------------*
    2172 00000442           ||$C$L36||:    
    2173 00000442 4984              LDR       A2, $C$CON19          ; [DPU_3_PIPE] |2156|  ; [ORIG 16-BIT INS]
    2174 00000444 6808              LDR       A1, [A2, #0]          ; [DPU_3_PIPE] |2156|  ; [ORIG 16-BIT INS]
    2175 00000446 1E40              SUBS      A1, A1, #1            ; [DPU_3_PIPE] |2156|  ; [ORIG 16-BIT INS]
    2176 00000448 6008              STR       A1, [A2, #0]          ; [DPU_3_PIPE] |2156|  ; [ORIG 16-BIT INS]
    2177                    ;* --------------------------------------------------------------------------*
    2178                    ;*   BEGIN LOOP ||$C$L37||
    2179                    ;* --------------------------------------------------------------------------*
    2180 0000044a           ||$C$L37||:    
    2181 0000044a 4882              LDR       A1, $C$CON19          ; [DPU_3_PIPE] |2156|  ; [ORIG 16-BIT INS]
    2182 0000044c 499D              LDR       A2, $C$CON20          ; [DPU_3_PIPE] |2156|  ; [ORIG 16-BIT INS]
    2183 0000044e 6802              LDR       A3, [A1, #0]          ; [DPU_3_PIPE] |2156|  ; [ORIG 16-BIT INS]
    2184 00000450 0090              LSLS      A1, A3, #2            ; [DPU_3_PIPE] |2156|  ; [ORIG 16-BIT INS]
    2185 00000452 1002EB00          ADD       A1, A1, A3, LSL #4    ; [DPU_3_PIPE] |2156|  ; [KEEP 32-BIT INS]
    2186 00000456 5809              LDR       A2, [A2, +A1]         ; [DPU_3_PIPE] |2156|  ; [ORIG 16-BIT INS]
    2187 00000458 2000              MOVS      A1, #0                ; [DPU_3_PIPE] |2156|  ; [ORIG 16-BIT INS]
    2188 0000045a B901              CBNZ      A2, ||$C$L38||        ; []  ; [ORIG 16-BIT INS]
    2189                            ; BRANCHCC OCCURS {||$C$L38||}   ; [] |2156| 
    2190                    ;* --------------------------------------------------------------------------*
    2191 0000045c 2001              MOVS      A1, #1                ; [DPU_3_PIPE] |2156|  ; [ORIG 16-BIT INS]
TI ARM Assembler PC v5.1.7 Tue Sep 16 08:38:42 2014

Tools Copyright (c) 1996-2014 Texas Instruments Incorporated
tasks.asm                                                            PAGE   41

    2192                    ;* --------------------------------------------------------------------------*
    2193 0000045e           ||$C$L38||:    
    2194 0000045e 2800              CMP       A1, #0                ; [DPU_3_PIPE] |2156|  ; [ORIG 16-BIT INS]
    2195 00000460 D1EF              BNE       ||$C$L36||            ; [DPU_3_PIPE] |2156|  ; [ORIG 16-BIT INS]
    2196                            ; BRANCHCC OCCURS {||$C$L36||}   ; [] |2156| 
    2197                    ;* --------------------------------------------------------------------------*
    2198                    
    2199                    $C$DW$147       .dwtag  DW_TAG_lexical_block, DW_AT_low_pc(0x00), DW_AT_high_pc(0x00)
    2200                    $C$DW$148       .dwtag  DW_TAG_variable, DW_AT_name("pxConstList")
    2201                            .dwattr $C$DW$148, DW_AT_TI_symbol_name("pxConstList")
    2202                            .dwattr $C$DW$148, DW_AT_type(*$C$DW$T$77)
    2203                            .dwattr $C$DW$148, DW_AT_location[DW_OP_breg13 0]
    2204 00000462 487C              LDR       A1, $C$CON19          ; [DPU_3_PIPE] |2156|  ; [ORIG 16-BIT INS]
    2205 00000464 4997              LDR       A2, $C$CON20          ; [DPU_3_PIPE] |2156|  ; [ORIG 16-BIT INS]
    2206 00000466 6802              LDR       A3, [A1, #0]          ; [DPU_3_PIPE] |2156|  ; [ORIG 16-BIT INS]
    2207 00000468 0090              LSLS      A1, A3, #2            ; [DPU_3_PIPE] |2156|  ; [ORIG 16-BIT INS]
    2208 0000046a 1002EB00          ADD       A1, A1, A3, LSL #4    ; [DPU_3_PIPE] |2156|  ; [KEEP 32-BIT INS]
    2209 0000046e 1809              ADDS      A2, A2, A1            ; [DPU_3_PIPE] |2156|  ; [ORIG 16-BIT INS]
    2210 00000470 9100              STR       A2, [SP, #0]          ; [DPU_3_PIPE] |2156|  ; [ORIG 16-BIT INS]
    2211 00000472 9800              LDR       A1, [SP, #0]          ; [DPU_3_PIPE] |2156|  ; [ORIG 16-BIT INS]
    2212 00000474 9900              LDR       A2, [SP, #0]          ; [DPU_3_PIPE] |2156|  ; [ORIG 16-BIT INS]
    2213 00000476 6840              LDR       A1, [A1, #4]          ; [DPU_3_PIPE] |2156|  ; [ORIG 16-BIT INS]
    2214 00000478 6840              LDR       A1, [A1, #4]          ; [DPU_3_PIPE] |2156|  ; [ORIG 16-BIT INS]
    2215 0000047a 6048              STR       A1, [A2, #4]          ; [DPU_3_PIPE] |2156|  ; [ORIG 16-BIT INS]
    2216 0000047c 9900              LDR       A2, [SP, #0]          ; [DPU_3_PIPE] |2156|  ; [ORIG 16-BIT INS]
    2217 0000047e 9800              LDR       A1, [SP, #0]          ; [DPU_3_PIPE] |2156|  ; [ORIG 16-BIT INS]
    2218 00000480 6849              LDR       A2, [A2, #4]          ; [DPU_3_PIPE] |2156|  ; [ORIG 16-BIT INS]
    2219 00000482 3008              ADDS      A1, A1, #8            ; [DPU_3_PIPE] |2156|  ; [ORIG 16-BIT INS]
    2220 00000484 4288              CMP       A1, A2                ; [DPU_3_PIPE] |2156|  ; [ORIG 16-BIT INS]
    2221 00000486 D104              BNE       ||$C$L39||            ; [DPU_3_PIPE] |2156|  ; [ORIG 16-BIT INS]
    2222                            ; BRANCHCC OCCURS {||$C$L39||}   ; [] |2156| 
    2223                    ;* --------------------------------------------------------------------------*
    2224 00000488 9800              LDR       A1, [SP, #0]          ; [DPU_3_PIPE] |2156|  ; [ORIG 16-BIT INS]
    2225 0000048a 9900              LDR       A2, [SP, #0]          ; [DPU_3_PIPE] |2156|  ; [ORIG 16-BIT INS]
    2226 0000048c 6840              LDR       A1, [A1, #4]          ; [DPU_3_PIPE] |2156|  ; [ORIG 16-BIT INS]
    2227 0000048e 6840              LDR       A1, [A1, #4]          ; [DPU_3_PIPE] |2156|  ; [ORIG 16-BIT INS]
    2228 00000490 6048              STR       A1, [A2, #4]          ; [DPU_3_PIPE] |2156|  ; [ORIG 16-BIT INS]
    2229                    ;* --------------------------------------------------------------------------*
    2230 00000492           ||$C$L39||:    
    2231 00000492 9800              LDR       A1, [SP, #0]          ; [DPU_3_PIPE] |2156|  ; [ORIG 16-BIT INS]
    2232 00000494 4992              LDR       A2, $C$CON21          ; [DPU_3_PIPE] |2156|  ; [ORIG 16-BIT INS]
    2233 00000496 6840              LDR       A1, [A1, #4]          ; [DPU_3_PIPE] |2156|  ; [ORIG 16-BIT INS]
    2234 00000498 68C0              LDR       A1, [A1, #12]         ; [DPU_3_PIPE] |2156|  ; [ORIG 16-BIT INS]
    2235 0000049a 6008              STR       A1, [A2, #0]          ; [DPU_3_PIPE] |2156|  ; [ORIG 16-BIT INS]
    2236                            .dwendtag $C$DW$147
    2237                    
    2238                            .dwpsn  file "../Source/tasks.c",line 2168,column 1,is_stmt,isa 1
    2239                    ;* --------------------------------------------------------------------------*
    2240 0000049c           ||$C$L40||:    
    2241 0000049c B002              ADD       SP, SP, #8            ; [DPU_3_PIPE]  ; [ORIG 16-BIT INS]
    2242                            .dwcfi  cfa_offset, 0
    2243                    $C$DW$149       .dwtag  DW_TAG_TI_branch
    2244                            .dwattr $C$DW$149, DW_AT_low_pc(0x00)
    2245                            .dwattr $C$DW$149, DW_AT_TI_return
    2246 0000049e 4770              BX        LR                    ; [DPU_3_PIPE]  ; [ORIG 16-BIT INS]
TI ARM Assembler PC v5.1.7 Tue Sep 16 08:38:42 2014

Tools Copyright (c) 1996-2014 Texas Instruments Incorporated
tasks.asm                                                            PAGE   42

    2247                            ; BRANCH OCCURS                  ; [] 
    2248                            .dwattr $C$DW$146, DW_AT_TI_end_file("../Source/tasks.c")
    2249                            .dwattr $C$DW$146, DW_AT_TI_end_line(0x878)
    2250                            .dwattr $C$DW$146, DW_AT_TI_end_column(0x01)
    2251                            .dwendentry
    2252                            .dwendtag $C$DW$146
    2253                    
    2254                    ;******************************************************************************
    2255                    ;* CONSTANT TABLE                                                             *
    2256                    ;******************************************************************************
    2257 000004a0                   .sect   ".text"
    2258                            .align  4
    2259 000004a0 00000000! ||$C$CON9||:    .bits   uxSchedulerSuspended,32
    2260 000004a4                   .sect   ".text"
    2261                            .clink
    2262                            .thumbfunc vTaskPlaceOnEventList
    2263 000004a4                   .thumb
    2264                            .global vTaskPlaceOnEventList
    2265                    
    2266                    $C$DW$150       .dwtag  DW_TAG_subprogram, DW_AT_name("vTaskPlaceOnEventList")
    2267                            .dwattr $C$DW$150, DW_AT_low_pc(vTaskPlaceOnEventList)
    2268                            .dwattr $C$DW$150, DW_AT_high_pc(0x00)
    2269                            .dwattr $C$DW$150, DW_AT_TI_symbol_name("vTaskPlaceOnEventList")
    2270                            .dwattr $C$DW$150, DW_AT_external
    2271                            .dwattr $C$DW$150, DW_AT_TI_begin_file("../Source/tasks.c")
    2272                            .dwattr $C$DW$150, DW_AT_TI_begin_line(0x87b)
    2273                            .dwattr $C$DW$150, DW_AT_TI_begin_column(0x06)
    2274                            .dwattr $C$DW$150, DW_AT_decl_file("../Source/tasks.c")
    2275                            .dwattr $C$DW$150, DW_AT_decl_line(0x87b)
    2276                            .dwattr $C$DW$150, DW_AT_decl_column(0x06)
    2277                            .dwattr $C$DW$150, DW_AT_TI_max_frame_size(0x10)
    2278                            .dwpsn  file "../Source/tasks.c",line 2172,column 1,is_stmt,address vTaskPlaceOnEventList,isa 
    2279                    
    2280                            .dwfde $C$DW$CIE, vTaskPlaceOnEventList
    2281                    $C$DW$151       .dwtag  DW_TAG_formal_parameter, DW_AT_name("pxEventList")
    2282                            .dwattr $C$DW$151, DW_AT_TI_symbol_name("pxEventList")
    2283                            .dwattr $C$DW$151, DW_AT_type(*$C$DW$T$77)
    2284                            .dwattr $C$DW$151, DW_AT_location[DW_OP_reg0]
    2285                    $C$DW$152       .dwtag  DW_TAG_formal_parameter, DW_AT_name("xTicksToWait")
    2286                            .dwattr $C$DW$152, DW_AT_TI_symbol_name("xTicksToWait")
    2287                            .dwattr $C$DW$152, DW_AT_type(*$C$DW$T$87)
    2288                            .dwattr $C$DW$152, DW_AT_location[DW_OP_reg1]
    2289                    
    2290                    ;*****************************************************************************
    2291                    ;* FUNCTION NAME: vTaskPlaceOnEventList                                      *
    2292                    ;*                                                                           *
    2293                    ;*   Regs Modified     : A1,A2,A3,A4,V9,SP,LR,SR,D0,D0_hi,D1,D1_hi,D2,D2_hi, *
    2294                    ;*                           D3,D3_hi,D4,D4_hi,D5,D5_hi,D6,D6_hi,D7,D7_hi,   *
    2295                    ;*                           FPEXC,FPSCR                                     *
    2296                    ;*   Regs Used         : A1,A2,A3,A4,V9,SP,LR,SR,D0,D0_hi,D1,D1_hi,D2,D2_hi, *
    2297                    ;*                           D3,D3_hi,D4,D4_hi,D5,D5_hi,D6,D6_hi,D7,D7_hi,   *
    2298                    ;*                           FPEXC,FPSCR                                     *
    2299                    ;*   Local Frame Size  : 0 Args + 12 Auto + 4 Save = 16 byte                 *
    2300                    ;*****************************************************************************
    2301 000004a4           vTaskPlaceOnEventList:
TI ARM Assembler PC v5.1.7 Tue Sep 16 08:38:42 2014

Tools Copyright (c) 1996-2014 Texas Instruments Incorporated
tasks.asm                                                            PAGE   43

    2302                    ;* --------------------------------------------------------------------------*
    2303                            .dwcfi  cfa_offset, 0
    2304 000004a4 B50E              PUSH      {A2, A3, A4, LR}      ; [DPU_3_PIPE]  ; [ORIG 16-BIT INS]
    2305                            .dwcfi  cfa_offset, 16
    2306                            .dwcfi  save_reg_to_mem, 14, -4
    2307                            .dwcfi  save_reg_to_mem, 3, -8
    2308                            .dwcfi  save_reg_to_mem, 2, -12
    2309                            .dwcfi  save_reg_to_mem, 1, -16
    2310                    $C$DW$153       .dwtag  DW_TAG_variable, DW_AT_name("pxEventList")
    2311                            .dwattr $C$DW$153, DW_AT_TI_symbol_name("pxEventList")
    2312                            .dwattr $C$DW$153, DW_AT_type(*$C$DW$T$77)
    2313                            .dwattr $C$DW$153, DW_AT_location[DW_OP_breg13 0]
    2314                    $C$DW$154       .dwtag  DW_TAG_variable, DW_AT_name("xTicksToWait")
    2315                            .dwattr $C$DW$154, DW_AT_TI_symbol_name("xTicksToWait")
    2316                            .dwattr $C$DW$154, DW_AT_type(*$C$DW$T$87)
    2317                            .dwattr $C$DW$154, DW_AT_location[DW_OP_breg13 4]
    2318                    $C$DW$155       .dwtag  DW_TAG_variable, DW_AT_name("xTimeToWake")
    2319                            .dwattr $C$DW$155, DW_AT_TI_symbol_name("xTimeToWake")
    2320                            .dwattr $C$DW$155, DW_AT_type(*$C$DW$T$36)
    2321                            .dwattr $C$DW$155, DW_AT_location[DW_OP_breg13 8]
    2322 000004a6 9101              STR       A2, [SP, #4]          ; [DPU_3_PIPE] |2172|  ; [ORIG 16-BIT INS]
    2323 000004a8 9000              STR       A1, [SP, #0]          ; [DPU_3_PIPE] |2172|  ; [ORIG 16-BIT INS]
    2324                            .dwpsn  file "../Source/tasks.c",line 2184,column 2,is_stmt,isa 1
    2325 000004aa 488D              LDR       A1, $C$CON21          ; [DPU_3_PIPE] |2184|  ; [ORIG 16-BIT INS]
    2326 000004ac 6801              LDR       A2, [A1, #0]          ; [DPU_3_PIPE] |2184|  ; [ORIG 16-BIT INS]
    2327 000004ae 9800              LDR       A1, [SP, #0]          ; [DPU_3_PIPE] |2184|  ; [ORIG 16-BIT INS]
    2328 000004b0 3118              ADDS      A2, A2, #24           ; [DPU_3_PIPE] |2184|  ; [ORIG 16-BIT INS]
    2329                    $C$DW$156       .dwtag  DW_TAG_TI_branch
    2330                            .dwattr $C$DW$156, DW_AT_low_pc(0x00)
    2331                            .dwattr $C$DW$156, DW_AT_name("vListInsert")
    2332                            .dwattr $C$DW$156, DW_AT_TI_call
    2333 000004b2 FFFEF7FF!         BL        vListInsert           ; [DPU_3_PIPE] |2184|  ; [KEEP 32-BIT INS]
    2334                            ; CALL OCCURS {vListInsert }     ; [] |2184| 
    2335                            .dwpsn  file "../Source/tasks.c",line 2189,column 2,is_stmt,isa 1
    2336 000004b6 488A              LDR       A1, $C$CON21          ; [DPU_3_PIPE] |2189|  ; [ORIG 16-BIT INS]
    2337 000004b8 6800              LDR       A1, [A1, #0]          ; [DPU_3_PIPE] |2189|  ; [ORIG 16-BIT INS]
    2338 000004ba 1D00              ADDS      A1, A1, #4            ; [DPU_3_PIPE] |2189|  ; [ORIG 16-BIT INS]
    2339                    $C$DW$157       .dwtag  DW_TAG_TI_branch
    2340                            .dwattr $C$DW$157, DW_AT_low_pc(0x00)
    2341                            .dwattr $C$DW$157, DW_AT_name("uxListRemove")
    2342                            .dwattr $C$DW$157, DW_AT_TI_call
    2343 000004bc FFFEF7FF!         BL        uxListRemove          ; [DPU_3_PIPE] |2189|  ; [KEEP 32-BIT INS]
    2344                            ; CALL OCCURS {uxListRemove }    ; [] |2189| 
    2345 000004c0 2800              CMP       A1, #0                ; [DPU_3_PIPE] |2189|  ; [ORIG 16-BIT INS]
    2346 000004c2 D0FF              BEQ       ||$C$L41||            ; [DPU_3_PIPE] |2189|  ; [ORIG 16-BIT INS]
    2347                            ; BRANCHCC OCCURS {||$C$L41||}   ; [] |2189| 
    2348                    ;* --------------------------------------------------------------------------*
    2349                            .dwpsn  file "../Source/tasks.c",line 2194,column 2,is_stmt,isa 1
    2350                    ;* --------------------------------------------------------------------------*
    2351 000004c4           ||$C$L41||:    
    2352                            .dwpsn  file "../Source/tasks.c",line 2223,column 4,is_stmt,isa 1
    2353 000004c4 49A7              LDR       A2, $C$CON22          ; [DPU_3_PIPE] |2223|  ; [ORIG 16-BIT INS]
    2354 000004c6 9801              LDR       A1, [SP, #4]          ; [DPU_3_PIPE] |2223|  ; [ORIG 16-BIT INS]
    2355 000004c8 6809              LDR       A2, [A2, #0]          ; [DPU_3_PIPE] |2223|  ; [ORIG 16-BIT INS]
    2356 000004ca 1840              ADDS      A1, A1, A2            ; [DPU_3_PIPE] |2223|  ; [ORIG 16-BIT INS]
TI ARM Assembler PC v5.1.7 Tue Sep 16 08:38:42 2014

Tools Copyright (c) 1996-2014 Texas Instruments Incorporated
tasks.asm                                                            PAGE   44

    2357 000004cc 9002              STR       A1, [SP, #8]          ; [DPU_3_PIPE] |2223|  ; [ORIG 16-BIT INS]
    2358                            .dwpsn  file "../Source/tasks.c",line 2224,column 4,is_stmt,isa 1
    2359 000004ce 9802              LDR       A1, [SP, #8]          ; [DPU_3_PIPE] |2224|  ; [ORIG 16-BIT INS]
    2360                    $C$DW$158       .dwtag  DW_TAG_TI_branch
    2361                            .dwattr $C$DW$158, DW_AT_low_pc(0x00)
    2362                            .dwattr $C$DW$158, DW_AT_name("prvAddCurrentTaskToDelayedList")
    2363                            .dwattr $C$DW$158, DW_AT_TI_call
    2364 000004d0 F972F000          BL        prvAddCurrentTaskToDelayedList ; [DPU_3_PIPE] |2224|  ; [KEEP 32-BIT INS]
    2365                            ; CALL OCCURS {prvAddCurrentTaskToDelayedList }  ; [] |2224| 
    2366                            .dwpsn  file "../Source/tasks.c",line 2227,column 1,is_stmt,isa 1
    2367                    $C$DW$159       .dwtag  DW_TAG_TI_branch
    2368                            .dwattr $C$DW$159, DW_AT_low_pc(0x00)
    2369                            .dwattr $C$DW$159, DW_AT_TI_return
    2370 000004d4 BD0E              POP       {A2, A3, A4, PC}      ; [DPU_3_PIPE]  ; [ORIG 16-BIT INS]
    2371                            .dwcfi  cfa_offset, 0
    2372                            ; BRANCH OCCURS                  ; [] 
    2373                            .dwattr $C$DW$150, DW_AT_TI_end_file("../Source/tasks.c")
    2374                            .dwattr $C$DW$150, DW_AT_TI_end_line(0x8b3)
    2375                            .dwattr $C$DW$150, DW_AT_TI_end_column(0x01)
    2376                            .dwendentry
    2377                            .dwendtag $C$DW$150
    2378                    
    2379                    ;******************************************************************************
    2380                    ;* CONSTANT TABLE                                                             *
    2381                    ;******************************************************************************
    2382 000004d6                   .sect   ".text"
    2383                            .align  4
    2384 000004d6 000C46C0! ||$C$CON10||:   .bits   xPendingReadyList+12,32
         000004da 00000000 
    2385 000004dc                   .sect   ".text"
    2386                            .clink
    2387                            .thumbfunc vTaskPlaceOnUnorderedEventList
    2388 000004dc                   .thumb
    2389                            .global vTaskPlaceOnUnorderedEventList
    2390                    
    2391                    $C$DW$160       .dwtag  DW_TAG_subprogram, DW_AT_name("vTaskPlaceOnUnorderedEventList")
    2392                            .dwattr $C$DW$160, DW_AT_low_pc(vTaskPlaceOnUnorderedEventList)
    2393                            .dwattr $C$DW$160, DW_AT_high_pc(0x00)
    2394                            .dwattr $C$DW$160, DW_AT_TI_symbol_name("vTaskPlaceOnUnorderedEventList")
    2395                            .dwattr $C$DW$160, DW_AT_external
    2396                            .dwattr $C$DW$160, DW_AT_TI_begin_file("../Source/tasks.c")
    2397                            .dwattr $C$DW$160, DW_AT_TI_begin_line(0x8b6)
    2398                            .dwattr $C$DW$160, DW_AT_TI_begin_column(0x06)
    2399                            .dwattr $C$DW$160, DW_AT_decl_file("../Source/tasks.c")
    2400                            .dwattr $C$DW$160, DW_AT_decl_line(0x8b6)
    2401                            .dwattr $C$DW$160, DW_AT_decl_column(0x06)
    2402                            .dwattr $C$DW$160, DW_AT_TI_max_frame_size(0x18)
    2403                            .dwpsn  file "../Source/tasks.c",line 2231,column 1,is_stmt,address vTaskPlaceOnUnorderedEvent
    2404                    
    2405                            .dwfde $C$DW$CIE, vTaskPlaceOnUnorderedEventList
    2406                    $C$DW$161       .dwtag  DW_TAG_formal_parameter, DW_AT_name("pxEventList")
    2407                            .dwattr $C$DW$161, DW_AT_TI_symbol_name("pxEventList")
    2408                            .dwattr $C$DW$161, DW_AT_type(*$C$DW$T$76)
    2409                            .dwattr $C$DW$161, DW_AT_location[DW_OP_reg0]
    2410                    $C$DW$162       .dwtag  DW_TAG_formal_parameter, DW_AT_name("xItemValue")
TI ARM Assembler PC v5.1.7 Tue Sep 16 08:38:42 2014

Tools Copyright (c) 1996-2014 Texas Instruments Incorporated
tasks.asm                                                            PAGE   45

    2411                            .dwattr $C$DW$162, DW_AT_TI_symbol_name("xItemValue")
    2412                            .dwattr $C$DW$162, DW_AT_type(*$C$DW$T$87)
    2413                            .dwattr $C$DW$162, DW_AT_location[DW_OP_reg1]
    2414                    $C$DW$163       .dwtag  DW_TAG_formal_parameter, DW_AT_name("xTicksToWait")
    2415                            .dwattr $C$DW$163, DW_AT_TI_symbol_name("xTicksToWait")
    2416                            .dwattr $C$DW$163, DW_AT_type(*$C$DW$T$87)
    2417                            .dwattr $C$DW$163, DW_AT_location[DW_OP_reg2]
    2418                    
    2419                    ;*****************************************************************************
    2420                    ;* FUNCTION NAME: vTaskPlaceOnUnorderedEventList                             *
    2421                    ;*                                                                           *
    2422                    ;*   Regs Modified     : A1,A2,A3,A4,V9,SP,LR,SR,D0,D0_hi,D1,D1_hi,D2,D2_hi, *
    2423                    ;*                           D3,D3_hi,D4,D4_hi,D5,D5_hi,D6,D6_hi,D7,D7_hi,   *
    2424                    ;*                           FPEXC,FPSCR                                     *
    2425                    ;*   Regs Used         : A1,A2,A3,A4,V9,SP,LR,SR,D0,D0_hi,D1,D1_hi,D2,D2_hi, *
    2426                    ;*                           D3,D3_hi,D4,D4_hi,D5,D5_hi,D6,D6_hi,D7,D7_hi,   *
    2427                    ;*                           FPEXC,FPSCR                                     *
    2428                    ;*   Local Frame Size  : 0 Args + 16 Auto + 4 Save = 20 byte                 *
    2429                    ;*****************************************************************************
    2430 000004dc           vTaskPlaceOnUnorderedEventList:
    2431                    ;* --------------------------------------------------------------------------*
    2432                            .dwcfi  cfa_offset, 0
    2433 000004dc B500              PUSH      {LR}                  ; [DPU_3_PIPE]  ; [ORIG 16-BIT INS]
    2434                            .dwcfi  cfa_offset, 4
    2435                            .dwcfi  save_reg_to_mem, 14, -4
    2436 000004de 0D14F1AD          SUB       SP, SP, #20           ; [DPU_3_PIPE]  ; [KEEP 32-BIT INS]
    2437                            .dwcfi  cfa_offset, 24
    2438                    $C$DW$164       .dwtag  DW_TAG_variable, DW_AT_name("pxEventList")
    2439                            .dwattr $C$DW$164, DW_AT_TI_symbol_name("pxEventList")
    2440                            .dwattr $C$DW$164, DW_AT_type(*$C$DW$T$76)
    2441                            .dwattr $C$DW$164, DW_AT_location[DW_OP_breg13 0]
    2442                    $C$DW$165       .dwtag  DW_TAG_variable, DW_AT_name("xItemValue")
    2443                            .dwattr $C$DW$165, DW_AT_TI_symbol_name("xItemValue")
    2444                            .dwattr $C$DW$165, DW_AT_type(*$C$DW$T$87)
    2445                            .dwattr $C$DW$165, DW_AT_location[DW_OP_breg13 4]
    2446                    $C$DW$166       .dwtag  DW_TAG_variable, DW_AT_name("xTicksToWait")
    2447                            .dwattr $C$DW$166, DW_AT_TI_symbol_name("xTicksToWait")
    2448                            .dwattr $C$DW$166, DW_AT_type(*$C$DW$T$87)
    2449                            .dwattr $C$DW$166, DW_AT_location[DW_OP_breg13 8]
    2450                    $C$DW$167       .dwtag  DW_TAG_variable, DW_AT_name("xTimeToWake")
    2451                            .dwattr $C$DW$167, DW_AT_TI_symbol_name("xTimeToWake")
    2452                            .dwattr $C$DW$167, DW_AT_type(*$C$DW$T$36)
    2453                            .dwattr $C$DW$167, DW_AT_location[DW_OP_breg13 12]
    2454 000004e2 9202              STR       A3, [SP, #8]          ; [DPU_3_PIPE] |2231|  ; [ORIG 16-BIT INS]
    2455 000004e4 9101              STR       A2, [SP, #4]          ; [DPU_3_PIPE] |2231|  ; [ORIG 16-BIT INS]
    2456 000004e6 9000              STR       A1, [SP, #0]          ; [DPU_3_PIPE] |2231|  ; [ORIG 16-BIT INS]
    2457                            .dwpsn  file "../Source/tasks.c",line 2243,column 2,is_stmt,isa 1
    2458 000004e8 497D              LDR       A2, $C$CON21          ; [DPU_3_PIPE] |2243|  ; [ORIG 16-BIT INS]
    2459 000004ea 9801              LDR       A1, [SP, #4]          ; [DPU_3_PIPE] |2243|  ; [ORIG 16-BIT INS]
    2460 000004ec 6809              LDR       A2, [A2, #0]          ; [DPU_3_PIPE] |2243|  ; [ORIG 16-BIT INS]
    2461 000004ee 4000F040          ORR       A1, A1, #-2147483648  ; [DPU_3_PIPE] |2243|  ; [KEEP 32-BIT INS]
    2462 000004f2 6188              STR       A1, [A2, #24]         ; [DPU_3_PIPE] |2243|  ; [ORIG 16-BIT INS]
    2463                            .dwpsn  file "../Source/tasks.c",line 2250,column 2,is_stmt,isa 1
    2464 000004f4 487A              LDR       A1, $C$CON21          ; [DPU_3_PIPE] |2250|  ; [ORIG 16-BIT INS]
    2465 000004f6 6801              LDR       A2, [A1, #0]          ; [DPU_3_PIPE] |2250|  ; [ORIG 16-BIT INS]
TI ARM Assembler PC v5.1.7 Tue Sep 16 08:38:42 2014

Tools Copyright (c) 1996-2014 Texas Instruments Incorporated
tasks.asm                                                            PAGE   46

    2466 000004f8 9800              LDR       A1, [SP, #0]          ; [DPU_3_PIPE] |2250|  ; [ORIG 16-BIT INS]
    2467 000004fa 3118              ADDS      A2, A2, #24           ; [DPU_3_PIPE] |2250|  ; [ORIG 16-BIT INS]
    2468                    $C$DW$168       .dwtag  DW_TAG_TI_branch
    2469                            .dwattr $C$DW$168, DW_AT_low_pc(0x00)
    2470                            .dwattr $C$DW$168, DW_AT_name("vListInsertEnd")
    2471                            .dwattr $C$DW$168, DW_AT_TI_call
    2472 000004fc FFFEF7FF!         BL        vListInsertEnd        ; [DPU_3_PIPE] |2250|  ; [KEEP 32-BIT INS]
    2473                            ; CALL OCCURS {vListInsertEnd }  ; [] |2250| 
    2474                            .dwpsn  file "../Source/tasks.c",line 2255,column 2,is_stmt,isa 1
    2475 00000500 4877              LDR       A1, $C$CON21          ; [DPU_3_PIPE] |2255|  ; [ORIG 16-BIT INS]
    2476 00000502 6800              LDR       A1, [A1, #0]          ; [DPU_3_PIPE] |2255|  ; [ORIG 16-BIT INS]
    2477 00000504 1D00              ADDS      A1, A1, #4            ; [DPU_3_PIPE] |2255|  ; [ORIG 16-BIT INS]
    2478                    $C$DW$169       .dwtag  DW_TAG_TI_branch
    2479                            .dwattr $C$DW$169, DW_AT_low_pc(0x00)
    2480                            .dwattr $C$DW$169, DW_AT_name("uxListRemove")
    2481                            .dwattr $C$DW$169, DW_AT_TI_call
    2482 00000506 FFFEF7FF!         BL        uxListRemove          ; [DPU_3_PIPE] |2255|  ; [KEEP 32-BIT INS]
    2483                            ; CALL OCCURS {uxListRemove }    ; [] |2255| 
    2484 0000050a 2800              CMP       A1, #0                ; [DPU_3_PIPE] |2255|  ; [ORIG 16-BIT INS]
    2485 0000050c D0FF              BEQ       ||$C$L42||            ; [DPU_3_PIPE] |2255|  ; [ORIG 16-BIT INS]
    2486                            ; BRANCHCC OCCURS {||$C$L42||}   ; [] |2255| 
    2487                    ;* --------------------------------------------------------------------------*
    2488                            .dwpsn  file "../Source/tasks.c",line 2260,column 2,is_stmt,isa 1
    2489                    ;* --------------------------------------------------------------------------*
    2490 0000050e           ||$C$L42||:    
    2491                            .dwpsn  file "../Source/tasks.c",line 2289,column 4,is_stmt,isa 1
    2492 0000050e 4995              LDR       A2, $C$CON22          ; [DPU_3_PIPE] |2289|  ; [ORIG 16-BIT INS]
    2493 00000510 9802              LDR       A1, [SP, #8]          ; [DPU_3_PIPE] |2289|  ; [ORIG 16-BIT INS]
    2494 00000512 6809              LDR       A2, [A2, #0]          ; [DPU_3_PIPE] |2289|  ; [ORIG 16-BIT INS]
    2495 00000514 1840              ADDS      A1, A1, A2            ; [DPU_3_PIPE] |2289|  ; [ORIG 16-BIT INS]
    2496 00000516 9003              STR       A1, [SP, #12]         ; [DPU_3_PIPE] |2289|  ; [ORIG 16-BIT INS]
    2497                            .dwpsn  file "../Source/tasks.c",line 2290,column 4,is_stmt,isa 1
    2498 00000518 9803              LDR       A1, [SP, #12]         ; [DPU_3_PIPE] |2290|  ; [ORIG 16-BIT INS]
    2499                    $C$DW$170       .dwtag  DW_TAG_TI_branch
    2500                            .dwattr $C$DW$170, DW_AT_low_pc(0x00)
    2501                            .dwattr $C$DW$170, DW_AT_name("prvAddCurrentTaskToDelayedList")
    2502                            .dwattr $C$DW$170, DW_AT_TI_call
    2503 0000051a F94DF000          BL        prvAddCurrentTaskToDelayedList ; [DPU_3_PIPE] |2290|  ; [KEEP 32-BIT INS]
    2504                            ; CALL OCCURS {prvAddCurrentTaskToDelayedList }  ; [] |2290| 
    2505                            .dwpsn  file "../Source/tasks.c",line 2293,column 1,is_stmt,isa 1
    2506 0000051e B005              ADD       SP, SP, #20           ; [DPU_3_PIPE]  ; [ORIG 16-BIT INS]
    2507                            .dwcfi  cfa_offset, 4
    2508                    $C$DW$171       .dwtag  DW_TAG_TI_branch
    2509                            .dwattr $C$DW$171, DW_AT_low_pc(0x00)
    2510                            .dwattr $C$DW$171, DW_AT_TI_return
    2511 00000520 BD00              POP       {PC}                  ; [DPU_3_PIPE]  ; [ORIG 16-BIT INS]
    2512                            .dwcfi  cfa_offset, 0
    2513                            ; BRANCH OCCURS                  ; [] 
    2514                            .dwattr $C$DW$160, DW_AT_TI_end_file("../Source/tasks.c")
    2515                            .dwattr $C$DW$160, DW_AT_TI_end_line(0x8f5)
    2516                            .dwattr $C$DW$160, DW_AT_TI_end_column(0x01)
    2517                            .dwendentry
    2518                            .dwendtag $C$DW$160
    2519                    
    2520                    ;******************************************************************************
TI ARM Assembler PC v5.1.7 Tue Sep 16 08:38:42 2014

Tools Copyright (c) 1996-2014 Texas Instruments Incorporated
tasks.asm                                                            PAGE   47

    2521                    ;* CONSTANT TABLE                                                             *
    2522                    ;******************************************************************************
    2523 00000522                   .sect   ".text"
    2524                            .align  4
    2525 00000522 000046C0! ||$C$CON11||:   .bits   xYieldPending,32
         00000526 00000000 
    2526                            .align  4
    2527 00000526 00000000! ||$C$CON12||:   .bits   xPendingReadyList,32
         0000052a 00000000 
    2528                            .align  4
    2529 0000052a 00000000! ||$C$CON13||:   .bits   uxPendedTicks,32
         0000052e 00000000 
    2530 00000530                   .sect   ".text"
    2531                            .clink
    2532                            .thumbfunc xTaskRemoveFromEventList
    2533 00000530                   .thumb
    2534                            .global xTaskRemoveFromEventList
    2535                    
    2536                    $C$DW$172       .dwtag  DW_TAG_subprogram, DW_AT_name("xTaskRemoveFromEventList")
    2537                            .dwattr $C$DW$172, DW_AT_low_pc(xTaskRemoveFromEventList)
    2538                            .dwattr $C$DW$172, DW_AT_high_pc(0x00)
    2539                            .dwattr $C$DW$172, DW_AT_TI_symbol_name("xTaskRemoveFromEventList")
    2540                            .dwattr $C$DW$172, DW_AT_external
    2541                            .dwattr $C$DW$172, DW_AT_type(*$C$DW$T$56)
    2542                            .dwattr $C$DW$172, DW_AT_TI_begin_file("../Source/tasks.c")
    2543                            .dwattr $C$DW$172, DW_AT_TI_begin_line(0x925)
    2544                            .dwattr $C$DW$172, DW_AT_TI_begin_column(0x0c)
    2545                            .dwattr $C$DW$172, DW_AT_decl_file("../Source/tasks.c")
    2546                            .dwattr $C$DW$172, DW_AT_decl_line(0x925)
    2547                            .dwattr $C$DW$172, DW_AT_decl_column(0x0c)
    2548                            .dwattr $C$DW$172, DW_AT_TI_max_frame_size(0x10)
    2549                            .dwpsn  file "../Source/tasks.c",line 2342,column 1,is_stmt,address xTaskRemoveFromEventList,i
    2550                    
    2551                            .dwfde $C$DW$CIE, xTaskRemoveFromEventList
    2552                    $C$DW$173       .dwtag  DW_TAG_formal_parameter, DW_AT_name("pxEventList")
    2553                            .dwattr $C$DW$173, DW_AT_TI_symbol_name("pxEventList")
    2554                            .dwattr $C$DW$173, DW_AT_type(*$C$DW$T$140)
    2555                            .dwattr $C$DW$173, DW_AT_location[DW_OP_reg0]
    2556                    
    2557                    ;*****************************************************************************
    2558                    ;* FUNCTION NAME: xTaskRemoveFromEventList                                   *
    2559                    ;*                                                                           *
    2560                    ;*   Regs Modified     : A1,A2,A3,A4,V9,SP,LR,SR,D0,D0_hi,D1,D1_hi,D2,D2_hi, *
    2561                    ;*                           D3,D3_hi,D4,D4_hi,D5,D5_hi,D6,D6_hi,D7,D7_hi,   *
    2562                    ;*                           FPEXC,FPSCR                                     *
    2563                    ;*   Regs Used         : A1,A2,A3,A4,V9,SP,LR,SR,D0,D0_hi,D1,D1_hi,D2,D2_hi, *
    2564                    ;*                           D3,D3_hi,D4,D4_hi,D5,D5_hi,D6,D6_hi,D7,D7_hi,   *
    2565                    ;*                           FPEXC,FPSCR                                     *
    2566                    ;*   Local Frame Size  : 0 Args + 12 Auto + 4 Save = 16 byte                 *
    2567                    ;*****************************************************************************
    2568 00000530           xTaskRemoveFromEventList:
    2569                    ;* --------------------------------------------------------------------------*
    2570                            .dwcfi  cfa_offset, 0
    2571 00000530 B50E              PUSH      {A2, A3, A4, LR}      ; [DPU_3_PIPE]  ; [ORIG 16-BIT INS]
    2572                            .dwcfi  cfa_offset, 16
TI ARM Assembler PC v5.1.7 Tue Sep 16 08:38:42 2014

Tools Copyright (c) 1996-2014 Texas Instruments Incorporated
tasks.asm                                                            PAGE   48

    2573                            .dwcfi  save_reg_to_mem, 14, -4
    2574                            .dwcfi  save_reg_to_mem, 3, -8
    2575                            .dwcfi  save_reg_to_mem, 2, -12
    2576                            .dwcfi  save_reg_to_mem, 1, -16
    2577                    $C$DW$174       .dwtag  DW_TAG_variable, DW_AT_name("pxEventList")
    2578                            .dwattr $C$DW$174, DW_AT_TI_symbol_name("pxEventList")
    2579                            .dwattr $C$DW$174, DW_AT_type(*$C$DW$T$140)
    2580                            .dwattr $C$DW$174, DW_AT_location[DW_OP_breg13 0]
    2581                    $C$DW$175       .dwtag  DW_TAG_variable, DW_AT_name("pxUnblockedTCB")
    2582                            .dwattr $C$DW$175, DW_AT_TI_symbol_name("pxUnblockedTCB")
    2583                            .dwattr $C$DW$175, DW_AT_type(*$C$DW$T$100)
    2584                            .dwattr $C$DW$175, DW_AT_location[DW_OP_breg13 4]
    2585                    $C$DW$176       .dwtag  DW_TAG_variable, DW_AT_name("xReturn")
    2586                            .dwattr $C$DW$176, DW_AT_TI_symbol_name("xReturn")
    2587                            .dwattr $C$DW$176, DW_AT_type(*$C$DW$T$56)
    2588                            .dwattr $C$DW$176, DW_AT_location[DW_OP_breg13 8]
    2589 00000532 9000              STR       A1, [SP, #0]          ; [DPU_3_PIPE] |2342|  ; [ORIG 16-BIT INS]
    2590                            .dwpsn  file "../Source/tasks.c",line 2359,column 2,is_stmt,isa 1
    2591 00000534 9800              LDR       A1, [SP, #0]          ; [DPU_3_PIPE] |2359|  ; [ORIG 16-BIT INS]
    2592 00000536 68C0              LDR       A1, [A1, #12]         ; [DPU_3_PIPE] |2359|  ; [ORIG 16-BIT INS]
    2593 00000538 68C0              LDR       A1, [A1, #12]         ; [DPU_3_PIPE] |2359|  ; [ORIG 16-BIT INS]
    2594 0000053a 9001              STR       A1, [SP, #4]          ; [DPU_3_PIPE] |2359|  ; [ORIG 16-BIT INS]
    2595                            .dwpsn  file "../Source/tasks.c",line 2361,column 2,is_stmt,isa 1
    2596 0000053c 9801              LDR       A1, [SP, #4]          ; [DPU_3_PIPE] |2361|  ; [ORIG 16-BIT INS]
    2597 0000053e 3018              ADDS      A1, A1, #24           ; [DPU_3_PIPE] |2361|  ; [ORIG 16-BIT INS]
    2598                    $C$DW$177       .dwtag  DW_TAG_TI_branch
    2599                            .dwattr $C$DW$177, DW_AT_low_pc(0x00)
    2600                            .dwattr $C$DW$177, DW_AT_name("uxListRemove")
    2601                            .dwattr $C$DW$177, DW_AT_TI_call
    2602 00000540 FFFEF7FF!         BL        uxListRemove          ; [DPU_3_PIPE] |2361|  ; [KEEP 32-BIT INS]
    2603                            ; CALL OCCURS {uxListRemove }    ; [] |2361| 
    2604                            .dwpsn  file "../Source/tasks.c",line 2363,column 2,is_stmt,isa 1
    2605 00000544 489B              LDR       A1, $C$CON23          ; [DPU_3_PIPE] |2363|  ; [ORIG 16-BIT INS]
    2606 00000546 6800              LDR       A1, [A1, #0]          ; [DPU_3_PIPE] |2363|  ; [ORIG 16-BIT INS]
    2607 00000548 B9C8              CBNZ      A1, ||$C$L44||        ; []  ; [ORIG 16-BIT INS]
    2608                            ; BRANCHCC OCCURS {||$C$L44||}   ; [] |2363| 
    2609                    ;* --------------------------------------------------------------------------*
    2610                            .dwpsn  file "../Source/tasks.c",line 2365,column 3,is_stmt,isa 1
    2611 0000054a 9801              LDR       A1, [SP, #4]          ; [DPU_3_PIPE] |2365|  ; [ORIG 16-BIT INS]
    2612 0000054c 1D00              ADDS      A1, A1, #4            ; [DPU_3_PIPE] |2365|  ; [ORIG 16-BIT INS]
    2613                    $C$DW$178       .dwtag  DW_TAG_TI_branch
    2614                            .dwattr $C$DW$178, DW_AT_low_pc(0x00)
    2615                            .dwattr $C$DW$178, DW_AT_name("uxListRemove")
    2616                            .dwattr $C$DW$178, DW_AT_TI_call
    2617 0000054e FFFEF7FF!         BL        uxListRemove          ; [DPU_3_PIPE] |2365|  ; [KEEP 32-BIT INS]
    2618                            ; CALL OCCURS {uxListRemove }    ; [] |2365| 
    2619                            .dwpsn  file "../Source/tasks.c",line 2366,column 3,is_stmt,isa 1
    2620 00000552 4840              LDR       A1, $C$CON19          ; [DPU_3_PIPE] |2366|  ; [ORIG 16-BIT INS]
    2621 00000554 9901              LDR       A2, [SP, #4]          ; [DPU_3_PIPE] |2366|  ; [ORIG 16-BIT INS]
    2622 00000556 6800              LDR       A1, [A1, #0]          ; [DPU_3_PIPE] |2366|  ; [ORIG 16-BIT INS]
    2623 00000558 6AC9              LDR       A2, [A2, #44]         ; [DPU_3_PIPE] |2366|  ; [ORIG 16-BIT INS]
    2624 0000055a 4288              CMP       A1, A2                ; [DPU_3_PIPE] |2366|  ; [ORIG 16-BIT INS]
    2625 0000055c D203              BCS       ||$C$L43||            ; [DPU_3_PIPE] |2366|  ; [ORIG 16-BIT INS]
    2626                            ; BRANCHCC OCCURS {||$C$L43||}   ; [] |2366| 
    2627                    ;* --------------------------------------------------------------------------*
TI ARM Assembler PC v5.1.7 Tue Sep 16 08:38:42 2014

Tools Copyright (c) 1996-2014 Texas Instruments Incorporated
tasks.asm                                                            PAGE   49

    2628 0000055e 9801              LDR       A1, [SP, #4]          ; [DPU_3_PIPE] |2366|  ; [ORIG 16-BIT INS]
    2629 00000560 493C              LDR       A2, $C$CON19          ; [DPU_3_PIPE] |2366|  ; [ORIG 16-BIT INS]
    2630 00000562 6AC0              LDR       A1, [A1, #44]         ; [DPU_3_PIPE] |2366|  ; [ORIG 16-BIT INS]
    2631 00000564 6008              STR       A1, [A2, #0]          ; [DPU_3_PIPE] |2366|  ; [ORIG 16-BIT INS]
    2632                    ;* --------------------------------------------------------------------------*
    2633 00000566           ||$C$L43||:    
    2634 00000566 9801              LDR       A1, [SP, #4]          ; [DPU_3_PIPE] |2366|  ; [ORIG 16-BIT INS]
    2635 00000568 6AC3              LDR       A4, [A1, #44]         ; [DPU_3_PIPE] |2366|  ; [ORIG 16-BIT INS]
    2636 0000056a 9901              LDR       A2, [SP, #4]          ; [DPU_3_PIPE] |2366|  ; [ORIG 16-BIT INS]
    2637 0000056c 4855              LDR       A1, $C$CON20          ; [DPU_3_PIPE] |2366|  ; [ORIG 16-BIT INS]
    2638 0000056e 009A              LSLS      A3, A4, #2            ; [DPU_3_PIPE] |2366|  ; [ORIG 16-BIT INS]
    2639 00000570 1D09              ADDS      A2, A2, #4            ; [DPU_3_PIPE] |2366|  ; [ORIG 16-BIT INS]
    2640 00000572 1203EB02          ADD       A3, A3, A4, LSL #4    ; [DPU_3_PIPE] |2366|  ; [KEEP 32-BIT INS]
    2641 00000576 1880              ADDS      A1, A1, A3            ; [DPU_3_PIPE] |2366|  ; [ORIG 16-BIT INS]
    2642                    $C$DW$179       .dwtag  DW_TAG_TI_branch
    2643                            .dwattr $C$DW$179, DW_AT_low_pc(0x00)
    2644                            .dwattr $C$DW$179, DW_AT_name("vListInsertEnd")
    2645                            .dwattr $C$DW$179, DW_AT_TI_call
    2646 00000578 FFFEF7FF!         BL        vListInsertEnd        ; [DPU_3_PIPE] |2366|  ; [KEEP 32-BIT INS]
    2647                            ; CALL OCCURS {vListInsertEnd }  ; [] |2366| 
    2648                            .dwpsn  file "../Source/tasks.c",line 2367,column 2,is_stmt,isa 1
    2649 0000057c E004              B         ||$C$L45||            ; [DPU_3_PIPE] |2367|  ; [ORIG 16-BIT INS]
    2650                            ; BRANCH OCCURS {||$C$L45||}     ; [] |2367| 
    2651                    ;* --------------------------------------------------------------------------*
    2652 0000057e           ||$C$L44||:    
    2653                            .dwpsn  file "../Source/tasks.c",line 2372,column 3,is_stmt,isa 1
    2654 0000057e 9901              LDR       A2, [SP, #4]          ; [DPU_3_PIPE] |2372|  ; [ORIG 16-BIT INS]
    2655 00000580 489F              LDR       A1, $C$CON24          ; [DPU_3_PIPE] |2372|  ; [ORIG 16-BIT INS]
    2656 00000582 3118              ADDS      A2, A2, #24           ; [DPU_3_PIPE] |2372|  ; [ORIG 16-BIT INS]
    2657                    $C$DW$180       .dwtag  DW_TAG_TI_branch
    2658                            .dwattr $C$DW$180, DW_AT_low_pc(0x00)
    2659                            .dwattr $C$DW$180, DW_AT_name("vListInsertEnd")
    2660                            .dwattr $C$DW$180, DW_AT_TI_call
    2661 00000584 FFFEF7FF!         BL        vListInsertEnd        ; [DPU_3_PIPE] |2372|  ; [KEEP 32-BIT INS]
    2662                            ; CALL OCCURS {vListInsertEnd }  ; [] |2372| 
    2663                    ;* --------------------------------------------------------------------------*
    2664 00000588           ||$C$L45||:    
    2665                            .dwpsn  file "../Source/tasks.c",line 2375,column 2,is_stmt,isa 1
    2666 00000588 4855              LDR       A1, $C$CON21          ; [DPU_3_PIPE] |2375|  ; [ORIG 16-BIT INS]
    2667 0000058a 9901              LDR       A2, [SP, #4]          ; [DPU_3_PIPE] |2375|  ; [ORIG 16-BIT INS]
    2668 0000058c 6800              LDR       A1, [A1, #0]          ; [DPU_3_PIPE] |2375|  ; [ORIG 16-BIT INS]
    2669 0000058e 6AC9              LDR       A2, [A2, #44]         ; [DPU_3_PIPE] |2375|  ; [ORIG 16-BIT INS]
    2670 00000590 6AC0              LDR       A1, [A1, #44]         ; [DPU_3_PIPE] |2375|  ; [ORIG 16-BIT INS]
    2671 00000592 4288              CMP       A1, A2                ; [DPU_3_PIPE] |2375|  ; [ORIG 16-BIT INS]
    2672 00000594 D205              BCS       ||$C$L46||            ; [DPU_3_PIPE] |2375|  ; [ORIG 16-BIT INS]
    2673                            ; BRANCHCC OCCURS {||$C$L46||}   ; [] |2375| 
    2674                    ;* --------------------------------------------------------------------------*
    2675                            .dwpsn  file "../Source/tasks.c",line 2380,column 3,is_stmt,isa 1
    2676 00000596 2001              MOVS      A1, #1                ; [DPU_3_PIPE] |2380|  ; [ORIG 16-BIT INS]
    2677 00000598 9002              STR       A1, [SP, #8]          ; [DPU_3_PIPE] |2380|  ; [ORIG 16-BIT INS]
    2678                            .dwpsn  file "../Source/tasks.c",line 2384,column 3,is_stmt,isa 1
    2679 0000059a 49AA              LDR       A2, $C$CON25          ; [DPU_3_PIPE] |2384|  ; [ORIG 16-BIT INS]
    2680 0000059c 2001              MOVS      A1, #1                ; [DPU_3_PIPE] |2384|  ; [ORIG 16-BIT INS]
    2681 0000059e 6008              STR       A1, [A2, #0]          ; [DPU_3_PIPE] |2384|  ; [ORIG 16-BIT INS]
    2682                            .dwpsn  file "../Source/tasks.c",line 2385,column 2,is_stmt,isa 1
TI ARM Assembler PC v5.1.7 Tue Sep 16 08:38:42 2014

Tools Copyright (c) 1996-2014 Texas Instruments Incorporated
tasks.asm                                                            PAGE   50

    2683 000005a0 E001              B         ||$C$L47||            ; [DPU_3_PIPE] |2385|  ; [ORIG 16-BIT INS]
    2684                            ; BRANCH OCCURS {||$C$L47||}     ; [] |2385| 
    2685                    ;* --------------------------------------------------------------------------*
    2686 000005a2           ||$C$L46||:    
    2687                            .dwpsn  file "../Source/tasks.c",line 2388,column 3,is_stmt,isa 1
    2688 000005a2 2000              MOVS      A1, #0                ; [DPU_3_PIPE] |2388|  ; [ORIG 16-BIT INS]
    2689 000005a4 9002              STR       A1, [SP, #8]          ; [DPU_3_PIPE] |2388|  ; [ORIG 16-BIT INS]
    2690                    ;* --------------------------------------------------------------------------*
    2691 000005a6           ||$C$L47||:    
    2692                            .dwpsn  file "../Source/tasks.c",line 2391,column 2,is_stmt,isa 1
    2693 000005a6 9802              LDR       A1, [SP, #8]          ; [DPU_3_PIPE] |2391|  ; [ORIG 16-BIT INS]
    2694                            .dwpsn  file "../Source/tasks.c",line 2392,column 1,is_stmt,isa 1
    2695                    $C$DW$181       .dwtag  DW_TAG_TI_branch
    2696                            .dwattr $C$DW$181, DW_AT_low_pc(0x00)
    2697                            .dwattr $C$DW$181, DW_AT_TI_return
    2698 000005a8 BD0E              POP       {A2, A3, A4, PC}      ; [DPU_3_PIPE]  ; [ORIG 16-BIT INS]
