TI ARM Assembler PC v5.1.7 Tue Sep 16 08:38:42 2014

Tools Copyright (c) 1996-2014 Texas Instruments Incorporated
tasks.asm                                                            PAGE    1

       1                    ;******************************************************************************
       2                    ;* TI ARM C/C++ Codegen                                             PC v5.1.7 *
       3                    ;* Date/Time created: Tue Sep 16 08:38:41 2014                                *
       4                    ;******************************************************************************
       5                            .compiler_opts --abi=eabi --arm_vmrs_si_workaround=off --code_state=16 --disable_dual_state --
       6 00000000                   .thumb
       7                    
       8                    $C$DW$CU        .dwtag  DW_TAG_compile_unit
       9                            .dwattr $C$DW$CU, DW_AT_name("../Source/tasks.c")
      10                            .dwattr $C$DW$CU, DW_AT_producer("TI TI ARM C/C++ Codegen PC v5.1.7 Copyright (c) 1996-2014 Te
      11                            .dwattr $C$DW$CU, DW_AT_TI_version(0x01)
      12                            .dwattr $C$DW$CU, DW_AT_comp_dir("H:\class\690 Adv. Emb. Sys\FreeRTOS8_EECS_TM4C1294_SensorHub
      13                    
      14                    $C$DW$1 .dwtag  DW_TAG_subprogram, DW_AT_name("vPortYieldFromISR")
      15                            .dwattr $C$DW$1, DW_AT_TI_symbol_name("vPortYieldFromISR")
      16                            .dwattr $C$DW$1, DW_AT_declaration
      17                            .dwattr $C$DW$1, DW_AT_external
      18                            .dwattr $C$DW$1, DW_AT_decl_file("H:\class\690 Adv. Emb. Sys\FreeRTOS8_EECS_TM4C1294_SensorHub
      19                            .dwattr $C$DW$1, DW_AT_decl_line(0x7e)
      20                            .dwattr $C$DW$1, DW_AT_decl_column(0x0d)
      21                    
      22                    $C$DW$2 .dwtag  DW_TAG_subprogram, DW_AT_name("vPortEnterCritical")
      23                            .dwattr $C$DW$2, DW_AT_TI_symbol_name("vPortEnterCritical")
      24                            .dwattr $C$DW$2, DW_AT_declaration
      25                            .dwattr $C$DW$2, DW_AT_external
      26                            .dwattr $C$DW$2, DW_AT_decl_file("H:\class\690 Adv. Emb. Sys\FreeRTOS8_EECS_TM4C1294_SensorHub
      27                            .dwattr $C$DW$2, DW_AT_decl_line(0x98)
      28                            .dwattr $C$DW$2, DW_AT_decl_column(0x0d)
      29                    
      30                    $C$DW$3 .dwtag  DW_TAG_subprogram, DW_AT_name("vPortExitCritical")
      31                            .dwattr $C$DW$3, DW_AT_TI_symbol_name("vPortExitCritical")
      32                            .dwattr $C$DW$3, DW_AT_declaration
      33                            .dwattr $C$DW$3, DW_AT_external
      34                            .dwattr $C$DW$3, DW_AT_decl_file("H:\class\690 Adv. Emb. Sys\FreeRTOS8_EECS_TM4C1294_SensorHub
      35                            .dwattr $C$DW$3, DW_AT_decl_line(0x99)
      36                            .dwattr $C$DW$3, DW_AT_decl_column(0x0d)
      37                    
      38                    $C$DW$4 .dwtag  DW_TAG_subprogram, DW_AT_name("ulPortSetInterruptMask")
      39                            .dwattr $C$DW$4, DW_AT_TI_symbol_name("ulPortSetInterruptMask")
      40                            .dwattr $C$DW$4, DW_AT_type(*$C$DW$T$13)
      41                            .dwattr $C$DW$4, DW_AT_declaration
      42                            .dwattr $C$DW$4, DW_AT_external
      43                            .dwattr $C$DW$4, DW_AT_decl_file("H:\class\690 Adv. Emb. Sys\FreeRTOS8_EECS_TM4C1294_SensorHub
      44                            .dwattr $C$DW$4, DW_AT_decl_line(0x9a)
      45                            .dwattr $C$DW$4, DW_AT_decl_column(0x16)
      46                    
      47                    $C$DW$5 .dwtag  DW_TAG_subprogram, DW_AT_name("vPortClearInterruptMask")
      48                            .dwattr $C$DW$5, DW_AT_TI_symbol_name("vPortClearInterruptMask")
      49                            .dwattr $C$DW$5, DW_AT_declaration
      50                            .dwattr $C$DW$5, DW_AT_external
      51                            .dwattr $C$DW$5, DW_AT_decl_file("H:\class\690 Adv. Emb. Sys\FreeRTOS8_EECS_TM4C1294_SensorHub
      52                            .dwattr $C$DW$5, DW_AT_decl_line(0x9b)
      53                            .dwattr $C$DW$5, DW_AT_decl_column(0x0d)
      54                    $C$DW$6 .dwtag  DW_TAG_formal_parameter
      55                            .dwattr $C$DW$6, DW_AT_type(*$C$DW$T$13)
TI ARM Assembler PC v5.1.7 Tue Sep 16 08:38:42 2014

Tools Copyright (c) 1996-2014 Texas Instruments Incorporated
tasks.asm                                                            PAGE    2

      56                            .dwendtag $C$DW$5
      57                    
      58                    
      59                    $C$DW$7 .dwtag  DW_TAG_subprogram, DW_AT_name("pxPortInitialiseStack")
      60                            .dwattr $C$DW$7, DW_AT_TI_symbol_name("pxPortInitialiseStack")
      61                            .dwattr $C$DW$7, DW_AT_type(*$C$DW$T$29)
      62                            .dwattr $C$DW$7, DW_AT_declaration
      63                            .dwattr $C$DW$7, DW_AT_external
      64                            .dwattr $C$DW$7, DW_AT_decl_file("H:\class\690 Adv. Emb. Sys\FreeRTOS8_EECS_TM4C1294_SensorHub
      65                            .dwattr $C$DW$7, DW_AT_decl_line(0x16f)
      66                            .dwattr $C$DW$7, DW_AT_decl_column(0x0f)
      67                    $C$DW$8 .dwtag  DW_TAG_formal_parameter
      68                            .dwattr $C$DW$8, DW_AT_type(*$C$DW$T$29)
      69                    $C$DW$9 .dwtag  DW_TAG_formal_parameter
      70                            .dwattr $C$DW$9, DW_AT_type(*$C$DW$T$43)
      71                    $C$DW$10        .dwtag  DW_TAG_formal_parameter
      72                            .dwattr $C$DW$10, DW_AT_type(*$C$DW$T$3)
      73                            .dwendtag $C$DW$7
      74                    
      75                    
      76                    $C$DW$11        .dwtag  DW_TAG_subprogram, DW_AT_name("pvPortMalloc")
      77                            .dwattr $C$DW$11, DW_AT_TI_symbol_name("pvPortMalloc")
      78                            .dwattr $C$DW$11, DW_AT_type(*$C$DW$T$3)
      79                            .dwattr $C$DW$11, DW_AT_declaration
      80                            .dwattr $C$DW$11, DW_AT_external
      81                            .dwattr $C$DW$11, DW_AT_decl_file("H:\class\690 Adv. Emb. Sys\FreeRTOS8_EECS_TM4C1294_SensorHu
      82                            .dwattr $C$DW$11, DW_AT_decl_line(0x175)
      83                            .dwattr $C$DW$11, DW_AT_decl_column(0x07)
      84                    $C$DW$12        .dwtag  DW_TAG_formal_parameter
      85                            .dwattr $C$DW$12, DW_AT_type(*$C$DW$T$66)
      86                            .dwendtag $C$DW$11
      87                    
      88                    
      89                    $C$DW$13        .dwtag  DW_TAG_subprogram, DW_AT_name("vPortFree")
      90                            .dwattr $C$DW$13, DW_AT_TI_symbol_name("vPortFree")
      91                            .dwattr $C$DW$13, DW_AT_declaration
      92                            .dwattr $C$DW$13, DW_AT_external
      93                            .dwattr $C$DW$13, DW_AT_decl_file("H:\class\690 Adv. Emb. Sys\FreeRTOS8_EECS_TM4C1294_SensorHu
      94                            .dwattr $C$DW$13, DW_AT_decl_line(0x176)
      95                            .dwattr $C$DW$13, DW_AT_decl_column(0x06)
      96                    $C$DW$14        .dwtag  DW_TAG_formal_parameter
      97                            .dwattr $C$DW$14, DW_AT_type(*$C$DW$T$3)
      98                            .dwendtag $C$DW$13
      99                    
     100                    
     101                    $C$DW$15        .dwtag  DW_TAG_subprogram, DW_AT_name("xPortStartScheduler")
     102                            .dwattr $C$DW$15, DW_AT_TI_symbol_name("xPortStartScheduler")
     103                            .dwattr $C$DW$15, DW_AT_type(*$C$DW$T$56)
     104                            .dwattr $C$DW$15, DW_AT_declaration
     105                            .dwattr $C$DW$15, DW_AT_external
     106                            .dwattr $C$DW$15, DW_AT_decl_file("H:\class\690 Adv. Emb. Sys\FreeRTOS8_EECS_TM4C1294_SensorHu
     107                            .dwattr $C$DW$15, DW_AT_decl_line(0x17f)
     108                            .dwattr $C$DW$15, DW_AT_decl_column(0x0c)
     109                    
     110                    $C$DW$16        .dwtag  DW_TAG_subprogram, DW_AT_name("vPortEndScheduler")
TI ARM Assembler PC v5.1.7 Tue Sep 16 08:38:42 2014

Tools Copyright (c) 1996-2014 Texas Instruments Incorporated
tasks.asm                                                            PAGE    3

     111                            .dwattr $C$DW$16, DW_AT_TI_symbol_name("vPortEndScheduler")
     112                            .dwattr $C$DW$16, DW_AT_declaration
     113                            .dwattr $C$DW$16, DW_AT_external
     114                            .dwattr $C$DW$16, DW_AT_decl_file("H:\class\690 Adv. Emb. Sys\FreeRTOS8_EECS_TM4C1294_SensorHu
     115                            .dwattr $C$DW$16, DW_AT_decl_line(0x186)
     116                            .dwattr $C$DW$16, DW_AT_decl_column(0x06)
     117                    
     118                    $C$DW$17        .dwtag  DW_TAG_subprogram, DW_AT_name("vListInitialise")
     119                            .dwattr $C$DW$17, DW_AT_TI_symbol_name("vListInitialise")
     120                            .dwattr $C$DW$17, DW_AT_declaration
     121                            .dwattr $C$DW$17, DW_AT_external
     122                            .dwattr $C$DW$17, DW_AT_decl_file("H:\class\690 Adv. Emb. Sys\FreeRTOS8_EECS_TM4C1294_SensorHu
     123                            .dwattr $C$DW$17, DW_AT_decl_line(0x150)
     124                            .dwattr $C$DW$17, DW_AT_decl_column(0x06)
     125                    $C$DW$18        .dwtag  DW_TAG_formal_parameter
     126                            .dwattr $C$DW$18, DW_AT_type(*$C$DW$T$77)
     127                            .dwendtag $C$DW$17
     128                    
     129                    
     130                    $C$DW$19        .dwtag  DW_TAG_subprogram, DW_AT_name("vListInitialiseItem")
     131                            .dwattr $C$DW$19, DW_AT_TI_symbol_name("vListInitialiseItem")
     132                            .dwattr $C$DW$19, DW_AT_declaration
     133                            .dwattr $C$DW$19, DW_AT_external
     134                            .dwattr $C$DW$19, DW_AT_decl_file("H:\class\690 Adv. Emb. Sys\FreeRTOS8_EECS_TM4C1294_SensorHu
     135                            .dwattr $C$DW$19, DW_AT_decl_line(0x15b)
     136                            .dwattr $C$DW$19, DW_AT_decl_column(0x06)
     137                    $C$DW$20        .dwtag  DW_TAG_formal_parameter
     138                            .dwattr $C$DW$20, DW_AT_type(*$C$DW$T$80)
     139                            .dwendtag $C$DW$19
     140                    
     141                    
     142                    $C$DW$21        .dwtag  DW_TAG_subprogram, DW_AT_name("vListInsert")
     143                            .dwattr $C$DW$21, DW_AT_TI_symbol_name("vListInsert")
     144                            .dwattr $C$DW$21, DW_AT_declaration
     145                            .dwattr $C$DW$21, DW_AT_external
     146                            .dwattr $C$DW$21, DW_AT_decl_file("H:\class\690 Adv. Emb. Sys\FreeRTOS8_EECS_TM4C1294_SensorHu
     147                            .dwattr $C$DW$21, DW_AT_decl_line(0x168)
     148                            .dwattr $C$DW$21, DW_AT_decl_column(0x06)
     149                    $C$DW$22        .dwtag  DW_TAG_formal_parameter
     150                            .dwattr $C$DW$22, DW_AT_type(*$C$DW$T$77)
     151                    $C$DW$23        .dwtag  DW_TAG_formal_parameter
     152                            .dwattr $C$DW$23, DW_AT_type(*$C$DW$T$80)
     153                            .dwendtag $C$DW$21
     154                    
     155                    
     156                    $C$DW$24        .dwtag  DW_TAG_subprogram, DW_AT_name("vListInsertEnd")
     157                            .dwattr $C$DW$24, DW_AT_TI_symbol_name("vListInsertEnd")
     158                            .dwattr $C$DW$24, DW_AT_declaration
     159                            .dwattr $C$DW$24, DW_AT_external
     160                            .dwattr $C$DW$24, DW_AT_decl_file("H:\class\690 Adv. Emb. Sys\FreeRTOS8_EECS_TM4C1294_SensorHu
     161                            .dwattr $C$DW$24, DW_AT_decl_line(0x17d)
     162                            .dwattr $C$DW$24, DW_AT_decl_column(0x06)
     163                    $C$DW$25        .dwtag  DW_TAG_formal_parameter
     164                            .dwattr $C$DW$25, DW_AT_type(*$C$DW$T$77)
     165                    $C$DW$26        .dwtag  DW_TAG_formal_parameter
TI ARM Assembler PC v5.1.7 Tue Sep 16 08:38:42 2014

Tools Copyright (c) 1996-2014 Texas Instruments Incorporated
tasks.asm                                                            PAGE    4

     166                            .dwattr $C$DW$26, DW_AT_type(*$C$DW$T$80)
     167                            .dwendtag $C$DW$24
     168                    
     169                    
     170                    $C$DW$27        .dwtag  DW_TAG_subprogram, DW_AT_name("uxListRemove")
     171                            .dwattr $C$DW$27, DW_AT_TI_symbol_name("uxListRemove")
     172                            .dwattr $C$DW$27, DW_AT_type(*$C$DW$T$28)
     173                            .dwattr $C$DW$27, DW_AT_declaration
     174                            .dwattr $C$DW$27, DW_AT_external
     175                            .dwattr $C$DW$27, DW_AT_decl_file("H:\class\690 Adv. Emb. Sys\FreeRTOS8_EECS_TM4C1294_SensorHu
     176                            .dwattr $C$DW$27, DW_AT_decl_line(0x18c)
     177                            .dwattr $C$DW$27, DW_AT_decl_column(0x0d)
     178                    $C$DW$28        .dwtag  DW_TAG_formal_parameter
     179                            .dwattr $C$DW$28, DW_AT_type(*$C$DW$T$80)
     180                            .dwendtag $C$DW$27
     181                    
     182                            .global pxCurrentTCB
     183 00000000                   .data
     184                            .align  4
     185                            .elfsym pxCurrentTCB,SYM_SIZE(4)
     186 00000000           pxCurrentTCB:
     187 00000000 00000000          .bits   0,32                    ; pxCurrentTCB @ 0
     188                    
     189                    $C$DW$29        .dwtag  DW_TAG_variable, DW_AT_name("pxCurrentTCB")
     190                            .dwattr $C$DW$29, DW_AT_TI_symbol_name("pxCurrentTCB")
     191                            .dwattr $C$DW$29, DW_AT_location[DW_OP_addr pxCurrentTCB]
     192                            .dwattr $C$DW$29, DW_AT_type(*$C$DW$T$193)
     193                            .dwattr $C$DW$29, DW_AT_external
     194                            .dwattr $C$DW$29, DW_AT_decl_file("../Source/tasks.c")
     195                            .dwattr $C$DW$29, DW_AT_decl_line(0xbb)
     196                            .dwattr $C$DW$29, DW_AT_decl_column(0x22)
     197 00000000           pxReadyTasksLists:      .usect  ".bss:pxReadyTasksLists",80,4
     198                    $C$DW$30        .dwtag  DW_TAG_variable, DW_AT_name("pxReadyTasksLists")
     199                            .dwattr $C$DW$30, DW_AT_TI_symbol_name("pxReadyTasksLists")
     200                            .dwattr $C$DW$30, DW_AT_type(*$C$DW$T$195)
     201                            .dwattr $C$DW$30, DW_AT_location[DW_OP_addr pxReadyTasksLists]
     202                            .dwattr $C$DW$30, DW_AT_decl_file("../Source/tasks.c")
     203                            .dwattr $C$DW$30, DW_AT_decl_line(0xbe)
     204                            .dwattr $C$DW$30, DW_AT_decl_column(0x1f)
     205                            .common xDelayedTaskList1,20,4
     206                    $C$DW$31        .dwtag  DW_TAG_variable, DW_AT_name("xDelayedTaskList1")
     207                            .dwattr $C$DW$31, DW_AT_TI_symbol_name("xDelayedTaskList1")
     208                            .dwattr $C$DW$31, DW_AT_type(*$C$DW$T$75)
     209                            .dwattr $C$DW$31, DW_AT_location[DW_OP_addr xDelayedTaskList1]
     210                            .dwattr $C$DW$31, DW_AT_decl_file("../Source/tasks.c")
     211                            .dwattr $C$DW$31, DW_AT_decl_line(0xbf)
     212                            .dwattr $C$DW$31, DW_AT_decl_column(0x1f)
     213                            .common xDelayedTaskList2,20,4
     214                    $C$DW$32        .dwtag  DW_TAG_variable, DW_AT_name("xDelayedTaskList2")
     215                            .dwattr $C$DW$32, DW_AT_TI_symbol_name("xDelayedTaskList2")
     216                            .dwattr $C$DW$32, DW_AT_type(*$C$DW$T$75)
     217                            .dwattr $C$DW$32, DW_AT_location[DW_OP_addr xDelayedTaskList2]
     218                            .dwattr $C$DW$32, DW_AT_decl_file("../Source/tasks.c")
     219                            .dwattr $C$DW$32, DW_AT_decl_line(0xc0)
     220                            .dwattr $C$DW$32, DW_AT_decl_column(0x1f)
TI ARM Assembler PC v5.1.7 Tue Sep 16 08:38:42 2014

Tools Copyright (c) 1996-2014 Texas Instruments Incorporated
tasks.asm                                                            PAGE    5

     221                            .common pxDelayedTaskList,4,4
     222                    $C$DW$33        .dwtag  DW_TAG_variable, DW_AT_name("pxDelayedTaskList")
     223                            .dwattr $C$DW$33, DW_AT_TI_symbol_name("pxDelayedTaskList")
     224                            .dwattr $C$DW$33, DW_AT_type(*$C$DW$T$194)
     225                            .dwattr $C$DW$33, DW_AT_location[DW_OP_addr pxDelayedTaskList]
     226                            .dwattr $C$DW$33, DW_AT_decl_file("../Source/tasks.c")
     227                            .dwattr $C$DW$33, DW_AT_decl_line(0xc1)
     228                            .dwattr $C$DW$33, DW_AT_decl_column(0x2a)
     229                            .common pxOverflowDelayedTaskList,4,4
     230                    $C$DW$34        .dwtag  DW_TAG_variable, DW_AT_name("pxOverflowDelayedTaskList")
     231                            .dwattr $C$DW$34, DW_AT_TI_symbol_name("pxOverflowDelayedTaskList")
     232                            .dwattr $C$DW$34, DW_AT_type(*$C$DW$T$194)
     233                            .dwattr $C$DW$34, DW_AT_location[DW_OP_addr pxOverflowDelayedTaskList]
     234                            .dwattr $C$DW$34, DW_AT_decl_file("../Source/tasks.c")
     235                            .dwattr $C$DW$34, DW_AT_decl_line(0xc2)
     236                            .dwattr $C$DW$34, DW_AT_decl_column(0x2a)
     237                            .common xPendingReadyList,20,4
     238                    $C$DW$35        .dwtag  DW_TAG_variable, DW_AT_name("xPendingReadyList")
     239                            .dwattr $C$DW$35, DW_AT_TI_symbol_name("xPendingReadyList")
     240                            .dwattr $C$DW$35, DW_AT_type(*$C$DW$T$75)
     241                            .dwattr $C$DW$35, DW_AT_location[DW_OP_addr xPendingReadyList]
     242                            .dwattr $C$DW$35, DW_AT_decl_file("../Source/tasks.c")
     243                            .dwattr $C$DW$35, DW_AT_decl_line(0xc3)
     244                            .dwattr $C$DW$35, DW_AT_decl_column(0x1f)
     245 00000004                   .data
     246                            .align  4
     247                            .elfsym uxCurrentNumberOfTasks,SYM_SIZE(4)
     248 00000004           uxCurrentNumberOfTasks:
     249 00000004 00000000          .bits   0,32                    ; uxCurrentNumberOfTasks @ 0
     250                    
     251                    $C$DW$36        .dwtag  DW_TAG_variable, DW_AT_name("uxCurrentNumberOfTasks")
     252                            .dwattr $C$DW$36, DW_AT_TI_symbol_name("uxCurrentNumberOfTasks")
     253                            .dwattr $C$DW$36, DW_AT_type(*$C$DW$T$160)
     254                            .dwattr $C$DW$36, DW_AT_location[DW_OP_addr uxCurrentNumberOfTasks]
     255                            .dwattr $C$DW$36, DW_AT_decl_file("../Source/tasks.c")
     256                            .dwattr $C$DW$36, DW_AT_decl_line(0xd9)
     257                            .dwattr $C$DW$36, DW_AT_decl_column(0x2d)
     258 00000008                   .data
     259                            .align  4
     260                            .elfsym xTickCount,SYM_SIZE(4)
     261 00000008           xTickCount:
     262 00000008 00000000          .bits   0,32                    ; xTickCount @ 0
     263                    
     264                    $C$DW$37        .dwtag  DW_TAG_variable, DW_AT_name("xTickCount")
     265                            .dwattr $C$DW$37, DW_AT_TI_symbol_name("xTickCount")
     266                            .dwattr $C$DW$37, DW_AT_type(*$C$DW$T$158)
     267                            .dwattr $C$DW$37, DW_AT_location[DW_OP_addr xTickCount]
     268                            .dwattr $C$DW$37, DW_AT_decl_file("../Source/tasks.c")
     269                            .dwattr $C$DW$37, DW_AT_decl_line(0xda)
     270                            .dwattr $C$DW$37, DW_AT_decl_column(0x2c)
     271 0000000c                   .data
     272                            .align  4
     273                            .elfsym uxTopReadyPriority,SYM_SIZE(4)
     274 0000000c           uxTopReadyPriority:
     275 0000000c 00000000          .bits   0,32                    ; uxTopReadyPriority @ 0
TI ARM Assembler PC v5.1.7 Tue Sep 16 08:38:42 2014

Tools Copyright (c) 1996-2014 Texas Instruments Incorporated
tasks.asm                                                            PAGE    6

     276                    
     277                    $C$DW$38        .dwtag  DW_TAG_variable, DW_AT_name("uxTopReadyPriority")
     278                            .dwattr $C$DW$38, DW_AT_TI_symbol_name("uxTopReadyPriority")
     279                            .dwattr $C$DW$38, DW_AT_type(*$C$DW$T$160)
     280                            .dwattr $C$DW$38, DW_AT_location[DW_OP_addr uxTopReadyPriority]
     281                            .dwattr $C$DW$38, DW_AT_decl_file("../Source/tasks.c")
     282                            .dwattr $C$DW$38, DW_AT_decl_line(0xdb)
     283                            .dwattr $C$DW$38, DW_AT_decl_column(0x2d)
     284 00000010                   .data
     285                            .align  4
     286                            .elfsym xSchedulerRunning,SYM_SIZE(4)
     287 00000010           xSchedulerRunning:
     288 00000010 00000000          .bits   0,32                    ; xSchedulerRunning @ 0
     289                    
     290                    $C$DW$39        .dwtag  DW_TAG_variable, DW_AT_name("xSchedulerRunning")
     291                            .dwattr $C$DW$39, DW_AT_TI_symbol_name("xSchedulerRunning")
     292                            .dwattr $C$DW$39, DW_AT_type(*$C$DW$T$132)
     293                            .dwattr $C$DW$39, DW_AT_location[DW_OP_addr xSchedulerRunning]
     294                            .dwattr $C$DW$39, DW_AT_decl_file("../Source/tasks.c")
     295                            .dwattr $C$DW$39, DW_AT_decl_line(0xdc)
     296                            .dwattr $C$DW$39, DW_AT_decl_column(0x2c)
     297 00000014                   .data
     298                            .align  4
     299                            .elfsym uxPendedTicks,SYM_SIZE(4)
     300 00000014           uxPendedTicks:
     301 00000014 00000000          .bits   0,32                    ; uxPendedTicks @ 0
     302                    
     303                    $C$DW$40        .dwtag  DW_TAG_variable, DW_AT_name("uxPendedTicks")
     304                            .dwattr $C$DW$40, DW_AT_TI_symbol_name("uxPendedTicks")
     305                            .dwattr $C$DW$40, DW_AT_type(*$C$DW$T$160)
     306                            .dwattr $C$DW$40, DW_AT_location[DW_OP_addr uxPendedTicks]
     307                            .dwattr $C$DW$40, DW_AT_decl_file("../Source/tasks.c")
     308                            .dwattr $C$DW$40, DW_AT_decl_line(0xdd)
     309                            .dwattr $C$DW$40, DW_AT_decl_column(0x2d)
     310 00000018                   .data
     311                            .align  4
     312                            .elfsym xYieldPending,SYM_SIZE(4)
     313 00000018           xYieldPending:
     314 00000018 00000000          .bits   0,32                    ; xYieldPending @ 0
     315                    
     316                    $C$DW$41        .dwtag  DW_TAG_variable, DW_AT_name("xYieldPending")
     317                            .dwattr $C$DW$41, DW_AT_TI_symbol_name("xYieldPending")
     318                            .dwattr $C$DW$41, DW_AT_type(*$C$DW$T$132)
     319                            .dwattr $C$DW$41, DW_AT_location[DW_OP_addr xYieldPending]
     320                            .dwattr $C$DW$41, DW_AT_decl_file("../Source/tasks.c")
     321                            .dwattr $C$DW$41, DW_AT_decl_line(0xde)
     322                            .dwattr $C$DW$41, DW_AT_decl_column(0x2c)
     323 0000001c                   .data
     324                            .align  4
     325                            .elfsym xNumOfOverflows,SYM_SIZE(4)
     326 0000001c           xNumOfOverflows:
     327 0000001c 00000000          .bits   0,32                    ; xNumOfOverflows @ 0
     328                    
     329                    $C$DW$42        .dwtag  DW_TAG_variable, DW_AT_name("xNumOfOverflows")
     330                            .dwattr $C$DW$42, DW_AT_TI_symbol_name("xNumOfOverflows")
TI ARM Assembler PC v5.1.7 Tue Sep 16 08:38:42 2014

Tools Copyright (c) 1996-2014 Texas Instruments Incorporated
tasks.asm                                                            PAGE    7

     331                            .dwattr $C$DW$42, DW_AT_type(*$C$DW$T$132)
     332                            .dwattr $C$DW$42, DW_AT_location[DW_OP_addr xNumOfOverflows]
     333                            .dwattr $C$DW$42, DW_AT_decl_file("../Source/tasks.c")
     334                            .dwattr $C$DW$42, DW_AT_decl_line(0xdf)
     335                            .dwattr $C$DW$42, DW_AT_decl_column(0x2c)
     336 00000020                   .data
     337                            .align  4
     338                            .elfsym uxTaskNumber,SYM_SIZE(4)
     339 00000020           uxTaskNumber:
     340 00000020 00000000          .bits   0,32                    ; uxTaskNumber @ 0
     341                    
     342                    $C$DW$43        .dwtag  DW_TAG_variable, DW_AT_name("uxTaskNumber")
     343                            .dwattr $C$DW$43, DW_AT_TI_symbol_name("uxTaskNumber")
     344                            .dwattr $C$DW$43, DW_AT_type(*$C$DW$T$28)
     345                            .dwattr $C$DW$43, DW_AT_location[DW_OP_addr uxTaskNumber]
     346                            .dwattr $C$DW$43, DW_AT_decl_file("../Source/tasks.c")
     347                            .dwattr $C$DW$43, DW_AT_decl_line(0xe0)
     348                            .dwattr $C$DW$43, DW_AT_decl_column(0x24)
     349 00000024                   .data
     350                            .align  4
     351                            .elfsym xNextTaskUnblockTime,SYM_SIZE(4)
     352 00000024           xNextTaskUnblockTime:
     353 00000024 FFFFFFFF          .bits   -1,32                   ; xNextTaskUnblockTime @ 0
     354                    
     355                    $C$DW$44        .dwtag  DW_TAG_variable, DW_AT_name("xNextTaskUnblockTime")
     356                            .dwattr $C$DW$44, DW_AT_TI_symbol_name("xNextTaskUnblockTime")
     357                            .dwattr $C$DW$44, DW_AT_type(*$C$DW$T$158)
     358                            .dwattr $C$DW$44, DW_AT_location[DW_OP_addr xNextTaskUnblockTime]
     359                            .dwattr $C$DW$44, DW_AT_decl_file("../Source/tasks.c")
     360                            .dwattr $C$DW$44, DW_AT_decl_line(0xe1)
     361                            .dwattr $C$DW$44, DW_AT_decl_column(0x2c)
     362 00000028                   .data
     363                            .align  4
     364                            .elfsym uxSchedulerSuspended,SYM_SIZE(4)
     365 00000028           uxSchedulerSuspended:
     366 00000028 00000000          .bits   0,32                    ; uxSchedulerSuspended @ 0
     367                    
     368                    $C$DW$45        .dwtag  DW_TAG_variable, DW_AT_name("uxSchedulerSuspended")
     369                            .dwattr $C$DW$45, DW_AT_TI_symbol_name("uxSchedulerSuspended")
     370                            .dwattr $C$DW$45, DW_AT_type(*$C$DW$T$160)
     371                            .dwattr $C$DW$45, DW_AT_location[DW_OP_addr uxSchedulerSuspended]
     372                            .dwattr $C$DW$45, DW_AT_decl_file("../Source/tasks.c")
     373                            .dwattr $C$DW$45, DW_AT_decl_line(0xeb)
     374                            .dwattr $C$DW$45, DW_AT_decl_column(0x2d)
     375                    ;       C:\TI_CodeComposer\ccsv6\tools\compiler\arm_5.1.7\bin\armacpia.exe -@C:\\Users\\zflies\\AppDat
     376 00000000                   .sect   ".text"
     377                            .clink
     378                            .thumbfunc xTaskGenericCreate
     379 00000000                   .thumb
     380                            .global xTaskGenericCreate
     381                    
     382                    $C$DW$46        .dwtag  DW_TAG_subprogram, DW_AT_name("xTaskGenericCreate")
     383                            .dwattr $C$DW$46, DW_AT_low_pc(xTaskGenericCreate)
     384                            .dwattr $C$DW$46, DW_AT_high_pc(0x00)
     385                            .dwattr $C$DW$46, DW_AT_TI_symbol_name("xTaskGenericCreate")
TI ARM Assembler PC v5.1.7 Tue Sep 16 08:38:42 2014

Tools Copyright (c) 1996-2014 Texas Instruments Incorporated
tasks.asm                                                            PAGE    8

     386                            .dwattr $C$DW$46, DW_AT_external
     387                            .dwattr $C$DW$46, DW_AT_type(*$C$DW$T$56)
     388                            .dwattr $C$DW$46, DW_AT_TI_begin_file("../Source/tasks.c")
     389                            .dwattr $C$DW$46, DW_AT_TI_begin_line(0x203)
     390                            .dwattr $C$DW$46, DW_AT_TI_begin_column(0x0c)
     391                            .dwattr $C$DW$46, DW_AT_decl_file("../Source/tasks.c")
     392                            .dwattr $C$DW$46, DW_AT_decl_line(0x203)
     393                            .dwattr $C$DW$46, DW_AT_decl_column(0x0c)
     394                            .dwattr $C$DW$46, DW_AT_TI_max_frame_size(0x28)
     395                            .dwpsn  file "../Source/tasks.c",line 516,column 1,is_stmt,address xTaskGenericCreate,isa 1
     396                    
     397                            .dwfde $C$DW$CIE, xTaskGenericCreate
     398                    $C$DW$47        .dwtag  DW_TAG_formal_parameter, DW_AT_name("pxTaskCode")
     399                            .dwattr $C$DW$47, DW_AT_TI_symbol_name("pxTaskCode")
     400                            .dwattr $C$DW$47, DW_AT_type(*$C$DW$T$43)
     401                            .dwattr $C$DW$47, DW_AT_location[DW_OP_reg0]
     402                    $C$DW$48        .dwtag  DW_TAG_formal_parameter, DW_AT_name("pcName")
     403                            .dwattr $C$DW$48, DW_AT_TI_symbol_name("pcName")
     404                            .dwattr $C$DW$48, DW_AT_type(*$C$DW$T$46)
     405                            .dwattr $C$DW$48, DW_AT_location[DW_OP_reg1]
     406                    $C$DW$49        .dwtag  DW_TAG_formal_parameter, DW_AT_name("usStackDepth")
     407                            .dwattr $C$DW$49, DW_AT_TI_symbol_name("usStackDepth")
     408                            .dwattr $C$DW$49, DW_AT_type(*$C$DW$T$105)
     409                            .dwattr $C$DW$49, DW_AT_location[DW_OP_reg2]
     410                    $C$DW$50        .dwtag  DW_TAG_formal_parameter, DW_AT_name("pvParameters")
     411                            .dwattr $C$DW$50, DW_AT_TI_symbol_name("pvParameters")
     412                            .dwattr $C$DW$50, DW_AT_type(*$C$DW$T$69)
     413                            .dwattr $C$DW$50, DW_AT_location[DW_OP_reg3]
     414                    $C$DW$51        .dwtag  DW_TAG_formal_parameter, DW_AT_name("uxPriority")
     415                            .dwattr $C$DW$51, DW_AT_TI_symbol_name("uxPriority")
     416                            .dwattr $C$DW$51, DW_AT_type(*$C$DW$T$28)
     417                            .dwattr $C$DW$51, DW_AT_location[DW_OP_breg13 40]
     418                    $C$DW$52        .dwtag  DW_TAG_formal_parameter, DW_AT_name("pxCreatedTask")
     419                            .dwattr $C$DW$52, DW_AT_TI_symbol_name("pxCreatedTask")
     420                            .dwattr $C$DW$52, DW_AT_type(*$C$DW$T$64)
     421                            .dwattr $C$DW$52, DW_AT_location[DW_OP_breg13 44]
     422                    $C$DW$53        .dwtag  DW_TAG_formal_parameter, DW_AT_name("puxStackBuffer")
     423                            .dwattr $C$DW$53, DW_AT_TI_symbol_name("puxStackBuffer")
     424                            .dwattr $C$DW$53, DW_AT_type(*$C$DW$T$135)
     425                            .dwattr $C$DW$53, DW_AT_location[DW_OP_breg13 48]
     426                    $C$DW$54        .dwtag  DW_TAG_formal_parameter, DW_AT_name("xRegions")
     427                            .dwattr $C$DW$54, DW_AT_TI_symbol_name("xRegions")
     428                            .dwattr $C$DW$54, DW_AT_type(*$C$DW$T$104)
     429                            .dwattr $C$DW$54, DW_AT_location[DW_OP_breg13 52]
     430                    
     431                    ;*****************************************************************************
     432                    ;* FUNCTION NAME: xTaskGenericCreate                                         *
     433                    ;*                                                                           *
     434                    ;*   Regs Modified     : A1,A2,A3,A4,V9,SP,LR,SR,D0,D0_hi,D1,D1_hi,D2,D2_hi, *
     435                    ;*                           D3,D3_hi,D4,D4_hi,D5,D5_hi,D6,D6_hi,D7,D7_hi,   *
     436                    ;*                           FPEXC,FPSCR                                     *
     437                    ;*   Regs Used         : A1,A2,A3,A4,V9,SP,LR,SR,D0,D0_hi,D1,D1_hi,D2,D2_hi, *
     438                    ;*                           D3,D3_hi,D4,D4_hi,D5,D5_hi,D6,D6_hi,D7,D7_hi,   *
     439                    ;*                           FPEXC,FPSCR                                     *
     440                    ;*   Local Frame Size  : 4 Args + 28 Auto + 4 Save = 36 byte                 *
TI ARM Assembler PC v5.1.7 Tue Sep 16 08:38:42 2014

Tools Copyright (c) 1996-2014 Texas Instruments Incorporated
tasks.asm                                                            PAGE    9

     441                    ;*****************************************************************************
     442 00000000           xTaskGenericCreate:
     443                    ;* --------------------------------------------------------------------------*
     444                            .dwcfi  cfa_offset, 0
     445 00000000 B500              PUSH      {LR}                  ; [DPU_3_PIPE]  ; [ORIG 16-BIT INS]
     446                            .dwcfi  cfa_offset, 4
     447                            .dwcfi  save_reg_to_mem, 14, -4
     448 00000002 0D24F1AD          SUB       SP, SP, #36           ; [DPU_3_PIPE]  ; [KEEP 32-BIT INS]
     449                            .dwcfi  cfa_offset, 40
     450                    $C$DW$55        .dwtag  DW_TAG_variable, DW_AT_name("pxTaskCode")
     451                            .dwattr $C$DW$55, DW_AT_TI_symbol_name("pxTaskCode")
     452                            .dwattr $C$DW$55, DW_AT_type(*$C$DW$T$43)
     453                            .dwattr $C$DW$55, DW_AT_location[DW_OP_breg13 4]
     454                    $C$DW$56        .dwtag  DW_TAG_variable, DW_AT_name("pcName")
     455                            .dwattr $C$DW$56, DW_AT_TI_symbol_name("pcName")
     456                            .dwattr $C$DW$56, DW_AT_type(*$C$DW$T$46)
     457                            .dwattr $C$DW$56, DW_AT_location[DW_OP_breg13 8]
     458                    $C$DW$57        .dwtag  DW_TAG_variable, DW_AT_name("usStackDepth")
     459                            .dwattr $C$DW$57, DW_AT_TI_symbol_name("usStackDepth")
     460                            .dwattr $C$DW$57, DW_AT_type(*$C$DW$T$105)
     461                            .dwattr $C$DW$57, DW_AT_location[DW_OP_breg13 12]
     462                    $C$DW$58        .dwtag  DW_TAG_variable, DW_AT_name("pvParameters")
     463                            .dwattr $C$DW$58, DW_AT_TI_symbol_name("pvParameters")
     464                            .dwattr $C$DW$58, DW_AT_type(*$C$DW$T$69)
     465                            .dwattr $C$DW$58, DW_AT_location[DW_OP_breg13 16]
     466                    $C$DW$59        .dwtag  DW_TAG_variable, DW_AT_name("xReturn")
     467                            .dwattr $C$DW$59, DW_AT_TI_symbol_name("xReturn")
     468                            .dwattr $C$DW$59, DW_AT_type(*$C$DW$T$56)
     469                            .dwattr $C$DW$59, DW_AT_location[DW_OP_breg13 20]
     470                    $C$DW$60        .dwtag  DW_TAG_variable, DW_AT_name("pxNewTCB")
     471                            .dwattr $C$DW$60, DW_AT_TI_symbol_name("pxNewTCB")
     472                            .dwattr $C$DW$60, DW_AT_type(*$C$DW$T$100)
     473                            .dwattr $C$DW$60, DW_AT_location[DW_OP_breg13 24]
     474 00000006 9304              STR       A4, [SP, #16]         ; [DPU_3_PIPE] |516|  ; [ORIG 16-BIT INS]
     475 00000008 200CF8AD          STRH      A3, [SP, #12]         ; [DPU_3_PIPE] |516|  ; [KEEP 32-BIT INS]
     476 0000000c 9102              STR       A2, [SP, #8]          ; [DPU_3_PIPE] |516|  ; [ORIG 16-BIT INS]
     477 0000000e 9001              STR       A1, [SP, #4]          ; [DPU_3_PIPE] |516|  ; [ORIG 16-BIT INS]
     478                            .dwpsn  file "../Source/tasks.c",line 525,column 2,is_stmt,isa 1
     479 00000010 990C              LDR       A2, [SP, #48]         ; [DPU_3_PIPE] |525|  ; [ORIG 16-BIT INS]
     480 00000012 000CF8BD          LDRH      A1, [SP, #12]         ; [DPU_3_PIPE] |525|  ; [KEEP 32-BIT INS]
     481                    $C$DW$61        .dwtag  DW_TAG_TI_branch
     482                            .dwattr $C$DW$61, DW_AT_low_pc(0x00)
     483                            .dwattr $C$DW$61, DW_AT_name("prvAllocateTCBAndStack")
     484                            .dwattr $C$DW$61, DW_AT_TI_call
     485 00000016 FBF5F000          BL        prvAllocateTCBAndStack ; [DPU_3_PIPE] |525|  ; [KEEP 32-BIT INS]
     486                            ; CALL OCCURS {prvAllocateTCBAndStack }  ; [] |525| 
     487 0000001a 9006              STR       A1, [SP, #24]         ; [DPU_3_PIPE] |525|  ; [ORIG 16-BIT INS]
     488                            .dwpsn  file "../Source/tasks.c",line 527,column 2,is_stmt,isa 1
     489 0000001c 9806              LDR       A1, [SP, #24]         ; [DPU_3_PIPE] |527|  ; [ORIG 16-BIT INS]
     490 0000001e 2800              CMP       A1, #0                ; [DPU_3_PIPE] |527|  ; [ORIG 16-BIT INS]
     491 00000020 D05E              BEQ       ||$C$L5||             ; [DPU_3_PIPE] |527|  ; [ORIG 16-BIT INS]
     492                            ; BRANCHCC OCCURS {||$C$L5||}    ; [] |527| 
     493                    ;* --------------------------------------------------------------------------*
     494                    
     495                    $C$DW$62        .dwtag  DW_TAG_lexical_block, DW_AT_low_pc(0x00), DW_AT_high_pc(0x00)
TI ARM Assembler PC v5.1.7 Tue Sep 16 08:38:42 2014

Tools Copyright (c) 1996-2014 Texas Instruments Incorporated
tasks.asm                                                            PAGE   10

     496                    $C$DW$63        .dwtag  DW_TAG_variable, DW_AT_name("pxTopOfStack")
     497                            .dwattr $C$DW$63, DW_AT_TI_symbol_name("pxTopOfStack")
     498                            .dwattr $C$DW$63, DW_AT_type(*$C$DW$T$29)
     499                            .dwattr $C$DW$63, DW_AT_location[DW_OP_breg13 28]
     500                            .dwpsn  file "../Source/tasks.c",line 551,column 4,is_stmt,isa 1
     501 00000022 9906              LDR       A2, [SP, #24]         ; [DPU_3_PIPE] |551|  ; [ORIG 16-BIT INS]
     502 00000024 000CF8BD          LDRH      A1, [SP, #12]         ; [DPU_3_PIPE] |551|  ; [KEEP 32-BIT INS]
     503 00000028 6B09              LDR       A2, [A2, #48]         ; [DPU_3_PIPE] |551|  ; [ORIG 16-BIT INS]
     504 0000002a 1E40              SUBS      A1, A1, #1            ; [DPU_3_PIPE] |551|  ; [ORIG 16-BIT INS]
     505 0000002c 0180EB01          ADD       A2, A2, A1, LSL #2    ; [DPU_3_PIPE] |551|  ; [KEEP 32-BIT INS]
     506 00000030 9107              STR       A2, [SP, #28]         ; [DPU_3_PIPE] |551|  ; [ORIG 16-BIT INS]
     507                            .dwpsn  file "../Source/tasks.c",line 552,column 4,is_stmt,isa 1
     508 00000032 9807              LDR       A1, [SP, #28]         ; [DPU_3_PIPE] |552|  ; [ORIG 16-BIT INS]
     509 00000034 0007F020          BIC       A1, A1, #7            ; [DPU_3_PIPE] |552|  ; [KEEP 32-BIT INS]
     510 00000038 9007              STR       A1, [SP, #28]         ; [DPU_3_PIPE] |552|  ; [ORIG 16-BIT INS]
     511                            .dwpsn  file "../Source/tasks.c",line 572,column 3,is_stmt,isa 1
     512 0000003a 000CF8BD          LDRH      A1, [SP, #12]         ; [DPU_3_PIPE] |572|  ; [KEEP 32-BIT INS]
     513 0000003e 9A0A              LDR       A3, [SP, #40]         ; [DPU_3_PIPE] |572|  ; [ORIG 16-BIT INS]
     514 00000040 9B0D              LDR       A4, [SP, #52]         ; [DPU_3_PIPE] |572|  ; [ORIG 16-BIT INS]
     515 00000042 9000              STR       A1, [SP, #0]          ; [DPU_3_PIPE] |572|  ; [ORIG 16-BIT INS]
     516 00000044 9902              LDR       A2, [SP, #8]          ; [DPU_3_PIPE] |572|  ; [ORIG 16-BIT INS]
     517 00000046 9806              LDR       A1, [SP, #24]         ; [DPU_3_PIPE] |572|  ; [ORIG 16-BIT INS]
     518                    $C$DW$64        .dwtag  DW_TAG_TI_branch
     519                            .dwattr $C$DW$64, DW_AT_low_pc(0x00)
     520                            .dwattr $C$DW$64, DW_AT_name("prvInitialiseTCBVariables")
     521                            .dwattr $C$DW$64, DW_AT_TI_call
     522 00000048 FB4CF000          BL        prvInitialiseTCBVariables ; [DPU_3_PIPE] |572|  ; [KEEP 32-BIT INS]
     523                            ; CALL OCCURS {prvInitialiseTCBVariables }  ; [] |572| 
     524                            .dwpsn  file "../Source/tasks.c",line 584,column 4,is_stmt,isa 1
     525 0000004c 9807              LDR       A1, [SP, #28]         ; [DPU_3_PIPE] |584|  ; [ORIG 16-BIT INS]
     526 0000004e 9901              LDR       A2, [SP, #4]          ; [DPU_3_PIPE] |584|  ; [ORIG 16-BIT INS]
     527 00000050 9A04              LDR       A3, [SP, #16]         ; [DPU_3_PIPE] |584|  ; [ORIG 16-BIT INS]
     528                    $C$DW$65        .dwtag  DW_TAG_TI_branch
     529                            .dwattr $C$DW$65, DW_AT_low_pc(0x00)
     530                            .dwattr $C$DW$65, DW_AT_name("pxPortInitialiseStack")
     531                            .dwattr $C$DW$65, DW_AT_TI_call
     532 00000052 FFFEF7FF!         BL        pxPortInitialiseStack ; [DPU_3_PIPE] |584|  ; [KEEP 32-BIT INS]
     533                            ; CALL OCCURS {pxPortInitialiseStack }  ; [] |584| 
     534 00000056 9906              LDR       A2, [SP, #24]         ; [DPU_3_PIPE] |584|  ; [ORIG 16-BIT INS]
     535 00000058 6008              STR       A1, [A2, #0]          ; [DPU_3_PIPE] |584|  ; [ORIG 16-BIT INS]
     536                            .dwpsn  file "../Source/tasks.c",line 588,column 3,is_stmt,isa 1
     537 0000005a 980B              LDR       A1, [SP, #44]         ; [DPU_3_PIPE] |588|  ; [ORIG 16-BIT INS]
     538 0000005c B110              CBZ       A1, ||$C$L1||         ; []  ; [ORIG 16-BIT INS]
     539                            ; BRANCHCC OCCURS {||$C$L1||}    ; [] |588| 
     540                    ;* --------------------------------------------------------------------------*
     541                            .dwpsn  file "../Source/tasks.c",line 593,column 4,is_stmt,isa 1
     542 0000005e 9806              LDR       A1, [SP, #24]         ; [DPU_3_PIPE] |593|  ; [ORIG 16-BIT INS]
     543 00000060 990B              LDR       A2, [SP, #44]         ; [DPU_3_PIPE] |593|  ; [ORIG 16-BIT INS]
     544 00000062 6008              STR       A1, [A2, #0]          ; [DPU_3_PIPE] |593|  ; [ORIG 16-BIT INS]
     545                            .dwpsn  file "../Source/tasks.c",line 594,column 3,is_stmt,isa 1
     546                    ;* --------------------------------------------------------------------------*
     547 00000064           ||$C$L1||:    
     548                            .dwpsn  file "../Source/tasks.c",line 602,column 3,is_stmt,isa 1
     549                    $C$DW$66        .dwtag  DW_TAG_TI_branch
     550                            .dwattr $C$DW$66, DW_AT_low_pc(0x00)
TI ARM Assembler PC v5.1.7 Tue Sep 16 08:38:42 2014

Tools Copyright (c) 1996-2014 Texas Instruments Incorporated
tasks.asm                                                            PAGE   11

     551                            .dwattr $C$DW$66, DW_AT_name("vPortEnterCritical")
     552                            .dwattr $C$DW$66, DW_AT_TI_call
     553 00000064 FFFEF7FF!         BL        vPortEnterCritical    ; [DPU_3_PIPE] |602|  ; [KEEP 32-BIT INS]
     554                            ; CALL OCCURS {vPortEnterCritical }  ; [] |602| 
     555                            .dwpsn  file "../Source/tasks.c",line 604,column 4,is_stmt,isa 1
     556 00000068 49A2              LDR       A2, $C$CON1           ; [DPU_3_PIPE] |604|  ; [ORIG 16-BIT INS]
     557 0000006a 6808              LDR       A1, [A2, #0]          ; [DPU_3_PIPE] |604|  ; [ORIG 16-BIT INS]
     558 0000006c 1C40              ADDS      A1, A1, #1            ; [DPU_3_PIPE] |604|  ; [ORIG 16-BIT INS]
     559 0000006e 6008              STR       A1, [A2, #0]          ; [DPU_3_PIPE] |604|  ; [ORIG 16-BIT INS]
     560                            .dwpsn  file "../Source/tasks.c",line 605,column 4,is_stmt,isa 1
     561 00000070 48A1              LDR       A1, $C$CON2           ; [DPU_3_PIPE] |605|  ; [ORIG 16-BIT INS]
     562 00000072 6800              LDR       A1, [A1, #0]          ; [DPU_3_PIPE] |605|  ; [ORIG 16-BIT INS]
     563 00000074 B948              CBNZ      A1, ||$C$L2||         ; []  ; [ORIG 16-BIT INS]
     564                            ; BRANCHCC OCCURS {||$C$L2||}    ; [] |605| 
     565                    ;* --------------------------------------------------------------------------*
     566                            .dwpsn  file "../Source/tasks.c",line 609,column 5,is_stmt,isa 1
     567 00000076 9806              LDR       A1, [SP, #24]         ; [DPU_3_PIPE] |609|  ; [ORIG 16-BIT INS]
     568 00000078 499F              LDR       A2, $C$CON2           ; [DPU_3_PIPE] |609|  ; [ORIG 16-BIT INS]
     569 0000007a 6008              STR       A1, [A2, #0]          ; [DPU_3_PIPE] |609|  ; [ORIG 16-BIT INS]
     570                            .dwpsn  file "../Source/tasks.c",line 611,column 5,is_stmt,isa 1
     571 0000007c 489D              LDR       A1, $C$CON1           ; [DPU_3_PIPE] |611|  ; [ORIG 16-BIT INS]
     572 0000007e 6800              LDR       A1, [A1, #0]          ; [DPU_3_PIPE] |611|  ; [ORIG 16-BIT INS]
     573 00000080 2801              CMP       A1, #1                ; [DPU_3_PIPE] |611|  ; [ORIG 16-BIT INS]
     574 00000082 D10F              BNE       ||$C$L3||             ; [DPU_3_PIPE] |611|  ; [ORIG 16-BIT INS]
     575                            ; BRANCHCC OCCURS {||$C$L3||}    ; [] |611| 
     576                    ;* --------------------------------------------------------------------------*
     577                            .dwpsn  file "../Source/tasks.c",line 616,column 6,is_stmt,isa 1
     578                    $C$DW$67        .dwtag  DW_TAG_TI_branch
     579                            .dwattr $C$DW$67, DW_AT_low_pc(0x00)
     580                            .dwattr $C$DW$67, DW_AT_name("prvInitialiseTaskLists")
     581                            .dwattr $C$DW$67, DW_AT_TI_call
     582 00000084 FB70F000          BL        prvInitialiseTaskLists ; [DPU_3_PIPE] |616|  ; [KEEP 32-BIT INS]
     583                            ; CALL OCCURS {prvInitialiseTaskLists }  ; [] |616| 
     584                            .dwpsn  file "../Source/tasks.c",line 617,column 5,is_stmt,isa 1
     585 00000088 E00C              B         ||$C$L3||             ; [DPU_3_PIPE] |617|  ; [ORIG 16-BIT INS]
     586                            ; BRANCH OCCURS {||$C$L3||}      ; [] |617| 
     587                    ;* --------------------------------------------------------------------------*
     588                    ;* --------------------------------------------------------------------------*
     589 0000008a           ||$C$L2||:    
     590                            .dwpsn  file "../Source/tasks.c",line 628,column 5,is_stmt,isa 1
     591 0000008a 48A1              LDR       A1, $C$CON3           ; [DPU_3_PIPE] |628|  ; [ORIG 16-BIT INS]
     592 0000008c 6800              LDR       A1, [A1, #0]          ; [DPU_3_PIPE] |628|  ; [ORIG 16-BIT INS]
     593 0000008e B948              CBNZ      A1, ||$C$L3||         ; []  ; [ORIG 16-BIT INS]
     594                            ; BRANCHCC OCCURS {||$C$L3||}    ; [] |628| 
     595                    ;* --------------------------------------------------------------------------*
     596                            .dwpsn  file "../Source/tasks.c",line 630,column 6,is_stmt,isa 1
     597 00000090 4899              LDR       A1, $C$CON2           ; [DPU_3_PIPE] |630|  ; [ORIG 16-BIT INS]
     598 00000092 6801              LDR       A2, [A1, #0]          ; [DPU_3_PIPE] |630|  ; [ORIG 16-BIT INS]
     599 00000094 980A              LDR       A1, [SP, #40]         ; [DPU_3_PIPE] |630|  ; [ORIG 16-BIT INS]
     600 00000096 6AC9              LDR       A2, [A2, #44]         ; [DPU_3_PIPE] |630|  ; [ORIG 16-BIT INS]
     601 00000098 4288              CMP       A1, A2                ; [DPU_3_PIPE] |630|  ; [ORIG 16-BIT INS]
     602 0000009a D303              BCC       ||$C$L3||             ; [DPU_3_PIPE] |630|  ; [ORIG 16-BIT INS]
     603                            ; BRANCHCC OCCURS {||$C$L3||}    ; [] |630| 
     604                    ;* --------------------------------------------------------------------------*
     605                            .dwpsn  file "../Source/tasks.c",line 632,column 7,is_stmt,isa 1
TI ARM Assembler PC v5.1.7 Tue Sep 16 08:38:42 2014

Tools Copyright (c) 1996-2014 Texas Instruments Incorporated
tasks.asm                                                            PAGE   12

     606 0000009c 9806              LDR       A1, [SP, #24]         ; [DPU_3_PIPE] |632|  ; [ORIG 16-BIT INS]
     607 0000009e 4996              LDR       A2, $C$CON2           ; [DPU_3_PIPE] |632|  ; [ORIG 16-BIT INS]
     608 000000a0 6008              STR       A1, [A2, #0]          ; [DPU_3_PIPE] |632|  ; [ORIG 16-BIT INS]
     609                            .dwpsn  file "../Source/tasks.c",line 633,column 6,is_stmt,isa 1
     610 000000a2 E7FF              B         ||$C$L3||             ; [DPU_3_PIPE] |633|  ; [ORIG 16-BIT INS]
     611                            ; BRANCH OCCURS {||$C$L3||}      ; [] |633| 
     612                    ;* --------------------------------------------------------------------------*
     613                    ;* --------------------------------------------------------------------------*
     614 000000a4           ||$C$L3||:    
     615                            .dwpsn  file "../Source/tasks.c",line 645,column 4,is_stmt,isa 1
     616 000000a4 49A3              LDR       A2, $C$CON4           ; [DPU_3_PIPE] |645|  ; [ORIG 16-BIT INS]
     617 000000a6 6808              LDR       A1, [A2, #0]          ; [DPU_3_PIPE] |645|  ; [ORIG 16-BIT INS]
     618 000000a8 1C40              ADDS      A1, A1, #1            ; [DPU_3_PIPE] |645|  ; [ORIG 16-BIT INS]
     619 000000aa 6008              STR       A1, [A2, #0]          ; [DPU_3_PIPE] |645|  ; [ORIG 16-BIT INS]
     620                            .dwpsn  file "../Source/tasks.c",line 655,column 4,is_stmt,isa 1
     621 000000ac 48A2              LDR       A1, $C$CON5           ; [DPU_3_PIPE] |655|  ; [ORIG 16-BIT INS]
     622 000000ae 9906              LDR       A2, [SP, #24]         ; [DPU_3_PIPE] |655|  ; [ORIG 16-BIT INS]
     623 000000b0 6800              LDR       A1, [A1, #0]          ; [DPU_3_PIPE] |655|  ; [ORIG 16-BIT INS]
     624 000000b2 6AC9              LDR       A2, [A2, #44]         ; [DPU_3_PIPE] |655|  ; [ORIG 16-BIT INS]
     625 000000b4 4288              CMP       A1, A2                ; [DPU_3_PIPE] |655|  ; [ORIG 16-BIT INS]
     626 000000b6 D203              BCS       ||$C$L4||             ; [DPU_3_PIPE] |655|  ; [ORIG 16-BIT INS]
     627                            ; BRANCHCC OCCURS {||$C$L4||}    ; [] |655| 
     628                    ;* --------------------------------------------------------------------------*
     629 000000b8 9806              LDR       A1, [SP, #24]         ; [DPU_3_PIPE] |655|  ; [ORIG 16-BIT INS]
     630 000000ba 499F              LDR       A2, $C$CON5           ; [DPU_3_PIPE] |655|  ; [ORIG 16-BIT INS]
     631 000000bc 6AC0              LDR       A1, [A1, #44]         ; [DPU_3_PIPE] |655|  ; [ORIG 16-BIT INS]
     632 000000be 6008              STR       A1, [A2, #0]          ; [DPU_3_PIPE] |655|  ; [ORIG 16-BIT INS]
     633                    ;* --------------------------------------------------------------------------*
     634 000000c0           ||$C$L4||:    
     635 000000c0 9806              LDR       A1, [SP, #24]         ; [DPU_3_PIPE] |655|  ; [ORIG 16-BIT INS]
     636 000000c2 6AC3              LDR       A4, [A1, #44]         ; [DPU_3_PIPE] |655|  ; [ORIG 16-BIT INS]
     637 000000c4 9906              LDR       A2, [SP, #24]         ; [DPU_3_PIPE] |655|  ; [ORIG 16-BIT INS]
     638 000000c6 489D              LDR       A1, $C$CON6           ; [DPU_3_PIPE] |655|  ; [ORIG 16-BIT INS]
     639 000000c8 009A              LSLS      A3, A4, #2            ; [DPU_3_PIPE] |655|  ; [ORIG 16-BIT INS]
     640 000000ca 1D09              ADDS      A2, A2, #4            ; [DPU_3_PIPE] |655|  ; [ORIG 16-BIT INS]
     641 000000cc 1203EB02          ADD       A3, A3, A4, LSL #4    ; [DPU_3_PIPE] |655|  ; [KEEP 32-BIT INS]
     642 000000d0 1880              ADDS      A1, A1, A3            ; [DPU_3_PIPE] |655|  ; [ORIG 16-BIT INS]
     643                    $C$DW$68        .dwtag  DW_TAG_TI_branch
     644                            .dwattr $C$DW$68, DW_AT_low_pc(0x00)
     645                            .dwattr $C$DW$68, DW_AT_name("vListInsertEnd")
     646                            .dwattr $C$DW$68, DW_AT_TI_call
     647 000000d2 FFFEF7FF!         BL        vListInsertEnd        ; [DPU_3_PIPE] |655|  ; [KEEP 32-BIT INS]
     648                            ; CALL OCCURS {vListInsertEnd }  ; [] |655| 
     649                            .dwpsn  file "../Source/tasks.c",line 657,column 4,is_stmt,isa 1
     650 000000d6 2001              MOVS      A1, #1                ; [DPU_3_PIPE] |657|  ; [ORIG 16-BIT INS]
     651 000000d8 9005              STR       A1, [SP, #20]         ; [DPU_3_PIPE] |657|  ; [ORIG 16-BIT INS]
     652                            .dwpsn  file "../Source/tasks.c",line 658,column 4,is_stmt,isa 1
     653                            .dwpsn  file "../Source/tasks.c",line 660,column 3,is_stmt,isa 1
     654                    $C$DW$69        .dwtag  DW_TAG_TI_branch
     655                            .dwattr $C$DW$69, DW_AT_low_pc(0x00)
     656                            .dwattr $C$DW$69, DW_AT_name("vPortExitCritical")
     657                            .dwattr $C$DW$69, DW_AT_TI_call
     658 000000da FFFEF7FF!         BL        vPortExitCritical     ; [DPU_3_PIPE] |660|  ; [KEEP 32-BIT INS]
     659                            ; CALL OCCURS {vPortExitCritical }  ; [] |660| 
     660                            .dwendtag $C$DW$62
TI ARM Assembler PC v5.1.7 Tue Sep 16 08:38:42 2014

Tools Copyright (c) 1996-2014 Texas Instruments Incorporated
tasks.asm                                                            PAGE   13

     661                    
     662                            .dwpsn  file "../Source/tasks.c",line 661,column 2,is_stmt,isa 1
     663 000000de E002              B         ||$C$L6||             ; [DPU_3_PIPE] |661|  ; [ORIG 16-BIT INS]
     664                            ; BRANCH OCCURS {||$C$L6||}      ; [] |661| 
     665                    ;* --------------------------------------------------------------------------*
     666 000000e0           ||$C$L5||:    
     667                            .dwpsn  file "../Source/tasks.c",line 664,column 3,is_stmt,isa 1
     668 000000e0 30FFF04F          MOV       A1, #-1               ; [DPU_3_PIPE] |664|  ; [KEEP 32-BIT INS]
     669 000000e4 9005              STR       A1, [SP, #20]         ; [DPU_3_PIPE] |664|  ; [ORIG 16-BIT INS]
     670                    ;* --------------------------------------------------------------------------*
     671 000000e6           ||$C$L6||:    
     672                            .dwpsn  file "../Source/tasks.c",line 668,column 2,is_stmt,isa 1
     673 000000e6 9805              LDR       A1, [SP, #20]         ; [DPU_3_PIPE] |668|  ; [ORIG 16-BIT INS]
     674 000000e8 2801              CMP       A1, #1                ; [DPU_3_PIPE] |668|  ; [ORIG 16-BIT INS]
     675 000000ea D108              BNE       ||$C$L7||             ; [DPU_3_PIPE] |668|  ; [ORIG 16-BIT INS]
     676                            ; BRANCHCC OCCURS {||$C$L7||}    ; [] |668| 
     677                    ;* --------------------------------------------------------------------------*
     678                            .dwpsn  file "../Source/tasks.c",line 670,column 3,is_stmt,isa 1
     679 000000ec 4888              LDR       A1, $C$CON3           ; [DPU_3_PIPE] |670|  ; [ORIG 16-BIT INS]
     680 000000ee 6800              LDR       A1, [A1, #0]          ; [DPU_3_PIPE] |670|  ; [ORIG 16-BIT INS]
     681 000000f0 B128              CBZ       A1, ||$C$L7||         ; []  ; [ORIG 16-BIT INS]
     682                            ; BRANCHCC OCCURS {||$C$L7||}    ; [] |670| 
     683                    ;* --------------------------------------------------------------------------*
     684                            .dwpsn  file "../Source/tasks.c",line 674,column 4,is_stmt,isa 1
     685 000000f2 4881              LDR       A1, $C$CON2           ; [DPU_3_PIPE] |674|  ; [ORIG 16-BIT INS]
     686 000000f4 6801              LDR       A2, [A1, #0]          ; [DPU_3_PIPE] |674|  ; [ORIG 16-BIT INS]
     687 000000f6 980A              LDR       A1, [SP, #40]         ; [DPU_3_PIPE] |674|  ; [ORIG 16-BIT INS]
     688 000000f8 6AC9              LDR       A2, [A2, #44]         ; [DPU_3_PIPE] |674|  ; [ORIG 16-BIT INS]
     689 000000fa 4288              CMP       A1, A2                ; [DPU_3_PIPE] |674|  ; [ORIG 16-BIT INS]
     690 000000fc D8FF              BHI       ||$C$L7||             ; [DPU_3_PIPE] |674|  ; [ORIG 16-BIT INS]
     691                            ; BRANCHCC OCCURS {||$C$L7||}    ; [] |674| 
     692                    ;* --------------------------------------------------------------------------*
     693                            .dwpsn  file "../Source/tasks.c",line 677,column 4,is_stmt,isa 1
     694                            .dwpsn  file "../Source/tasks.c",line 682,column 3,is_stmt,isa 1
     695                    ;* --------------------------------------------------------------------------*
     696 000000fe           ||$C$L7||:    
     697                            .dwpsn  file "../Source/tasks.c",line 689,column 2,is_stmt,isa 1
     698 000000fe 9805              LDR       A1, [SP, #20]         ; [DPU_3_PIPE] |689|  ; [ORIG 16-BIT INS]
     699                            .dwpsn  file "../Source/tasks.c",line 690,column 1,is_stmt,isa 1
     700 00000100 B009              ADD       SP, SP, #36           ; [DPU_3_PIPE]  ; [ORIG 16-BIT INS]
     701                            .dwcfi  cfa_offset, 4
     702                    $C$DW$70        .dwtag  DW_TAG_TI_branch
     703                            .dwattr $C$DW$70, DW_AT_low_pc(0x00)
     704                            .dwattr $C$DW$70, DW_AT_TI_return
     705 00000102 BD00              POP       {PC}                  ; [DPU_3_PIPE]  ; [ORIG 16-BIT INS]
     706                            .dwcfi  cfa_offset, 0
     707                            ; BRANCH OCCURS                  ; [] 
     708                            .dwattr $C$DW$46, DW_AT_TI_end_file("../Source/tasks.c")
     709                            .dwattr $C$DW$46, DW_AT_TI_end_line(0x2b2)
     710                            .dwattr $C$DW$46, DW_AT_TI_end_column(0x01)
     711                            .dwendentry
     712                            .dwendtag $C$DW$46
     713                    
     714 00000104                   .sect   ".text"
     715                            .clink
TI ARM Assembler PC v5.1.7 Tue Sep 16 08:38:42 2014

Tools Copyright (c) 1996-2014 Texas Instruments Incorporated
tasks.asm                                                            PAGE   14

     716                            .thumbfunc vTaskDelayUntil
     717 00000104                   .thumb
     718                            .global vTaskDelayUntil
     719                    
     720                    $C$DW$71        .dwtag  DW_TAG_subprogram, DW_AT_name("vTaskDelayUntil")
     721                            .dwattr $C$DW$71, DW_AT_low_pc(vTaskDelayUntil)
     722                            .dwattr $C$DW$71, DW_AT_high_pc(0x00)
     723                            .dwattr $C$DW$71, DW_AT_TI_symbol_name("vTaskDelayUntil")
     724                            .dwattr $C$DW$71, DW_AT_external
     725                            .dwattr $C$DW$71, DW_AT_TI_begin_file("../Source/tasks.c")
     726                            .dwattr $C$DW$71, DW_AT_TI_begin_line(0x309)
     727                            .dwattr $C$DW$71, DW_AT_TI_begin_column(0x07)
     728                            .dwattr $C$DW$71, DW_AT_decl_file("../Source/tasks.c")
     729                            .dwattr $C$DW$71, DW_AT_decl_line(0x309)
     730                            .dwattr $C$DW$71, DW_AT_decl_column(0x07)
     731                            .dwattr $C$DW$71, DW_AT_TI_max_frame_size(0x20)
     732                            .dwpsn  file "../Source/tasks.c",line 778,column 2,is_stmt,address vTaskDelayUntil,isa 1
     733                    
     734                            .dwfde $C$DW$CIE, vTaskDelayUntil
     735                    $C$DW$72        .dwtag  DW_TAG_formal_parameter, DW_AT_name("pxPreviousWakeTime")
     736                            .dwattr $C$DW$72, DW_AT_TI_symbol_name("pxPreviousWakeTime")
     737                            .dwattr $C$DW$72, DW_AT_type(*$C$DW$T$86)
     738                            .dwattr $C$DW$72, DW_AT_location[DW_OP_reg0]
     739                    $C$DW$73        .dwtag  DW_TAG_formal_parameter, DW_AT_name("xTimeIncrement")
     740                            .dwattr $C$DW$73, DW_AT_TI_symbol_name("xTimeIncrement")
     741                            .dwattr $C$DW$73, DW_AT_type(*$C$DW$T$87)
     742                            .dwattr $C$DW$73, DW_AT_location[DW_OP_reg1]
     743                    
     744                    ;*****************************************************************************
     745                    ;* FUNCTION NAME: vTaskDelayUntil                                            *
     746                    ;*                                                                           *
     747                    ;*   Regs Modified     : A1,A2,A3,A4,V9,SP,LR,SR,D0,D0_hi,D1,D1_hi,D2,D2_hi, *
     748                    ;*                           D3,D3_hi,D4,D4_hi,D5,D5_hi,D6,D6_hi,D7,D7_hi,   *
     749                    ;*                           FPEXC,FPSCR                                     *
     750                    ;*   Regs Used         : A1,A2,A3,A4,V9,SP,LR,SR,D0,D0_hi,D1,D1_hi,D2,D2_hi, *
     751                    ;*                           D3,D3_hi,D4,D4_hi,D5,D5_hi,D6,D6_hi,D7,D7_hi,   *
     752                    ;*                           FPEXC,FPSCR                                     *
     753                    ;*   Local Frame Size  : 0 Args + 24 Auto + 4 Save = 28 byte                 *
     754                    ;*****************************************************************************
     755 00000104           vTaskDelayUntil:
     756                    ;* --------------------------------------------------------------------------*
     757                            .dwcfi  cfa_offset, 0
     758 00000104 B500              PUSH      {LR}                  ; [DPU_3_PIPE]  ; [ORIG 16-BIT INS]
     759                            .dwcfi  cfa_offset, 4
     760                            .dwcfi  save_reg_to_mem, 14, -4
     761 00000106 0D1CF1AD          SUB       SP, SP, #28           ; [DPU_3_PIPE]  ; [KEEP 32-BIT INS]
     762                            .dwcfi  cfa_offset, 32
     763                    $C$DW$74        .dwtag  DW_TAG_variable, DW_AT_name("pxPreviousWakeTime")
     764                            .dwattr $C$DW$74, DW_AT_TI_symbol_name("pxPreviousWakeTime")
     765                            .dwattr $C$DW$74, DW_AT_type(*$C$DW$T$86)
     766                            .dwattr $C$DW$74, DW_AT_location[DW_OP_breg13 0]
     767                    $C$DW$75        .dwtag  DW_TAG_variable, DW_AT_name("xTimeIncrement")
     768                            .dwattr $C$DW$75, DW_AT_TI_symbol_name("xTimeIncrement")
     769                            .dwattr $C$DW$75, DW_AT_type(*$C$DW$T$87)
     770                            .dwattr $C$DW$75, DW_AT_location[DW_OP_breg13 4]
TI ARM Assembler PC v5.1.7 Tue Sep 16 08:38:42 2014

Tools Copyright (c) 1996-2014 Texas Instruments Incorporated
tasks.asm                                                            PAGE   15

     771                    $C$DW$76        .dwtag  DW_TAG_variable, DW_AT_name("xTimeToWake")
     772                            .dwattr $C$DW$76, DW_AT_TI_symbol_name("xTimeToWake")
     773                            .dwattr $C$DW$76, DW_AT_type(*$C$DW$T$36)
     774                            .dwattr $C$DW$76, DW_AT_location[DW_OP_breg13 8]
     775                    $C$DW$77        .dwtag  DW_TAG_variable, DW_AT_name("xAlreadyYielded")
     776                            .dwattr $C$DW$77, DW_AT_TI_symbol_name("xAlreadyYielded")
     777                            .dwattr $C$DW$77, DW_AT_type(*$C$DW$T$56)
     778                            .dwattr $C$DW$77, DW_AT_location[DW_OP_breg13 12]
     779                    $C$DW$78        .dwtag  DW_TAG_variable, DW_AT_name("xShouldDelay")
     780                            .dwattr $C$DW$78, DW_AT_TI_symbol_name("xShouldDelay")
     781                            .dwattr $C$DW$78, DW_AT_type(*$C$DW$T$56)
     782                            .dwattr $C$DW$78, DW_AT_location[DW_OP_breg13 16]
     783 0000010a 9101              STR       A2, [SP, #4]          ; [DPU_3_PIPE] |778|  ; [ORIG 16-BIT INS]
     784 0000010c 9000              STR       A1, [SP, #0]          ; [DPU_3_PIPE] |778|  ; [ORIG 16-BIT INS]
     785                            .dwpsn  file "../Source/tasks.c",line 780,column 43,is_stmt,isa 1
     786 0000010e 2000              MOVS      A1, #0                ; [DPU_3_PIPE] |780|  ; [ORIG 16-BIT INS]
     787 00000110 9004              STR       A1, [SP, #16]         ; [DPU_3_PIPE] |780|  ; [ORIG 16-BIT INS]
     788                            .dwpsn  file "../Source/tasks.c",line 786,column 3,is_stmt,isa 1
     789                    $C$DW$79        .dwtag  DW_TAG_TI_branch
     790                            .dwattr $C$DW$79, DW_AT_low_pc(0x00)
     791                            .dwattr $C$DW$79, DW_AT_name("vTaskSuspendAll")
     792                            .dwattr $C$DW$79, DW_AT_TI_call
     793 00000112 F889F000          BL        vTaskSuspendAll       ; [DPU_3_PIPE] |786|  ; [KEEP 32-BIT INS]
     794                            ; CALL OCCURS {vTaskSuspendAll }  ; [] |786| 
     795                    
     796                    $C$DW$80        .dwtag  DW_TAG_lexical_block, DW_AT_low_pc(0x00), DW_AT_high_pc(0x00)
     797                    $C$DW$81        .dwtag  DW_TAG_variable, DW_AT_name("xConstTickCount")
     798                            .dwattr $C$DW$81, DW_AT_TI_symbol_name("xConstTickCount")
     799                            .dwattr $C$DW$81, DW_AT_type(*$C$DW$T$87)
     800                            .dwattr $C$DW$81, DW_AT_location[DW_OP_breg13 20]
     801                            .dwpsn  file "../Source/tasks.c",line 790,column 37,is_stmt,isa 1
     802 00000116 489E              LDR       A1, $C$CON7           ; [DPU_3_PIPE] |790|  ; [ORIG 16-BIT INS]
     803 00000118 6800              LDR       A1, [A1, #0]          ; [DPU_3_PIPE] |790|  ; [ORIG 16-BIT INS]
     804 0000011a 9005              STR       A1, [SP, #20]         ; [DPU_3_PIPE] |790|  ; [ORIG 16-BIT INS]
     805                            .dwpsn  file "../Source/tasks.c",line 793,column 4,is_stmt,isa 1
     806 0000011c 9900              LDR       A2, [SP, #0]          ; [DPU_3_PIPE] |793|  ; [ORIG 16-BIT INS]
     807 0000011e 9801              LDR       A1, [SP, #4]          ; [DPU_3_PIPE] |793|  ; [ORIG 16-BIT INS]
     808 00000120 6809              LDR       A2, [A2, #0]          ; [DPU_3_PIPE] |793|  ; [ORIG 16-BIT INS]
     809 00000122 1840              ADDS      A1, A1, A2            ; [DPU_3_PIPE] |793|  ; [ORIG 16-BIT INS]
     810 00000124 9002              STR       A1, [SP, #8]          ; [DPU_3_PIPE] |793|  ; [ORIG 16-BIT INS]
     811                            .dwpsn  file "../Source/tasks.c",line 795,column 4,is_stmt,isa 1
     812 00000126 9800              LDR       A1, [SP, #0]          ; [DPU_3_PIPE] |795|  ; [ORIG 16-BIT INS]
     813 00000128 9905              LDR       A2, [SP, #20]         ; [DPU_3_PIPE] |795|  ; [ORIG 16-BIT INS]
     814 0000012a 6800              LDR       A1, [A1, #0]          ; [DPU_3_PIPE] |795|  ; [ORIG 16-BIT INS]
     815 0000012c 4288              CMP       A1, A2                ; [DPU_3_PIPE] |795|  ; [ORIG 16-BIT INS]
     816 0000012e D90B              BLS       ||$C$L8||             ; [DPU_3_PIPE] |795|  ; [ORIG 16-BIT INS]
     817                            ; BRANCHCC OCCURS {||$C$L8||}    ; [] |795| 
     818                    ;* --------------------------------------------------------------------------*
     819                            .dwpsn  file "../Source/tasks.c",line 802,column 5,is_stmt,isa 1
     820 00000130 9800              LDR       A1, [SP, #0]          ; [DPU_3_PIPE] |802|  ; [ORIG 16-BIT INS]
     821 00000132 9902              LDR       A2, [SP, #8]          ; [DPU_3_PIPE] |802|  ; [ORIG 16-BIT INS]
     822 00000134 6800              LDR       A1, [A1, #0]          ; [DPU_3_PIPE] |802|  ; [ORIG 16-BIT INS]
     823 00000136 4288              CMP       A1, A2                ; [DPU_3_PIPE] |802|  ; [ORIG 16-BIT INS]
     824 00000138 D911              BLS       ||$C$L10||            ; [DPU_3_PIPE] |802|  ; [ORIG 16-BIT INS]
     825                            ; BRANCHCC OCCURS {||$C$L10||}   ; [] |802| 
TI ARM Assembler PC v5.1.7 Tue Sep 16 08:38:42 2014

Tools Copyright (c) 1996-2014 Texas Instruments Incorporated
tasks.asm                                                            PAGE   16

     826                    ;* --------------------------------------------------------------------------*
     827 0000013a 9805              LDR       A1, [SP, #20]         ; [DPU_3_PIPE] |802|  ; [ORIG 16-BIT INS]
     828 0000013c 9902              LDR       A2, [SP, #8]          ; [DPU_3_PIPE] |802|  ; [ORIG 16-BIT INS]
     829 0000013e 4288              CMP       A1, A2                ; [DPU_3_PIPE] |802|  ; [ORIG 16-BIT INS]
     830 00000140 D20D              BCS       ||$C$L10||            ; [DPU_3_PIPE] |802|  ; [ORIG 16-BIT INS]
     831                            ; BRANCHCC OCCURS {||$C$L10||}   ; [] |802| 
     832                    ;* --------------------------------------------------------------------------*
     833                            .dwpsn  file "../Source/tasks.c",line 804,column 6,is_stmt,isa 1
     834 00000142 2001              MOVS      A1, #1                ; [DPU_3_PIPE] |804|  ; [ORIG 16-BIT INS]
     835 00000144 9004              STR       A1, [SP, #16]         ; [DPU_3_PIPE] |804|  ; [ORIG 16-BIT INS]
     836                            .dwpsn  file "../Source/tasks.c",line 805,column 5,is_stmt,isa 1
     837 00000146 E00A              B         ||$C$L10||            ; [DPU_3_PIPE] |805|  ; [ORIG 16-BIT INS]
     838                            ; BRANCH OCCURS {||$C$L10||}     ; [] |805| 
     839                    ;* --------------------------------------------------------------------------*
     840                    ;* --------------------------------------------------------------------------*
     841 00000148           ||$C$L8||:    
     842                            .dwpsn  file "../Source/tasks.c",line 816,column 5,is_stmt,isa 1
     843 00000148 9800              LDR       A1, [SP, #0]          ; [DPU_3_PIPE] |816|  ; [ORIG 16-BIT INS]
     844 0000014a 9902              LDR       A2, [SP, #8]          ; [DPU_3_PIPE] |816|  ; [ORIG 16-BIT INS]
     845 0000014c 6800              LDR       A1, [A1, #0]          ; [DPU_3_PIPE] |816|  ; [ORIG 16-BIT INS]
     846 0000014e 4288              CMP       A1, A2                ; [DPU_3_PIPE] |816|  ; [ORIG 16-BIT INS]
     847 00000150 D803              BHI       ||$C$L9||             ; [DPU_3_PIPE] |816|  ; [ORIG 16-BIT INS]
     848                            ; BRANCHCC OCCURS {||$C$L9||}    ; [] |816| 
     849                    ;* --------------------------------------------------------------------------*
     850 00000152 9805              LDR       A1, [SP, #20]         ; [DPU_3_PIPE] |816|  ; [ORIG 16-BIT INS]
     851 00000154 9902              LDR       A2, [SP, #8]          ; [DPU_3_PIPE] |816|  ; [ORIG 16-BIT INS]
     852 00000156 4288              CMP       A1, A2                ; [DPU_3_PIPE] |816|  ; [ORIG 16-BIT INS]
     853 00000158 D201              BCS       ||$C$L10||            ; [DPU_3_PIPE] |816|  ; [ORIG 16-BIT INS]
     854                            ; BRANCHCC OCCURS {||$C$L10||}   ; [] |816| 
     855                    ;* --------------------------------------------------------------------------*
     856 0000015a           ||$C$L9||:    
     857                            .dwpsn  file "../Source/tasks.c",line 818,column 6,is_stmt,isa 1
     858 0000015a 2001              MOVS      A1, #1                ; [DPU_3_PIPE] |818|  ; [ORIG 16-BIT INS]
     859 0000015c 9004              STR       A1, [SP, #16]         ; [DPU_3_PIPE] |818|  ; [ORIG 16-BIT INS]
     860                            .dwpsn  file "../Source/tasks.c",line 819,column 5,is_stmt,isa 1
     861                    ;* --------------------------------------------------------------------------*
     862 0000015e           ||$C$L10||:    
     863                            .dwpsn  file "../Source/tasks.c",line 827,column 4,is_stmt,isa 1
     864 0000015e 9802              LDR       A1, [SP, #8]          ; [DPU_3_PIPE] |827|  ; [ORIG 16-BIT INS]
     865 00000160 9900              LDR       A2, [SP, #0]          ; [DPU_3_PIPE] |827|  ; [ORIG 16-BIT INS]
     866 00000162 6008              STR       A1, [A2, #0]          ; [DPU_3_PIPE] |827|  ; [ORIG 16-BIT INS]
     867                            .dwpsn  file "../Source/tasks.c",line 829,column 4,is_stmt,isa 1
     868 00000164 9804              LDR       A1, [SP, #16]         ; [DPU_3_PIPE] |829|  ; [ORIG 16-BIT INS]
     869 00000166 B148              CBZ       A1, ||$C$L12||        ; []  ; [ORIG 16-BIT INS]
     870                            ; BRANCHCC OCCURS {||$C$L12||}   ; [] |829| 
     871                    ;* --------------------------------------------------------------------------*
     872                            .dwpsn  file "../Source/tasks.c",line 835,column 5,is_stmt,isa 1
     873 00000168 4863              LDR       A1, $C$CON2           ; [DPU_3_PIPE] |835|  ; [ORIG 16-BIT INS]
     874 0000016a 6800              LDR       A1, [A1, #0]          ; [DPU_3_PIPE] |835|  ; [ORIG 16-BIT INS]
     875 0000016c 1D00              ADDS      A1, A1, #4            ; [DPU_3_PIPE] |835|  ; [ORIG 16-BIT INS]
     876                    $C$DW$82        .dwtag  DW_TAG_TI_branch
     877                            .dwattr $C$DW$82, DW_AT_low_pc(0x00)
     878                            .dwattr $C$DW$82, DW_AT_name("uxListRemove")
     879                            .dwattr $C$DW$82, DW_AT_TI_call
     880 0000016e FFFEF7FF!         BL        uxListRemove          ; [DPU_3_PIPE] |835|  ; [KEEP 32-BIT INS]
TI ARM Assembler PC v5.1.7 Tue Sep 16 08:38:42 2014

Tools Copyright (c) 1996-2014 Texas Instruments Incorporated
tasks.asm                                                            PAGE   17

     881                            ; CALL OCCURS {uxListRemove }    ; [] |835| 
     882 00000172 2800              CMP       A1, #0                ; [DPU_3_PIPE] |835|  ; [ORIG 16-BIT INS]
     883 00000174 D0FF              BEQ       ||$C$L11||            ; [DPU_3_PIPE] |835|  ; [ORIG 16-BIT INS]
     884                            ; BRANCHCC OCCURS {||$C$L11||}   ; [] |835| 
     885                    ;* --------------------------------------------------------------------------*
     886                            .dwpsn  file "../Source/tasks.c",line 841,column 5,is_stmt,isa 1
     887                    ;* --------------------------------------------------------------------------*
     888 00000176           ||$C$L11||:    
     889                            .dwpsn  file "../Source/tasks.c",line 847,column 5,is_stmt,isa 1
     890 00000176 9802              LDR       A1, [SP, #8]          ; [DPU_3_PIPE] |847|  ; [ORIG 16-BIT INS]
     891                    $C$DW$83        .dwtag  DW_TAG_TI_branch
     892                            .dwattr $C$DW$83, DW_AT_low_pc(0x00)
     893                            .dwattr $C$DW$83, DW_AT_name("prvAddCurrentTaskToDelayedList")
     894                            .dwattr $C$DW$83, DW_AT_TI_call
     895 00000178 FB1EF000          BL        prvAddCurrentTaskToDelayedList ; [DPU_3_PIPE] |847|  ; [KEEP 32-BIT INS]
     896                            ; CALL OCCURS {prvAddCurrentTaskToDelayedList }  ; [] |847| 
     897                            .dwpsn  file "../Source/tasks.c",line 848,column 4,is_stmt,isa 1
     898                    ;* --------------------------------------------------------------------------*
     899                    ||$C$L12||:    
     900                            .dwendtag $C$DW$80
     901                    
     902                            .dwpsn  file "../Source/tasks.c",line 854,column 3,is_stmt,isa 1
     903                    $C$DW$84        .dwtag  DW_TAG_TI_branch
     904                            .dwattr $C$DW$84, DW_AT_low_pc(0x00)
     905                            .dwattr $C$DW$84, DW_AT_name("xTaskResumeAll")
     906                            .dwattr $C$DW$84, DW_AT_TI_call
     907 0000017c F859F000          BL        xTaskResumeAll        ; [DPU_3_PIPE] |854|  ; [KEEP 32-BIT INS]
     908                            ; CALL OCCURS {xTaskResumeAll }  ; [] |854| 
     909 00000180 9003              STR       A1, [SP, #12]         ; [DPU_3_PIPE] |854|  ; [ORIG 16-BIT INS]
     910                            .dwpsn  file "../Source/tasks.c",line 858,column 3,is_stmt,isa 1
     911 00000182 9803              LDR       A1, [SP, #12]         ; [DPU_3_PIPE] |858|  ; [ORIG 16-BIT INS]
     912 00000184 B910              CBNZ      A1, ||$C$L13||        ; []  ; [ORIG 16-BIT INS]
     913                            ; BRANCHCC OCCURS {||$C$L13||}   ; [] |858| 
     914                    ;* --------------------------------------------------------------------------*
     915                            .dwpsn  file "../Source/tasks.c",line 860,column 4,is_stmt,isa 1
     916                    $C$DW$85        .dwtag  DW_TAG_TI_branch
     917                            .dwattr $C$DW$85, DW_AT_low_pc(0x00)
     918                            .dwattr $C$DW$85, DW_AT_name("vPortYieldFromISR")
     919                            .dwattr $C$DW$85, DW_AT_TI_call
     920 00000186 FFFEF7FF!         BL        vPortYieldFromISR     ; [DPU_3_PIPE] |860|  ; [KEEP 32-BIT INS]
     921                            ; CALL OCCURS {vPortYieldFromISR }  ; [] |860| 
     922                            .dwpsn  file "../Source/tasks.c",line 861,column 3,is_stmt,isa 1
     923 0000018a E7FF              B         ||$C$L13||            ; [DPU_3_PIPE] |861|  ; [ORIG 16-BIT INS]
     924                            ; BRANCH OCCURS {||$C$L13||}     ; [] |861| 
     925                    ;* --------------------------------------------------------------------------*
     926                    ;* --------------------------------------------------------------------------*
     927 0000018c           ||$C$L13||:    
     928 0000018c B007              ADD       SP, SP, #28           ; [DPU_3_PIPE]  ; [ORIG 16-BIT INS]
     929                            .dwcfi  cfa_offset, 4
     930                    $C$DW$86        .dwtag  DW_TAG_TI_branch
     931                            .dwattr $C$DW$86, DW_AT_low_pc(0x00)
     932                            .dwattr $C$DW$86, DW_AT_TI_return
     933 0000018e BD00              POP       {PC}                  ; [DPU_3_PIPE]  ; [ORIG 16-BIT INS]
     934                            .dwcfi  cfa_offset, 0
     935                            ; BRANCH OCCURS                  ; [] 
TI ARM Assembler PC v5.1.7 Tue Sep 16 08:38:42 2014

Tools Copyright (c) 1996-2014 Texas Instruments Incorporated
tasks.asm                                                            PAGE   18

     936                            .dwattr $C$DW$71, DW_AT_TI_end_file("../Source/tasks.c")
     937                            .dwattr $C$DW$71, DW_AT_TI_end_line(0x362)
     938                            .dwattr $C$DW$71, DW_AT_TI_end_column(0x02)
     939                            .dwendentry
     940                            .dwendtag $C$DW$71
     941                    
     942 00000190                   .sect   ".text"
     943                            .clink
     944                            .thumbfunc vTaskDelay
     945 00000190                   .thumb
     946                            .global vTaskDelay
     947                    
     948                    $C$DW$87        .dwtag  DW_TAG_subprogram, DW_AT_name("vTaskDelay")
     949                            .dwattr $C$DW$87, DW_AT_low_pc(vTaskDelay)
     950                            .dwattr $C$DW$87, DW_AT_high_pc(0x00)
     951                            .dwattr $C$DW$87, DW_AT_TI_symbol_name("vTaskDelay")
     952                            .dwattr $C$DW$87, DW_AT_external
     953                            .dwattr $C$DW$87, DW_AT_TI_begin_file("../Source/tasks.c")
     954                            .dwattr $C$DW$87, DW_AT_TI_begin_line(0x369)
     955                            .dwattr $C$DW$87, DW_AT_TI_begin_column(0x07)
     956                            .dwattr $C$DW$87, DW_AT_decl_file("../Source/tasks.c")
     957                            .dwattr $C$DW$87, DW_AT_decl_line(0x369)
     958                            .dwattr $C$DW$87, DW_AT_decl_column(0x07)
     959                            .dwattr $C$DW$87, DW_AT_TI_max_frame_size(0x10)
     960                            .dwpsn  file "../Source/tasks.c",line 874,column 2,is_stmt,address vTaskDelay,isa 1
     961                    
     962                            .dwfde $C$DW$CIE, vTaskDelay
     963                    $C$DW$88        .dwtag  DW_TAG_formal_parameter, DW_AT_name("xTicksToDelay")
     964                            .dwattr $C$DW$88, DW_AT_TI_symbol_name("xTicksToDelay")
     965                            .dwattr $C$DW$88, DW_AT_type(*$C$DW$T$87)
     966                            .dwattr $C$DW$88, DW_AT_location[DW_OP_reg0]
     967                    
     968                    ;*****************************************************************************
     969                    ;* FUNCTION NAME: vTaskDelay                                                 *
     970                    ;*                                                                           *
     971                    ;*   Regs Modified     : A1,A2,A3,A4,V9,SP,LR,SR,D0,D0_hi,D1,D1_hi,D2,D2_hi, *
     972                    ;*                           D3,D3_hi,D4,D4_hi,D5,D5_hi,D6,D6_hi,D7,D7_hi,   *
     973                    ;*                           FPEXC,FPSCR                                     *
     974                    ;*   Regs Used         : A1,A2,A3,A4,V9,SP,LR,SR,D0,D0_hi,D1,D1_hi,D2,D2_hi, *
     975                    ;*                           D3,D3_hi,D4,D4_hi,D5,D5_hi,D6,D6_hi,D7,D7_hi,   *
     976                    ;*                           FPEXC,FPSCR                                     *
     977                    ;*   Local Frame Size  : 0 Args + 12 Auto + 4 Save = 16 byte                 *
     978                    ;*****************************************************************************
     979 00000190           vTaskDelay:
     980                    ;* --------------------------------------------------------------------------*
     981                            .dwcfi  cfa_offset, 0
     982 00000190 B50E              PUSH      {A2, A3, A4, LR}      ; [DPU_3_PIPE]  ; [ORIG 16-BIT INS]
     983                            .dwcfi  cfa_offset, 16
     984                            .dwcfi  save_reg_to_mem, 14, -4
     985                            .dwcfi  save_reg_to_mem, 3, -8
     986                            .dwcfi  save_reg_to_mem, 2, -12
     987                            .dwcfi  save_reg_to_mem, 1, -16
     988                    $C$DW$89        .dwtag  DW_TAG_variable, DW_AT_name("xTicksToDelay")
     989                            .dwattr $C$DW$89, DW_AT_TI_symbol_name("xTicksToDelay")
     990                            .dwattr $C$DW$89, DW_AT_type(*$C$DW$T$87)
TI ARM Assembler PC v5.1.7 Tue Sep 16 08:38:42 2014

Tools Copyright (c) 1996-2014 Texas Instruments Incorporated
tasks.asm                                                            PAGE   19

     991                            .dwattr $C$DW$89, DW_AT_location[DW_OP_breg13 0]
     992                    $C$DW$90        .dwtag  DW_TAG_variable, DW_AT_name("xTimeToWake")
     993                            .dwattr $C$DW$90, DW_AT_TI_symbol_name("xTimeToWake")
     994                            .dwattr $C$DW$90, DW_AT_type(*$C$DW$T$36)
     995                            .dwattr $C$DW$90, DW_AT_location[DW_OP_breg13 4]
     996                    $C$DW$91        .dwtag  DW_TAG_variable, DW_AT_name("xAlreadyYielded")
     997                            .dwattr $C$DW$91, DW_AT_TI_symbol_name("xAlreadyYielded")
     998                            .dwattr $C$DW$91, DW_AT_type(*$C$DW$T$56)
     999                            .dwattr $C$DW$91, DW_AT_location[DW_OP_breg13 8]
    1000 00000192 9000              STR       A1, [SP, #0]          ; [DPU_3_PIPE] |874|  ; [ORIG 16-BIT INS]
    1001                            .dwpsn  file "../Source/tasks.c",line 876,column 29,is_stmt,isa 1
    1002 00000194 2000              MOVS      A1, #0                ; [DPU_3_PIPE] |876|  ; [ORIG 16-BIT INS]
    1003 00000196 9002              STR       A1, [SP, #8]          ; [DPU_3_PIPE] |876|  ; [ORIG 16-BIT INS]
    1004                            .dwpsn  file "../Source/tasks.c",line 880,column 3,is_stmt,isa 1
    1005 00000198 9800              LDR       A1, [SP, #0]          ; [DPU_3_PIPE] |880|  ; [ORIG 16-BIT INS]
    1006 0000019a B198              CBZ       A1, ||$C$L15||        ; []  ; [ORIG 16-BIT INS]
    1007                            ; BRANCHCC OCCURS {||$C$L15||}   ; [] |880| 
    1008                    ;* --------------------------------------------------------------------------*
    1009                            .dwpsn  file "../Source/tasks.c",line 883,column 4,is_stmt,isa 1
    1010                    $C$DW$92        .dwtag  DW_TAG_TI_branch
    1011                            .dwattr $C$DW$92, DW_AT_low_pc(0x00)
    1012                            .dwattr $C$DW$92, DW_AT_name("vTaskSuspendAll")
    1013                            .dwattr $C$DW$92, DW_AT_TI_call
    1014 0000019c F844F000          BL        vTaskSuspendAll       ; [DPU_3_PIPE] |883|  ; [KEEP 32-BIT INS]
    1015                            ; CALL OCCURS {vTaskSuspendAll }  ; [] |883| 
    1016                            .dwpsn  file "../Source/tasks.c",line 897,column 5,is_stmt,isa 1
    1017 000001a0 497B              LDR       A2, $C$CON7           ; [DPU_3_PIPE] |897|  ; [ORIG 16-BIT INS]
    1018 000001a2 9800              LDR       A1, [SP, #0]          ; [DPU_3_PIPE] |897|  ; [ORIG 16-BIT INS]
    1019 000001a4 6809              LDR       A2, [A2, #0]          ; [DPU_3_PIPE] |897|  ; [ORIG 16-BIT INS]
    1020 000001a6 1840              ADDS      A1, A1, A2            ; [DPU_3_PIPE] |897|  ; [ORIG 16-BIT INS]
    1021 000001a8 9001              STR       A1, [SP, #4]          ; [DPU_3_PIPE] |897|  ; [ORIG 16-BIT INS]
    1022                            .dwpsn  file "../Source/tasks.c",line 902,column 5,is_stmt,isa 1
    1023 000001aa 4853              LDR       A1, $C$CON2           ; [DPU_3_PIPE] |902|  ; [ORIG 16-BIT INS]
    1024 000001ac 6800              LDR       A1, [A1, #0]          ; [DPU_3_PIPE] |902|  ; [ORIG 16-BIT INS]
    1025 000001ae 1D00              ADDS      A1, A1, #4            ; [DPU_3_PIPE] |902|  ; [ORIG 16-BIT INS]
    1026                    $C$DW$93        .dwtag  DW_TAG_TI_branch
    1027                            .dwattr $C$DW$93, DW_AT_low_pc(0x00)
    1028                            .dwattr $C$DW$93, DW_AT_name("uxListRemove")
    1029                            .dwattr $C$DW$93, DW_AT_TI_call
    1030 000001b0 FFFEF7FF!         BL        uxListRemove          ; [DPU_3_PIPE] |902|  ; [KEEP 32-BIT INS]
    1031                            ; CALL OCCURS {uxListRemove }    ; [] |902| 
    1032 000001b4 2800              CMP       A1, #0                ; [DPU_3_PIPE] |902|  ; [ORIG 16-BIT INS]
    1033 000001b6 D0FF              BEQ       ||$C$L14||            ; [DPU_3_PIPE] |902|  ; [ORIG 16-BIT INS]
    1034                            ; BRANCHCC OCCURS {||$C$L14||}   ; [] |902| 
    1035                    ;* --------------------------------------------------------------------------*
    1036                            .dwpsn  file "../Source/tasks.c",line 908,column 5,is_stmt,isa 1
    1037                    ;* --------------------------------------------------------------------------*
    1038 000001b8           ||$C$L14||:    
    1039                            .dwpsn  file "../Source/tasks.c",line 913,column 5,is_stmt,isa 1
    1040 000001b8 9801              LDR       A1, [SP, #4]          ; [DPU_3_PIPE] |913|  ; [ORIG 16-BIT INS]
    1041                    $C$DW$94        .dwtag  DW_TAG_TI_branch
    1042                            .dwattr $C$DW$94, DW_AT_low_pc(0x00)
    1043                            .dwattr $C$DW$94, DW_AT_name("prvAddCurrentTaskToDelayedList")
    1044                            .dwattr $C$DW$94, DW_AT_TI_call
    1045 000001ba FAFDF000          BL        prvAddCurrentTaskToDelayedList ; [DPU_3_PIPE] |913|  ; [KEEP 32-BIT INS]
TI ARM Assembler PC v5.1.7 Tue Sep 16 08:38:42 2014

Tools Copyright (c) 1996-2014 Texas Instruments Incorporated
tasks.asm                                                            PAGE   20

    1046                            ; CALL OCCURS {prvAddCurrentTaskToDelayedList }  ; [] |913| 
    1047                            .dwpsn  file "../Source/tasks.c",line 915,column 4,is_stmt,isa 1
    1048                    $C$DW$95        .dwtag  DW_TAG_TI_branch
    1049                            .dwattr $C$DW$95, DW_AT_low_pc(0x00)
    1050                            .dwattr $C$DW$95, DW_AT_name("xTaskResumeAll")
    1051                            .dwattr $C$DW$95, DW_AT_TI_call
    1052 000001be F838F000          BL        xTaskResumeAll        ; [DPU_3_PIPE] |915|  ; [KEEP 32-BIT INS]
    1053                            ; CALL OCCURS {xTaskResumeAll }  ; [] |915| 
    1054 000001c2 9002              STR       A1, [SP, #8]          ; [DPU_3_PIPE] |915|  ; [ORIG 16-BIT INS]
    1055                            .dwpsn  file "../Source/tasks.c",line 916,column 3,is_stmt,isa 1
    1056                    ;* --------------------------------------------------------------------------*
    1057 000001c4           ||$C$L15||:    
    1058                            .dwpsn  file "../Source/tasks.c",line 924,column 3,is_stmt,isa 1
    1059 000001c4 9802              LDR       A1, [SP, #8]          ; [DPU_3_PIPE] |924|  ; [ORIG 16-BIT INS]
    1060 000001c6 B910              CBNZ      A1, ||$C$L16||        ; []  ; [ORIG 16-BIT INS]
    1061                            ; BRANCHCC OCCURS {||$C$L16||}   ; [] |924| 
    1062                    ;* --------------------------------------------------------------------------*
    1063                            .dwpsn  file "../Source/tasks.c",line 926,column 4,is_stmt,isa 1
    1064                    $C$DW$96        .dwtag  DW_TAG_TI_branch
    1065                            .dwattr $C$DW$96, DW_AT_low_pc(0x00)
    1066                            .dwattr $C$DW$96, DW_AT_name("vPortYieldFromISR")
    1067                            .dwattr $C$DW$96, DW_AT_TI_call
    1068 000001c8 FFFEF7FF!         BL        vPortYieldFromISR     ; [DPU_3_PIPE] |926|  ; [KEEP 32-BIT INS]
    1069                            ; CALL OCCURS {vPortYieldFromISR }  ; [] |926| 
    1070                            .dwpsn  file "../Source/tasks.c",line 927,column 3,is_stmt,isa 1
    1071 000001cc E7FF              B         ||$C$L16||            ; [DPU_3_PIPE] |927|  ; [ORIG 16-BIT INS]
    1072                            ; BRANCH OCCURS {||$C$L16||}     ; [] |927| 
    1073                    ;* --------------------------------------------------------------------------*
    1074                    ;* --------------------------------------------------------------------------*
    1075                    ||$C$L16||:    
    1076                    $C$DW$97        .dwtag  DW_TAG_TI_branch
    1077                            .dwattr $C$DW$97, DW_AT_low_pc(0x00)
    1078                            .dwattr $C$DW$97, DW_AT_TI_return
    1079 000001ce BD0E              POP       {A2, A3, A4, PC}      ; [DPU_3_PIPE]  ; [ORIG 16-BIT INS]
    1080                            .dwcfi  cfa_offset, 0
    1081                            ; BRANCH OCCURS                  ; [] 
    1082                            .dwattr $C$DW$87, DW_AT_TI_end_file("../Source/tasks.c")
    1083                            .dwattr $C$DW$87, DW_AT_TI_end_line(0x3a4)
    1084                            .dwattr $C$DW$87, DW_AT_TI_end_column(0x02)
    1085                            .dwendentry
    1086                            .dwendtag $C$DW$87
    1087                    
    1088 000001d0                   .sect   ".text"
    1089                            .clink
    1090                            .thumbfunc vTaskStartScheduler
    1091 000001d0                   .thumb
    1092                            .global vTaskStartScheduler
    1093                    
    1094                    $C$DW$98        .dwtag  DW_TAG_subprogram, DW_AT_name("vTaskStartScheduler")
    1095                            .dwattr $C$DW$98, DW_AT_low_pc(vTaskStartScheduler)
    1096                            .dwattr $C$DW$98, DW_AT_high_pc(0x00)
    1097                            .dwattr $C$DW$98, DW_AT_TI_symbol_name("vTaskStartScheduler")
    1098                            .dwattr $C$DW$98, DW_AT_external
    1099                            .dwattr $C$DW$98, DW_AT_TI_begin_file("../Source/tasks.c")
    1100                            .dwattr $C$DW$98, DW_AT_TI_begin_line(0x5ae)
TI ARM Assembler PC v5.1.7 Tue Sep 16 08:38:42 2014

Tools Copyright (c) 1996-2014 Texas Instruments Incorporated
tasks.asm                                                            PAGE   21

    1101                            .dwattr $C$DW$98, DW_AT_TI_begin_column(0x06)
    1102                            .dwattr $C$DW$98, DW_AT_decl_file("../Source/tasks.c")
    1103                            .dwattr $C$DW$98, DW_AT_decl_line(0x5ae)
    1104                            .dwattr $C$DW$98, DW_AT_decl_column(0x06)
    1105                            .dwattr $C$DW$98, DW_AT_TI_max_frame_size(0x18)
    1106                            .dwpsn  file "../Source/tasks.c",line 1455,column 1,is_stmt,address vTaskStartScheduler,isa 1
    1107                    
    1108                            .dwfde $C$DW$CIE, vTaskStartScheduler
    1109                    
    1110                    ;*****************************************************************************
    1111                    ;* FUNCTION NAME: vTaskStartScheduler                                        *
    1112                    ;*                                                                           *
    1113                    ;*   Regs Modified     : A1,A2,A3,A4,V9,SP,LR,SR,D0,D0_hi,D1,D1_hi,D2,D2_hi, *
    1114                    ;*                           D3,D3_hi,D4,D4_hi,D5,D5_hi,D6,D6_hi,D7,D7_hi,   *
    1115                    ;*                           FPEXC,FPSCR                                     *
    1116                    ;*   Regs Used         : A1,A2,A3,A4,V9,SP,LR,SR,D0,D0_hi,D1,D1_hi,D2,D2_hi, *
    1117                    ;*                           D3,D3_hi,D4,D4_hi,D5,D5_hi,D6,D6_hi,D7,D7_hi,   *
    1118                    ;*                           FPEXC,FPSCR                                     *
    1119                    ;*   Local Frame Size  : 16 Args + 4 Auto + 4 Save = 24 byte                 *
    1120                    ;*****************************************************************************
    1121 000001d0           vTaskStartScheduler:
    1122                    ;* --------------------------------------------------------------------------*
    1123                            .dwcfi  cfa_offset, 0
    1124 000001d0 B500              PUSH      {LR}                  ; [DPU_3_PIPE]  ; [ORIG 16-BIT INS]
    1125                            .dwcfi  cfa_offset, 4
    1126                            .dwcfi  save_reg_to_mem, 14, -4
    1127 000001d2 0D14F1AD          SUB       SP, SP, #20           ; [DPU_3_PIPE]  ; [KEEP 32-BIT INS]
    1128                            .dwcfi  cfa_offset, 24
    1129                    $C$DW$99        .dwtag  DW_TAG_variable, DW_AT_name("xReturn")
    1130                            .dwattr $C$DW$99, DW_AT_TI_symbol_name("xReturn")
    1131                            .dwattr $C$DW$99, DW_AT_type(*$C$DW$T$56)
    1132                            .dwattr $C$DW$99, DW_AT_location[DW_OP_breg13 16]
    1133                            .dwpsn  file "../Source/tasks.c",line 1468,column 3,is_stmt,isa 1
    1134 000001d6 2000              MOVS      A1, #0                ; [DPU_3_PIPE] |1468|  ; [ORIG 16-BIT INS]
    1135 000001d8 9000              STR       A1, [SP, #0]          ; [DPU_3_PIPE] |1468|  ; [ORIG 16-BIT INS]
    1136 000001da 2000              MOVS      A1, #0                ; [DPU_3_PIPE] |1468|  ; [ORIG 16-BIT INS]
    1137 000001dc 9001              STR       A1, [SP, #4]          ; [DPU_3_PIPE] |1468|  ; [ORIG 16-BIT INS]
    1138 000001de 2000              MOVS      A1, #0                ; [DPU_3_PIPE] |1468|  ; [ORIG 16-BIT INS]
    1139 000001e0 9002              STR       A1, [SP, #8]          ; [DPU_3_PIPE] |1468|  ; [ORIG 16-BIT INS]
    1140 000001e2 2000              MOVS      A1, #0                ; [DPU_3_PIPE] |1468|  ; [ORIG 16-BIT INS]
    1141 000001e4 9003              STR       A1, [SP, #12]         ; [DPU_3_PIPE] |1468|  ; [ORIG 16-BIT INS]
    1142 000001e6 488F              LDR       A1, $C$CON8           ; [DPU_3_PIPE] |1468|  ; [ORIG 16-BIT INS]
    1143 000001e8 A18C              ADR       A2, $C$SL1            ; [DPU_3_PIPE] |1468|  ; [ORIG 16-BIT INS]
    1144 000001ea 2280              MOVS      A3, #128              ; [DPU_3_PIPE] |1468|  ; [ORIG 16-BIT INS]
    1145 000001ec 2300              MOVS      A4, #0                ; [DPU_3_PIPE] |1468|  ; [ORIG 16-BIT INS]
    1146                    $C$DW$100       .dwtag  DW_TAG_TI_branch
    1147                            .dwattr $C$DW$100, DW_AT_low_pc(0x00)
    1148                            .dwattr $C$DW$100, DW_AT_name("xTaskGenericCreate")
    1149                            .dwattr $C$DW$100, DW_AT_TI_call
    1150 000001ee FF07F7FF          BL        xTaskGenericCreate    ; [DPU_3_PIPE] |1468|  ; [KEEP 32-BIT INS]
    1151                            ; CALL OCCURS {xTaskGenericCreate }  ; [] |1468| 
    1152 000001f2 9004              STR       A1, [SP, #16]         ; [DPU_3_PIPE] |1468|  ; [ORIG 16-BIT INS]
    1153                            .dwpsn  file "../Source/tasks.c",line 1485,column 2,is_stmt,isa 1
    1154 000001f4 9804              LDR       A1, [SP, #16]         ; [DPU_3_PIPE] |1485|  ; [ORIG 16-BIT INS]
    1155 000001f6 2801              CMP       A1, #1                ; [DPU_3_PIPE] |1485|  ; [ORIG 16-BIT INS]
TI ARM Assembler PC v5.1.7 Tue Sep 16 08:38:42 2014

Tools Copyright (c) 1996-2014 Texas Instruments Incorporated
tasks.asm                                                            PAGE   22

    1156 000001f8 D10B              BNE       ||$C$L17||            ; [DPU_3_PIPE] |1485|  ; [ORIG 16-BIT INS]
    1157                            ; BRANCHCC OCCURS {||$C$L17||}   ; [] |1485| 
    1158                    ;* --------------------------------------------------------------------------*
    1159                            .dwpsn  file "../Source/tasks.c",line 1492,column 3,is_stmt,isa 1
    1160                    $C$DW$101       .dwtag  DW_TAG_TI_branch
    1161                            .dwattr $C$DW$101, DW_AT_low_pc(0x00)
    1162                            .dwattr $C$DW$101, DW_AT_name("ulPortSetInterruptMask")
    1163                            .dwattr $C$DW$101, DW_AT_TI_call
    1164 000001fa FFFEF7FF!         BL        ulPortSetInterruptMask ; [DPU_3_PIPE] |1492|  ; [KEEP 32-BIT INS]
    1165                            ; CALL OCCURS {ulPortSetInterruptMask }  ; [] |1492| 
    1166                            .dwpsn  file "../Source/tasks.c",line 1502,column 3,is_stmt,isa 1
    1167 000001fe 4944              LDR       A2, $C$CON3           ; [DPU_3_PIPE] |1502|  ; [ORIG 16-BIT INS]
    1168 00000200 2001              MOVS      A1, #1                ; [DPU_3_PIPE] |1502|  ; [ORIG 16-BIT INS]
    1169 00000202 6008              STR       A1, [A2, #0]          ; [DPU_3_PIPE] |1502|  ; [ORIG 16-BIT INS]
    1170                            .dwpsn  file "../Source/tasks.c",line 1503,column 3,is_stmt,isa 1
    1171 00000204 4962              LDR       A2, $C$CON7           ; [DPU_3_PIPE] |1503|  ; [ORIG 16-BIT INS]
    1172 00000206 2000              MOVS      A1, #0                ; [DPU_3_PIPE] |1503|  ; [ORIG 16-BIT INS]
    1173 00000208 6008              STR       A1, [A2, #0]          ; [DPU_3_PIPE] |1503|  ; [ORIG 16-BIT INS]
    1174                            .dwpsn  file "../Source/tasks.c",line 1512,column 3,is_stmt,isa 1
    1175                    $C$DW$102       .dwtag  DW_TAG_TI_branch
    1176                            .dwattr $C$DW$102, DW_AT_low_pc(0x00)
    1177                            .dwattr $C$DW$102, DW_AT_name("xPortStartScheduler")
    1178                            .dwattr $C$DW$102, DW_AT_TI_call
    1179 0000020a FFFEF7FF!         BL        xPortStartScheduler   ; [DPU_3_PIPE] |1512|  ; [KEEP 32-BIT INS]
    1180                            ; CALL OCCURS {xPortStartScheduler }  ; [] |1512| 
    1181 0000020e B900              CBNZ      A1, ||$C$L17||        ; []  ; [ORIG 16-BIT INS]
    1182                            ; BRANCHCC OCCURS {||$C$L17||}   ; [] |1512| 
    1183                    ;* --------------------------------------------------------------------------*
    1184                            .dwpsn  file "../Source/tasks.c",line 1516,column 3,is_stmt,isa 1
    1185                            .dwpsn  file "../Source/tasks.c",line 1521,column 2,is_stmt,isa 1
    1186 00000210 E7FF              B         ||$C$L17||            ; [DPU_3_PIPE] |1521|  ; [ORIG 16-BIT INS]
    1187                            ; BRANCH OCCURS {||$C$L17||}     ; [] |1521| 
    1188                    ;* --------------------------------------------------------------------------*
    1189                    ;* --------------------------------------------------------------------------*
    1190 00000212           ||$C$L17||:    
    1191 00000212 B005              ADD       SP, SP, #20           ; [DPU_3_PIPE]  ; [ORIG 16-BIT INS]
    1192                            .dwcfi  cfa_offset, 4
    1193                    $C$DW$103       .dwtag  DW_TAG_TI_branch
    1194                            .dwattr $C$DW$103, DW_AT_low_pc(0x00)
    1195                            .dwattr $C$DW$103, DW_AT_TI_return
    1196 00000214 BD00              POP       {PC}                  ; [DPU_3_PIPE]  ; [ORIG 16-BIT INS]
    1197                            .dwcfi  cfa_offset, 0
    1198                            ; BRANCH OCCURS                  ; [] 
    1199                            .dwattr $C$DW$98, DW_AT_TI_end_file("../Source/tasks.c")
    1200                            .dwattr $C$DW$98, DW_AT_TI_end_line(0x5f9)
    1201                            .dwattr $C$DW$98, DW_AT_TI_end_column(0x01)
    1202                            .dwendentry
    1203                            .dwendtag $C$DW$98
    1204                    
    1205 00000216                   .sect   ".text"
    1206                            .clink
    1207                            .thumbfunc vTaskEndScheduler
    1208 00000216                   .thumb
    1209                            .global vTaskEndScheduler
    1210                    
TI ARM Assembler PC v5.1.7 Tue Sep 16 08:38:42 2014

Tools Copyright (c) 1996-2014 Texas Instruments Incorporated
tasks.asm                                                            PAGE   23

    1211                    $C$DW$104       .dwtag  DW_TAG_subprogram, DW_AT_name("vTaskEndScheduler")
    1212                            .dwattr $C$DW$104, DW_AT_low_pc(vTaskEndScheduler)
    1213                            .dwattr $C$DW$104, DW_AT_high_pc(0x00)
    1214                            .dwattr $C$DW$104, DW_AT_TI_symbol_name("vTaskEndScheduler")
    1215                            .dwattr $C$DW$104, DW_AT_external
    1216                            .dwattr $C$DW$104, DW_AT_TI_begin_file("../Source/tasks.c")
    1217                            .dwattr $C$DW$104, DW_AT_TI_begin_line(0x5fc)
    1218                            .dwattr $C$DW$104, DW_AT_TI_begin_column(0x06)
    1219                            .dwattr $C$DW$104, DW_AT_decl_file("../Source/tasks.c")
    1220                            .dwattr $C$DW$104, DW_AT_decl_line(0x5fc)
    1221                            .dwattr $C$DW$104, DW_AT_decl_column(0x06)
    1222                            .dwattr $C$DW$104, DW_AT_TI_max_frame_size(0x08)
    1223                            .dwpsn  file "../Source/tasks.c",line 1533,column 1,is_stmt,address vTaskEndScheduler,isa 1
    1224                    
    1225                            .dwfde $C$DW$CIE, vTaskEndScheduler
    1226                    
    1227                    ;*****************************************************************************
    1228                    ;* FUNCTION NAME: vTaskEndScheduler                                          *
    1229                    ;*                                                                           *
    1230                    ;*   Regs Modified     : A1,A2,A3,A4,V9,SP,LR,SR,D0,D0_hi,D1,D1_hi,D2,D2_hi, *
    1231                    ;*                           D3,D3_hi,D4,D4_hi,D5,D5_hi,D6,D6_hi,D7,D7_hi,   *
    1232                    ;*                           FPEXC,FPSCR                                     *
    1233                    ;*   Regs Used         : A1,A2,A3,A4,V9,SP,LR,SR,D0,D0_hi,D1,D1_hi,D2,D2_hi, *
    1234                    ;*                           D3,D3_hi,D4,D4_hi,D5,D5_hi,D6,D6_hi,D7,D7_hi,   *
    1235                    ;*                           FPEXC,FPSCR                                     *
    1236                    ;*   Local Frame Size  : 0 Args + 0 Auto + 4 Save = 4 byte                   *
    1237                    ;*****************************************************************************
    1238 00000216           vTaskEndScheduler:
    1239                    ;* --------------------------------------------------------------------------*
    1240                            .dwcfi  cfa_offset, 0
    1241 00000216 B508              PUSH      {A4, LR}              ; [DPU_3_PIPE]  ; [ORIG 16-BIT INS]
    1242                            .dwcfi  cfa_offset, 8
    1243                            .dwcfi  save_reg_to_mem, 14, -4
    1244                            .dwcfi  save_reg_to_mem, 3, -8
    1245                            .dwpsn  file "../Source/tasks.c",line 1537,column 2,is_stmt,isa 1
    1246                    $C$DW$105       .dwtag  DW_TAG_TI_branch
    1247                            .dwattr $C$DW$105, DW_AT_low_pc(0x00)
    1248                            .dwattr $C$DW$105, DW_AT_name("ulPortSetInterruptMask")
    1249                            .dwattr $C$DW$105, DW_AT_TI_call
    1250 00000218 FFFEF7FF!         BL        ulPortSetInterruptMask ; [DPU_3_PIPE] |1537|  ; [KEEP 32-BIT INS]
    1251                            ; CALL OCCURS {ulPortSetInterruptMask }  ; [] |1537| 
    1252                            .dwpsn  file "../Source/tasks.c",line 1538,column 2,is_stmt,isa 1
    1253 0000021c 493C              LDR       A2, $C$CON3           ; [DPU_3_PIPE] |1538|  ; [ORIG 16-BIT INS]
    1254 0000021e 2000              MOVS      A1, #0                ; [DPU_3_PIPE] |1538|  ; [ORIG 16-BIT INS]
    1255 00000220 6008              STR       A1, [A2, #0]          ; [DPU_3_PIPE] |1538|  ; [ORIG 16-BIT INS]
    1256                            .dwpsn  file "../Source/tasks.c",line 1539,column 2,is_stmt,isa 1
    1257                    $C$DW$106       .dwtag  DW_TAG_TI_branch
    1258                            .dwattr $C$DW$106, DW_AT_low_pc(0x00)
    1259                            .dwattr $C$DW$106, DW_AT_name("vPortEndScheduler")
    1260                            .dwattr $C$DW$106, DW_AT_TI_call
    1261 00000222 FFFEF7FF!         BL        vPortEndScheduler     ; [DPU_3_PIPE] |1539|  ; [KEEP 32-BIT INS]
    1262                            ; CALL OCCURS {vPortEndScheduler }  ; [] |1539| 
    1263                            .dwpsn  file "../Source/tasks.c",line 1540,column 1,is_stmt,isa 1
    1264                    $C$DW$107       .dwtag  DW_TAG_TI_branch
    1265                            .dwattr $C$DW$107, DW_AT_low_pc(0x00)
TI ARM Assembler PC v5.1.7 Tue Sep 16 08:38:42 2014

Tools Copyright (c) 1996-2014 Texas Instruments Incorporated
tasks.asm                                                            PAGE   24

    1266                            .dwattr $C$DW$107, DW_AT_TI_return
    1267 00000226 BD08              POP       {A4, PC}              ; [DPU_3_PIPE]  ; [ORIG 16-BIT INS]
    1268                            .dwcfi  cfa_offset, 0
    1269                            ; BRANCH OCCURS                  ; [] 
    1270                            .dwattr $C$DW$104, DW_AT_TI_end_file("../Source/tasks.c")
    1271                            .dwattr $C$DW$104, DW_AT_TI_end_line(0x604)
    1272                            .dwattr $C$DW$104, DW_AT_TI_end_column(0x01)
    1273                            .dwendentry
    1274                            .dwendtag $C$DW$104
    1275                    
    1276 00000228                   .sect   ".text"
    1277                            .clink
    1278                            .thumbfunc vTaskSuspendAll
    1279 00000228                   .thumb
    1280                            .global vTaskSuspendAll
    1281                    
    1282                    $C$DW$108       .dwtag  DW_TAG_subprogram, DW_AT_name("vTaskSuspendAll")
    1283                            .dwattr $C$DW$108, DW_AT_low_pc(vTaskSuspendAll)
    1284                            .dwattr $C$DW$108, DW_AT_high_pc(0x00)
    1285                            .dwattr $C$DW$108, DW_AT_TI_symbol_name("vTaskSuspendAll")
    1286                            .dwattr $C$DW$108, DW_AT_external
    1287                            .dwattr $C$DW$108, DW_AT_TI_begin_file("../Source/tasks.c")
    1288                            .dwattr $C$DW$108, DW_AT_TI_begin_line(0x607)
    1289                            .dwattr $C$DW$108, DW_AT_TI_begin_column(0x06)
    1290                            .dwattr $C$DW$108, DW_AT_decl_file("../Source/tasks.c")
    1291                            .dwattr $C$DW$108, DW_AT_decl_line(0x607)
    1292                            .dwattr $C$DW$108, DW_AT_decl_column(0x06)
    1293                            .dwattr $C$DW$108, DW_AT_TI_max_frame_size(0x00)
    1294                            .dwpsn  file "../Source/tasks.c",line 1544,column 1,is_stmt,address vTaskSuspendAll,isa 1
    1295                    
    1296                            .dwfde $C$DW$CIE, vTaskSuspendAll
    1297                    
    1298                    ;*****************************************************************************
    1299                    ;* FUNCTION NAME: vTaskSuspendAll                                            *
    1300                    ;*                                                                           *
    1301                    ;*   Regs Modified     : A1,A2,SR                                            *
    1302                    ;*   Regs Used         : A1,A2,LR,SR                                         *
    1303                    ;*   Local Frame Size  : 0 Args + 0 Auto + 0 Save = 0 byte                   *
    1304                    ;*****************************************************************************
    1305 00000228           vTaskSuspendAll:
    1306                    ;* --------------------------------------------------------------------------*
    1307                            .dwcfi  cfa_offset, 0
    1308                            .dwpsn  file "../Source/tasks.c",line 1549,column 2,is_stmt,isa 1
    1309 00000228 499D              LDR       A2, $C$CON9           ; [DPU_3_PIPE] |1549|  ; [ORIG 16-BIT INS]
    1310 0000022a 6808              LDR       A1, [A2, #0]          ; [DPU_3_PIPE] |1549|  ; [ORIG 16-BIT INS]
    1311 0000022c 1C40              ADDS      A1, A1, #1            ; [DPU_3_PIPE] |1549|  ; [ORIG 16-BIT INS]
    1312 0000022e 6008              STR       A1, [A2, #0]          ; [DPU_3_PIPE] |1549|  ; [ORIG 16-BIT INS]
    1313                            .dwpsn  file "../Source/tasks.c",line 1550,column 1,is_stmt,isa 1
    1314                    $C$DW$109       .dwtag  DW_TAG_TI_branch
    1315                            .dwattr $C$DW$109, DW_AT_low_pc(0x00)
    1316                            .dwattr $C$DW$109, DW_AT_TI_return
    1317 00000230 4770              BX        LR                    ; [DPU_3_PIPE]  ; [ORIG 16-BIT INS]
    1318                            ; BRANCH OCCURS                  ; [] 
    1319                            .dwattr $C$DW$108, DW_AT_TI_end_file("../Source/tasks.c")
    1320                            .dwattr $C$DW$108, DW_AT_TI_end_line(0x60e)
TI ARM Assembler PC v5.1.7 Tue Sep 16 08:38:42 2014

Tools Copyright (c) 1996-2014 Texas Instruments Incorporated
tasks.asm                                                            PAGE   25

    1321                            .dwattr $C$DW$108, DW_AT_TI_end_column(0x01)
    1322                            .dwendentry
    1323                            .dwendtag $C$DW$108
    1324                    
    1325 00000232                   .sect   ".text"
    1326                            .clink
    1327                            .thumbfunc xTaskResumeAll
    1328 00000232                   .thumb
    1329                            .global xTaskResumeAll
    1330                    
    1331                    $C$DW$110       .dwtag  DW_TAG_subprogram, DW_AT_name("xTaskResumeAll")
    1332                            .dwattr $C$DW$110, DW_AT_low_pc(xTaskResumeAll)
    1333                            .dwattr $C$DW$110, DW_AT_high_pc(0x00)
    1334                            .dwattr $C$DW$110, DW_AT_TI_symbol_name("xTaskResumeAll")
    1335                            .dwattr $C$DW$110, DW_AT_external
    1336                            .dwattr $C$DW$110, DW_AT_type(*$C$DW$T$56)
    1337                            .dwattr $C$DW$110, DW_AT_TI_begin_file("../Source/tasks.c")
    1338                            .dwattr $C$DW$110, DW_AT_TI_begin_line(0x62d)
    1339                            .dwattr $C$DW$110, DW_AT_TI_begin_column(0x0c)
    1340                            .dwattr $C$DW$110, DW_AT_decl_file("../Source/tasks.c")
    1341                            .dwattr $C$DW$110, DW_AT_decl_line(0x62d)
    1342                            .dwattr $C$DW$110, DW_AT_decl_column(0x0c)
    1343                            .dwattr $C$DW$110, DW_AT_TI_max_frame_size(0x10)
    1344                            .dwpsn  file "../Source/tasks.c",line 1582,column 1,is_stmt,address xTaskResumeAll,isa 1
    1345                    
    1346                            .dwfde $C$DW$CIE, xTaskResumeAll
    1347                    
    1348                    ;*****************************************************************************
    1349                    ;* FUNCTION NAME: xTaskResumeAll                                             *
    1350                    ;*                                                                           *
    1351                    ;*   Regs Modified     : A1,A2,A3,A4,V9,SP,LR,SR,D0,D0_hi,D1,D1_hi,D2,D2_hi, *
    1352                    ;*                           D3,D3_hi,D4,D4_hi,D5,D5_hi,D6,D6_hi,D7,D7_hi,   *
    1353                    ;*                           FPEXC,FPSCR                                     *
    1354                    ;*   Regs Used         : A1,A2,A3,A4,V9,SP,LR,SR,D0,D0_hi,D1,D1_hi,D2,D2_hi, *
    1355                    ;*                           D3,D3_hi,D4,D4_hi,D5,D5_hi,D6,D6_hi,D7,D7_hi,   *
    1356                    ;*                           FPEXC,FPSCR                                     *
    1357                    ;*   Local Frame Size  : 0 Args + 8 Auto + 4 Save = 12 byte                  *
    1358                    ;*****************************************************************************
    1359 00000232           xTaskResumeAll:
    1360                    ;* --------------------------------------------------------------------------*
    1361                            .dwcfi  cfa_offset, 0
    1362 00000232 B50E              PUSH      {A2, A3, A4, LR}      ; [DPU_3_PIPE]  ; [ORIG 16-BIT INS]
    1363                            .dwcfi  cfa_offset, 16
    1364                            .dwcfi  save_reg_to_mem, 14, -4
    1365                            .dwcfi  save_reg_to_mem, 3, -8
    1366                            .dwcfi  save_reg_to_mem, 2, -12
    1367                            .dwcfi  save_reg_to_mem, 1, -16
    1368                    $C$DW$111       .dwtag  DW_TAG_variable, DW_AT_name("pxTCB")
    1369                            .dwattr $C$DW$111, DW_AT_TI_symbol_name("pxTCB")
    1370                            .dwattr $C$DW$111, DW_AT_type(*$C$DW$T$100)
    1371                            .dwattr $C$DW$111, DW_AT_location[DW_OP_breg13 0]
    1372                    $C$DW$112       .dwtag  DW_TAG_variable, DW_AT_name("xAlreadyYielded")
    1373                            .dwattr $C$DW$112, DW_AT_TI_symbol_name("xAlreadyYielded")
    1374                            .dwattr $C$DW$112, DW_AT_type(*$C$DW$T$56)
    1375                            .dwattr $C$DW$112, DW_AT_location[DW_OP_breg13 4]
TI ARM Assembler PC v5.1.7 Tue Sep 16 08:38:42 2014

Tools Copyright (c) 1996-2014 Texas Instruments Incorporated
tasks.asm                                                            PAGE   26

    1376                            .dwpsn  file "../Source/tasks.c",line 1584,column 28,is_stmt,isa 1
    1377 00000234 2000              MOVS      A1, #0                ; [DPU_3_PIPE] |1584|  ; [ORIG 16-BIT INS]
    1378 00000236 9001              STR       A1, [SP, #4]          ; [DPU_3_PIPE] |1584|  ; [ORIG 16-BIT INS]
    1379                            .dwpsn  file "../Source/tasks.c",line 1595,column 2,is_stmt,isa 1
    1380                    $C$DW$113       .dwtag  DW_TAG_TI_branch
    1381                            .dwattr $C$DW$113, DW_AT_low_pc(0x00)
    1382                            .dwattr $C$DW$113, DW_AT_name("vPortEnterCritical")
    1383                            .dwattr $C$DW$113, DW_AT_TI_call
    1384 00000238 FFFEF7FF!         BL        vPortEnterCritical    ; [DPU_3_PIPE] |1595|  ; [KEEP 32-BIT INS]
    1385                            ; CALL OCCURS {vPortEnterCritical }  ; [] |1595| 
    1386                            .dwpsn  file "../Source/tasks.c",line 1597,column 3,is_stmt,isa 1
    1387 0000023c 4998              LDR       A2, $C$CON9           ; [DPU_3_PIPE] |1597|  ; [ORIG 16-BIT INS]
    1388 0000023e 6808              LDR       A1, [A2, #0]          ; [DPU_3_PIPE] |1597|  ; [ORIG 16-BIT INS]
    1389 00000240 1E40              SUBS      A1, A1, #1            ; [DPU_3_PIPE] |1597|  ; [ORIG 16-BIT INS]
    1390 00000242 6008              STR       A1, [A2, #0]          ; [DPU_3_PIPE] |1597|  ; [ORIG 16-BIT INS]
    1391                            .dwpsn  file "../Source/tasks.c",line 1599,column 3,is_stmt,isa 1
    1392 00000244 4896              LDR       A1, $C$CON9           ; [DPU_3_PIPE] |1599|  ; [ORIG 16-BIT INS]
    1393 00000246 6800              LDR       A1, [A1, #0]          ; [DPU_3_PIPE] |1599|  ; [ORIG 16-BIT INS]
    1394 00000248 2800              CMP       A1, #0                ; [DPU_3_PIPE] |1599|  ; [ORIG 16-BIT INS]
    1395 0000024a D14E              BNE       ||$C$L25||            ; [DPU_3_PIPE] |1599|  ; [ORIG 16-BIT INS]
    1396                            ; BRANCHCC OCCURS {||$C$L25||}   ; [] |1599| 
    1397                    ;* --------------------------------------------------------------------------*
    1398                            .dwpsn  file "../Source/tasks.c",line 1601,column 4,is_stmt,isa 1
    1399 0000024c 4829              LDR       A1, $C$CON1           ; [DPU_3_PIPE] |1601|  ; [ORIG 16-BIT INS]
    1400 0000024e 6800              LDR       A1, [A1, #0]          ; [DPU_3_PIPE] |1601|  ; [ORIG 16-BIT INS]
    1401 00000250 2800              CMP       A1, #0                ; [DPU_3_PIPE] |1601|  ; [ORIG 16-BIT INS]
    1402 00000252 D04A              BEQ       ||$C$L25||            ; [DPU_3_PIPE] |1601|  ; [ORIG 16-BIT INS]
    1403                            ; BRANCHCC OCCURS {||$C$L25||}   ; [] |1601| 
    1404                    ;* --------------------------------------------------------------------------*
    1405                            .dwpsn  file "../Source/tasks.c",line 1605,column 5,is_stmt,isa 1
    1406 00000254 E02A              B         ||$C$L20||            ; [DPU_3_PIPE] |1605|  ; [ORIG 16-BIT INS]
    1407                            ; BRANCH OCCURS {||$C$L20||}     ; [] |1605| 
    1408                    ;* --------------------------------------------------------------------------*
    1409 00000256           ||$C$L18||:    
    1410                            .dwpsn  file "../Source/tasks.c",line 1607,column 6,is_stmt,isa 1
    1411 00000256 48A0              LDR       A1, $C$CON10          ; [DPU_3_PIPE] |1607|  ; [ORIG 16-BIT INS]
    1412 00000258 6800              LDR       A1, [A1, #0]          ; [DPU_3_PIPE] |1607|  ; [ORIG 16-BIT INS]
    1413 0000025a 68C0              LDR       A1, [A1, #12]         ; [DPU_3_PIPE] |1607|  ; [ORIG 16-BIT INS]
    1414 0000025c 9000              STR       A1, [SP, #0]          ; [DPU_3_PIPE] |1607|  ; [ORIG 16-BIT INS]
    1415                            .dwpsn  file "../Source/tasks.c",line 1608,column 6,is_stmt,isa 1
    1416 0000025e 9800              LDR       A1, [SP, #0]          ; [DPU_3_PIPE] |1608|  ; [ORIG 16-BIT INS]
    1417 00000260 3018              ADDS      A1, A1, #24           ; [DPU_3_PIPE] |1608|  ; [ORIG 16-BIT INS]
    1418                    $C$DW$114       .dwtag  DW_TAG_TI_branch
    1419                            .dwattr $C$DW$114, DW_AT_low_pc(0x00)
    1420                            .dwattr $C$DW$114, DW_AT_name("uxListRemove")
    1421                            .dwattr $C$DW$114, DW_AT_TI_call
    1422 00000262 FFFEF7FF!         BL        uxListRemove          ; [DPU_3_PIPE] |1608|  ; [KEEP 32-BIT INS]
    1423                            ; CALL OCCURS {uxListRemove }    ; [] |1608| 
    1424                            .dwpsn  file "../Source/tasks.c",line 1609,column 6,is_stmt,isa 1
    1425 00000266 9800              LDR       A1, [SP, #0]          ; [DPU_3_PIPE] |1609|  ; [ORIG 16-BIT INS]
    1426 00000268 1D00              ADDS      A1, A1, #4            ; [DPU_3_PIPE] |1609|  ; [ORIG 16-BIT INS]
    1427                    $C$DW$115       .dwtag  DW_TAG_TI_branch
    1428                            .dwattr $C$DW$115, DW_AT_low_pc(0x00)
    1429                            .dwattr $C$DW$115, DW_AT_name("uxListRemove")
    1430                            .dwattr $C$DW$115, DW_AT_TI_call
TI ARM Assembler PC v5.1.7 Tue Sep 16 08:38:42 2014

Tools Copyright (c) 1996-2014 Texas Instruments Incorporated
tasks.asm                                                            PAGE   27

    1431 0000026a FFFEF7FF!         BL        uxListRemove          ; [DPU_3_PIPE] |1609|  ; [KEEP 32-BIT INS]
    1432                            ; CALL OCCURS {uxListRemove }    ; [] |1609| 
    1433                            .dwpsn  file "../Source/tasks.c",line 1610,column 6,is_stmt,isa 1
    1434 0000026e 4832              LDR       A1, $C$CON5           ; [DPU_3_PIPE] |1610|  ; [ORIG 16-BIT INS]
    1435 00000270 9900              LDR       A2, [SP, #0]          ; [DPU_3_PIPE] |1610|  ; [ORIG 16-BIT INS]
    1436 00000272 6800              LDR       A1, [A1, #0]          ; [DPU_3_PIPE] |1610|  ; [ORIG 16-BIT INS]
    1437 00000274 6AC9              LDR       A2, [A2, #44]         ; [DPU_3_PIPE] |1610|  ; [ORIG 16-BIT INS]
    1438 00000276 4288              CMP       A1, A2                ; [DPU_3_PIPE] |1610|  ; [ORIG 16-BIT INS]
    1439 00000278 D203              BCS       ||$C$L19||            ; [DPU_3_PIPE] |1610|  ; [ORIG 16-BIT INS]
    1440                            ; BRANCHCC OCCURS {||$C$L19||}   ; [] |1610| 
    1441                    ;* --------------------------------------------------------------------------*
    1442 0000027a 9800              LDR       A1, [SP, #0]          ; [DPU_3_PIPE] |1610|  ; [ORIG 16-BIT INS]
    1443 0000027c 492E              LDR       A2, $C$CON5           ; [DPU_3_PIPE] |1610|  ; [ORIG 16-BIT INS]
    1444 0000027e 6AC0              LDR       A1, [A1, #44]         ; [DPU_3_PIPE] |1610|  ; [ORIG 16-BIT INS]
    1445 00000280 6008              STR       A1, [A2, #0]          ; [DPU_3_PIPE] |1610|  ; [ORIG 16-BIT INS]
    1446                    ;* --------------------------------------------------------------------------*
    1447 00000282           ||$C$L19||:    
    1448 00000282 9800              LDR       A1, [SP, #0]          ; [DPU_3_PIPE] |1610|  ; [ORIG 16-BIT INS]
    1449 00000284 6AC3              LDR       A4, [A1, #44]         ; [DPU_3_PIPE] |1610|  ; [ORIG 16-BIT INS]
    1450 00000286 9900              LDR       A2, [SP, #0]          ; [DPU_3_PIPE] |1610|  ; [ORIG 16-BIT INS]
    1451 00000288 482C              LDR       A1, $C$CON6           ; [DPU_3_PIPE] |1610|  ; [ORIG 16-BIT INS]
    1452 0000028a 009A              LSLS      A3, A4, #2            ; [DPU_3_PIPE] |1610|  ; [ORIG 16-BIT INS]
    1453 0000028c 1D09              ADDS      A2, A2, #4            ; [DPU_3_PIPE] |1610|  ; [ORIG 16-BIT INS]
    1454 0000028e 1203EB02          ADD       A3, A3, A4, LSL #4    ; [DPU_3_PIPE] |1610|  ; [KEEP 32-BIT INS]
    1455 00000292 1880              ADDS      A1, A1, A3            ; [DPU_3_PIPE] |1610|  ; [ORIG 16-BIT INS]
    1456                    $C$DW$116       .dwtag  DW_TAG_TI_branch
    1457                            .dwattr $C$DW$116, DW_AT_low_pc(0x00)
    1458                            .dwattr $C$DW$116, DW_AT_name("vListInsertEnd")
    1459                            .dwattr $C$DW$116, DW_AT_TI_call
    1460 00000294 FFFEF7FF!         BL        vListInsertEnd        ; [DPU_3_PIPE] |1610|  ; [KEEP 32-BIT INS]
    1461                            ; CALL OCCURS {vListInsertEnd }  ; [] |1610| 
    1462                            .dwpsn  file "../Source/tasks.c",line 1614,column 6,is_stmt,isa 1
    1463 00000298 4817              LDR       A1, $C$CON2           ; [DPU_3_PIPE] |1614|  ; [ORIG 16-BIT INS]
    1464 0000029a 9900              LDR       A2, [SP, #0]          ; [DPU_3_PIPE] |1614|  ; [ORIG 16-BIT INS]
    1465 0000029c 6800              LDR       A1, [A1, #0]          ; [DPU_3_PIPE] |1614|  ; [ORIG 16-BIT INS]
    1466 0000029e 6AC9              LDR       A2, [A2, #44]         ; [DPU_3_PIPE] |1614|  ; [ORIG 16-BIT INS]
    1467 000002a0 6AC0              LDR       A1, [A1, #44]         ; [DPU_3_PIPE] |1614|  ; [ORIG 16-BIT INS]
    1468 000002a2 4288              CMP       A1, A2                ; [DPU_3_PIPE] |1614|  ; [ORIG 16-BIT INS]
    1469 000002a4 D802              BHI       ||$C$L20||            ; [DPU_3_PIPE] |1614|  ; [ORIG 16-BIT INS]
    1470                            ; BRANCHCC OCCURS {||$C$L20||}   ; [] |1614| 
    1471                    ;* --------------------------------------------------------------------------*
    1472                            .dwpsn  file "../Source/tasks.c",line 1616,column 7,is_stmt,isa 1
    1473 000002a6 499F              LDR       A2, $C$CON11          ; [DPU_3_PIPE] |1616|  ; [ORIG 16-BIT INS]
    1474 000002a8 2001              MOVS      A1, #1                ; [DPU_3_PIPE] |1616|  ; [ORIG 16-BIT INS]
    1475 000002aa 6008              STR       A1, [A2, #0]          ; [DPU_3_PIPE] |1616|  ; [ORIG 16-BIT INS]
    1476                            .dwpsn  file "../Source/tasks.c",line 1617,column 6,is_stmt,isa 1
    1477                    ;* --------------------------------------------------------------------------*
    1478                    ;*   BEGIN LOOP ||$C$L20||
    1479                    ;* --------------------------------------------------------------------------*
    1480 000002ac           ||$C$L20||:    
    1481                            .dwpsn  file "../Source/tasks.c",line 1605,column 12,is_stmt,isa 1
    1482 000002ac 489E              LDR       A1, $C$CON12          ; [DPU_3_PIPE] |1605|  ; [ORIG 16-BIT INS]
    1483 000002ae 6801              LDR       A2, [A1, #0]          ; [DPU_3_PIPE] |1605|  ; [ORIG 16-BIT INS]
    1484 000002b0 2000              MOVS      A1, #0                ; [DPU_3_PIPE] |1605|  ; [ORIG 16-BIT INS]
    1485 000002b2 B901              CBNZ      A2, ||$C$L21||        ; []  ; [ORIG 16-BIT INS]
TI ARM Assembler PC v5.1.7 Tue Sep 16 08:38:42 2014

Tools Copyright (c) 1996-2014 Texas Instruments Incorporated
tasks.asm                                                            PAGE   28

    1486                            ; BRANCHCC OCCURS {||$C$L21||}   ; [] |1605| 
    1487                    ;* --------------------------------------------------------------------------*
    1488 000002b4 2001              MOVS      A1, #1                ; [DPU_3_PIPE] |1605|  ; [ORIG 16-BIT INS]
    1489                    ;* --------------------------------------------------------------------------*
    1490 000002b6           ||$C$L21||:    
    1491 000002b6 2800              CMP       A1, #0                ; [DPU_3_PIPE] |1605|  ; [ORIG 16-BIT INS]
    1492 000002b8 D0CD              BEQ       ||$C$L18||            ; [DPU_3_PIPE] |1605|  ; [ORIG 16-BIT INS]
    1493                            ; BRANCHCC OCCURS {||$C$L18||}   ; [] |1605| 
    1494                    ;* --------------------------------------------------------------------------*
    1495                            .dwpsn  file "../Source/tasks.c",line 1628,column 5,is_stmt,isa 1
    1496 000002ba 489C              LDR       A1, $C$CON13          ; [DPU_3_PIPE] |1628|  ; [ORIG 16-BIT INS]
    1497 000002bc 6800              LDR       A1, [A1, #0]          ; [DPU_3_PIPE] |1628|  ; [ORIG 16-BIT INS]
    1498 000002be B180              CBZ       A1, ||$C$L24||        ; []  ; [ORIG 16-BIT INS]
    1499                            ; BRANCHCC OCCURS {||$C$L24||}   ; [] |1628| 
    1500                    ;* --------------------------------------------------------------------------*
    1501                            .dwpsn  file "../Source/tasks.c",line 1630,column 13,is_stmt,isa 1
    1502 000002c0 489A              LDR       A1, $C$CON13          ; [DPU_3_PIPE] |1630|  ; [ORIG 16-BIT INS]
    1503 000002c2 6800              LDR       A1, [A1, #0]          ; [DPU_3_PIPE] |1630|  ; [ORIG 16-BIT INS]
    1504 000002c4 B168              CBZ       A1, ||$C$L24||        ; []  ; [ORIG 16-BIT INS]
    1505                            ; BRANCHCC OCCURS {||$C$L24||}   ; [] |1630| 
    1506                    ;* --------------------------------------------------------------------------*
    1507                    ;*   BEGIN LOOP ||$C$L22||
    1508                    ;*
    1509                    ;*   Loop source line                : 1630
    1510                    ;*   Loop closing brace source line  : 1641
    1511                    ;*   Known Minimum Trip Count        : 1
    1512                    ;*   Known Maximum Trip Count        : 4294967295
    1513                    ;*   Known Max Trip Count Factor     : 1
    1514                    ;* --------------------------------------------------------------------------*
    1515 000002c6           ||$C$L22||:    
    1516                            .dwpsn  file "../Source/tasks.c",line 1632,column 7,is_stmt,isa 1
    1517                    $C$DW$117       .dwtag  DW_TAG_TI_branch
    1518                            .dwattr $C$DW$117, DW_AT_low_pc(0x00)
    1519                            .dwattr $C$DW$117, DW_AT_name("xTaskIncrementTick")
    1520                            .dwattr $C$DW$117, DW_AT_TI_call
    1521 000002c6 F83BF000          BL        xTaskIncrementTick    ; [DPU_3_PIPE] |1632|  ; [KEEP 32-BIT INS]
    1522                            ; CALL OCCURS {xTaskIncrementTick }  ; [] |1632| 
    1523 000002ca B110              CBZ       A1, ||$C$L23||        ; []  ; [ORIG 16-BIT INS]
    1524                            ; BRANCHCC OCCURS {||$C$L23||}   ; [] |1632| 
    1525                    ;* --------------------------------------------------------------------------*
    1526                            .dwpsn  file "../Source/tasks.c",line 1634,column 8,is_stmt,isa 1
    1527 000002cc 4995              LDR       A2, $C$CON11          ; [DPU_3_PIPE] |1634|  ; [ORIG 16-BIT INS]
    1528 000002ce 2001              MOVS      A1, #1                ; [DPU_3_PIPE] |1634|  ; [ORIG 16-BIT INS]
    1529 000002d0 6008              STR       A1, [A2, #0]          ; [DPU_3_PIPE] |1634|  ; [ORIG 16-BIT INS]
    1530                            .dwpsn  file "../Source/tasks.c",line 1635,column 7,is_stmt,isa 1
    1531                    ;* --------------------------------------------------------------------------*
    1532 000002d2           ||$C$L23||:    
    1533                            .dwpsn  file "../Source/tasks.c",line 1640,column 7,is_stmt,isa 1
    1534 000002d2 4996              LDR       A2, $C$CON13          ; [DPU_3_PIPE] |1640|  ; [ORIG 16-BIT INS]
    1535 000002d4 6808              LDR       A1, [A2, #0]          ; [DPU_3_PIPE] |1640|  ; [ORIG 16-BIT INS]
    1536 000002d6 1E40              SUBS      A1, A1, #1            ; [DPU_3_PIPE] |1640|  ; [ORIG 16-BIT INS]
    1537 000002d8 6008              STR       A1, [A2, #0]          ; [DPU_3_PIPE] |1640|  ; [ORIG 16-BIT INS]
    1538                            .dwpsn  file "../Source/tasks.c",line 1630,column 13,is_stmt,isa 1
    1539 000002da 4894              LDR       A1, $C$CON13          ; [DPU_3_PIPE] |1630|  ; [ORIG 16-BIT INS]
    1540 000002dc 6800              LDR       A1, [A1, #0]          ; [DPU_3_PIPE] |1630|  ; [ORIG 16-BIT INS]
TI ARM Assembler PC v5.1.7 Tue Sep 16 08:38:42 2014

Tools Copyright (c) 1996-2014 Texas Instruments Incorporated
tasks.asm                                                            PAGE   29

    1541 000002de 2800              CMP       A1, #0                ; [DPU_3_PIPE] |1630|  ; [ORIG 16-BIT INS]
    1542 000002e0 D1F1              BNE       ||$C$L22||            ; [DPU_3_PIPE] |1630|  ; [ORIG 16-BIT INS]
    1543                            ; BRANCHCC OCCURS {||$C$L22||}   ; [] |1630| 
    1544                    ;* --------------------------------------------------------------------------*
    1545                            .dwpsn  file "../Source/tasks.c",line 1642,column 5,is_stmt,isa 1
    1546                    ;* --------------------------------------------------------------------------*
    1547 000002e2           ||$C$L24||:    
    1548                            .dwpsn  file "../Source/tasks.c",line 1648,column 5,is_stmt,isa 1
    1549 000002e2 4890              LDR       A1, $C$CON11          ; [DPU_3_PIPE] |1648|  ; [ORIG 16-BIT INS]
    1550 000002e4 6800              LDR       A1, [A1, #0]          ; [DPU_3_PIPE] |1648|  ; [ORIG 16-BIT INS]
    1551 000002e6 2801              CMP       A1, #1                ; [DPU_3_PIPE] |1648|  ; [ORIG 16-BIT INS]
    1552 000002e8 D0FF              BEQ       ||$C$L25||            ; [DPU_3_PIPE] |1648|  ; [ORIG 16-BIT INS]
    1553                            ; BRANCHCC OCCURS {||$C$L25||}   ; [] |1648| 
    1554                    ;* --------------------------------------------------------------------------*
    1555                            .dwpsn  file "../Source/tasks.c",line 1656,column 5,is_stmt,isa 1
    1556                            .dwpsn  file "../Source/tasks.c",line 1662,column 3,is_stmt,isa 1
    1557                    ;* --------------------------------------------------------------------------*
    1558 000002ea           ||$C$L25||:    
    1559                            .dwpsn  file "../Source/tasks.c",line 1668,column 2,is_stmt,isa 1
    1560                    $C$DW$118       .dwtag  DW_TAG_TI_branch
    1561                            .dwattr $C$DW$118, DW_AT_low_pc(0x00)
    1562                            .dwattr $C$DW$118, DW_AT_name("vPortExitCritical")
    1563                            .dwattr $C$DW$118, DW_AT_TI_call
    1564 000002ea FFFEF7FF!         BL        vPortExitCritical     ; [DPU_3_PIPE] |1668|  ; [KEEP 32-BIT INS]
    1565                            ; CALL OCCURS {vPortExitCritical }  ; [] |1668| 
    1566                            .dwpsn  file "../Source/tasks.c",line 1670,column 2,is_stmt,isa 1
    1567 000002ee 9801              LDR       A1, [SP, #4]          ; [DPU_3_PIPE] |1670|  ; [ORIG 16-BIT INS]
    1568                            .dwpsn  file "../Source/tasks.c",line 1671,column 1,is_stmt,isa 1
    1569                    $C$DW$119       .dwtag  DW_TAG_TI_branch
    1570                            .dwattr $C$DW$119, DW_AT_low_pc(0x00)
    1571                            .dwattr $C$DW$119, DW_AT_TI_return
    1572 000002f0 BD0E              POP       {A2, A3, A4, PC}      ; [DPU_3_PIPE]  ; [ORIG 16-BIT INS]
    1573                            .dwcfi  cfa_offset, 0
    1574                            ; BRANCH OCCURS                  ; [] 
    1575                    ;******************************************************************************
    1576                    ;* CONSTANT TABLE                                                             *
    1577                    ;******************************************************************************
    1578 000002f2                   .sect   ".text"
    1579                            .align  4
    1580 000002f2 000046C0! ||$C$CON1||:    .bits   uxCurrentNumberOfTasks,32
         000002f6 00000000 
    1581                            .dwattr $C$DW$110, DW_AT_TI_end_file("../Source/tasks.c")
    1582                            .dwattr $C$DW$110, DW_AT_TI_end_line(0x687)
    1583                            .dwattr $C$DW$110, DW_AT_TI_end_column(0x01)
    1584                            .dwendentry
    1585                            .dwendtag $C$DW$110
    1586                    
    1587                    ;******************************************************************************
    1588                    ;* CONSTANT TABLE                                                             *
    1589                    ;******************************************************************************
    1590 000002f8                   .sect   ".text"
    1591                            .align  4
    1592 000002f6 00000000! ||$C$CON2||:    .bits   pxCurrentTCB,32
         000002fa 00000000 
    1593 000002fc                   .sect   ".text"
TI ARM Assembler PC v5.1.7 Tue Sep 16 08:38:42 2014

Tools Copyright (c) 1996-2014 Texas Instruments Incorporated
tasks.asm                                                            PAGE   30

    1594                            .clink
    1595                            .thumbfunc xTaskGetTickCount
    1596 000002fc                   .thumb
    1597                            .global xTaskGetTickCount
    1598                    
    1599                    $C$DW$120       .dwtag  DW_TAG_subprogram, DW_AT_name("xTaskGetTickCount")
    1600                            .dwattr $C$DW$120, DW_AT_low_pc(xTaskGetTickCount)
    1601                            .dwattr $C$DW$120, DW_AT_high_pc(0x00)
    1602                            .dwattr $C$DW$120, DW_AT_TI_symbol_name("xTaskGetTickCount")
    1603                            .dwattr $C$DW$120, DW_AT_external
    1604                            .dwattr $C$DW$120, DW_AT_type(*$C$DW$T$36)
    1605                            .dwattr $C$DW$120, DW_AT_TI_begin_file("../Source/tasks.c")
    1606                            .dwattr $C$DW$120, DW_AT_TI_begin_line(0x68a)
    1607                            .dwattr $C$DW$120, DW_AT_TI_begin_column(0x0c)
    1608                            .dwattr $C$DW$120, DW_AT_decl_file("../Source/tasks.c")
    1609                            .dwattr $C$DW$120, DW_AT_decl_line(0x68a)
    1610                            .dwattr $C$DW$120, DW_AT_decl_column(0x0c)
    1611                            .dwattr $C$DW$120, DW_AT_TI_max_frame_size(0x08)
    1612                            .dwpsn  file "../Source/tasks.c",line 1675,column 1,is_stmt,address xTaskGetTickCount,isa 1
    1613                    
    1614                            .dwfde $C$DW$CIE, xTaskGetTickCount
    1615                    
    1616                    ;*****************************************************************************
    1617                    ;* FUNCTION NAME: xTaskGetTickCount                                          *
    1618                    ;*                                                                           *
    1619                    ;*   Regs Modified     : A1,A2,A3,A4,V9,SP,LR,SR,D0,D0_hi,D1,D1_hi,D2,D2_hi, *
    1620                    ;*                           D3,D3_hi,D4,D4_hi,D5,D5_hi,D6,D6_hi,D7,D7_hi,   *
    1621                    ;*                           FPEXC,FPSCR                                     *
    1622                    ;*   Regs Used         : A1,A2,A3,A4,V9,SP,LR,SR,D0,D0_hi,D1,D1_hi,D2,D2_hi, *
    1623                    ;*                           D3,D3_hi,D4,D4_hi,D5,D5_hi,D6,D6_hi,D7,D7_hi,   *
    1624                    ;*                           FPEXC,FPSCR                                     *
    1625                    ;*   Local Frame Size  : 0 Args + 4 Auto + 4 Save = 8 byte                   *
    1626                    ;*****************************************************************************
    1627 000002fc           xTaskGetTickCount:
    1628                    ;* --------------------------------------------------------------------------*
    1629                            .dwcfi  cfa_offset, 0
    1630 000002fc B508              PUSH      {A4, LR}              ; [DPU_3_PIPE]  ; [ORIG 16-BIT INS]
    1631                            .dwcfi  cfa_offset, 8
    1632                            .dwcfi  save_reg_to_mem, 14, -4
    1633                            .dwcfi  save_reg_to_mem, 3, -8
    1634                    $C$DW$121       .dwtag  DW_TAG_variable, DW_AT_name("xTicks")
    1635                            .dwattr $C$DW$121, DW_AT_TI_symbol_name("xTicks")
    1636                            .dwattr $C$DW$121, DW_AT_type(*$C$DW$T$36)
    1637                            .dwattr $C$DW$121, DW_AT_location[DW_OP_breg13 0]
    1638                            .dwpsn  file "../Source/tasks.c",line 1679,column 2,is_stmt,isa 1
    1639                    $C$DW$122       .dwtag  DW_TAG_TI_branch
    1640                            .dwattr $C$DW$122, DW_AT_low_pc(0x00)
    1641                            .dwattr $C$DW$122, DW_AT_name("vPortEnterCritical")
    1642                            .dwattr $C$DW$122, DW_AT_TI_call
    1643 000002fe FFFEF7FF!         BL        vPortEnterCritical    ; [DPU_3_PIPE] |1679|  ; [KEEP 32-BIT INS]
    1644                            ; CALL OCCURS {vPortEnterCritical }  ; [] |1679| 
    1645                            .dwpsn  file "../Source/tasks.c",line 1681,column 3,is_stmt,isa 1
    1646 00000302 4823              LDR       A1, $C$CON7           ; [DPU_3_PIPE] |1681|  ; [ORIG 16-BIT INS]
    1647 00000304 6800              LDR       A1, [A1, #0]          ; [DPU_3_PIPE] |1681|  ; [ORIG 16-BIT INS]
    1648 00000306 9000              STR       A1, [SP, #0]          ; [DPU_3_PIPE] |1681|  ; [ORIG 16-BIT INS]
TI ARM Assembler PC v5.1.7 Tue Sep 16 08:38:42 2014

Tools Copyright (c) 1996-2014 Texas Instruments Incorporated
tasks.asm                                                            PAGE   31

    1649                            .dwpsn  file "../Source/tasks.c",line 1683,column 2,is_stmt,isa 1
    1650                    $C$DW$123       .dwtag  DW_TAG_TI_branch
    1651                            .dwattr $C$DW$123, DW_AT_low_pc(0x00)
    1652                            .dwattr $C$DW$123, DW_AT_name("vPortExitCritical")
    1653                            .dwattr $C$DW$123, DW_AT_TI_call
    1654 00000308 FFFEF7FF!         BL        vPortExitCritical     ; [DPU_3_PIPE] |1683|  ; [KEEP 32-BIT INS]
    1655                            ; CALL OCCURS {vPortExitCritical }  ; [] |1683| 
    1656                            .dwpsn  file "../Source/tasks.c",line 1685,column 2,is_stmt,isa 1
    1657 0000030c 9800              LDR       A1, [SP, #0]          ; [DPU_3_PIPE] |1685|  ; [ORIG 16-BIT INS]
    1658                            .dwpsn  file "../Source/tasks.c",line 1686,column 1,is_stmt,isa 1
    1659                    $C$DW$124       .dwtag  DW_TAG_TI_branch
    1660                            .dwattr $C$DW$124, DW_AT_low_pc(0x00)
    1661                            .dwattr $C$DW$124, DW_AT_TI_return
    1662 0000030e BD08              POP       {A4, PC}              ; [DPU_3_PIPE]  ; [ORIG 16-BIT INS]
    1663                            .dwcfi  cfa_offset, 0
    1664                            ; BRANCH OCCURS                  ; [] 
    1665                            .dwattr $C$DW$120, DW_AT_TI_end_file("../Source/tasks.c")
    1666                            .dwattr $C$DW$120, DW_AT_TI_end_line(0x696)
    1667                            .dwattr $C$DW$120, DW_AT_TI_end_column(0x01)
    1668                            .dwendentry
    1669                            .dwendtag $C$DW$120
    1670                    
    1671                    ;******************************************************************************
    1672                    ;* CONSTANT TABLE                                                             *
    1673                    ;******************************************************************************
    1674 00000310                   .sect   ".text"
    1675                            .align  4
    1676 00000310 00000000! ||$C$CON3||:    .bits   xSchedulerRunning,32
    1677 00000314                   .sect   ".text"
    1678                            .clink
    1679                            .thumbfunc xTaskGetTickCountFromISR
    1680 00000314                   .thumb
    1681                            .global xTaskGetTickCountFromISR
    1682                    
    1683                    $C$DW$125       .dwtag  DW_TAG_subprogram, DW_AT_name("xTaskGetTickCountFromISR")
    1684                            .dwattr $C$DW$125, DW_AT_low_pc(xTaskGetTickCountFromISR)
    1685                            .dwattr $C$DW$125, DW_AT_high_pc(0x00)
    1686                            .dwattr $C$DW$125, DW_AT_TI_symbol_name("xTaskGetTickCountFromISR")
    1687                            .dwattr $C$DW$125, DW_AT_external
    1688                            .dwattr $C$DW$125, DW_AT_type(*$C$DW$T$36)
    1689                            .dwattr $C$DW$125, DW_AT_TI_begin_file("../Source/tasks.c")
    1690                            .dwattr $C$DW$125, DW_AT_TI_begin_line(0x699)
    1691                            .dwattr $C$DW$125, DW_AT_TI_begin_column(0x0c)
    1692                            .dwattr $C$DW$125, DW_AT_decl_file("../Source/tasks.c")
    1693                            .dwattr $C$DW$125, DW_AT_decl_line(0x699)
    1694                            .dwattr $C$DW$125, DW_AT_decl_column(0x0c)
    1695                            .dwattr $C$DW$125, DW_AT_TI_max_frame_size(0x10)
    1696                            .dwpsn  file "../Source/tasks.c",line 1690,column 1,is_stmt,address xTaskGetTickCountFromISR,i
    1697                    
    1698                            .dwfde $C$DW$CIE, xTaskGetTickCountFromISR
    1699                    
    1700                    ;*****************************************************************************
    1701                    ;* FUNCTION NAME: xTaskGetTickCountFromISR                                   *
    1702                    ;*                                                                           *
    1703                    ;*   Regs Modified     : A1,A2,A3,A4,V9,SP,LR,SR,D0,D0_hi,D1,D1_hi,D2,D2_hi, *
TI ARM Assembler PC v5.1.7 Tue Sep 16 08:38:42 2014

Tools Copyright (c) 1996-2014 Texas Instruments Incorporated
tasks.asm                                                            PAGE   32

    1704                    ;*                           D3,D3_hi,D4,D4_hi,D5,D5_hi,D6,D6_hi,D7,D7_hi,   *
    1705                    ;*                           FPEXC,FPSCR                                     *
    1706                    ;*   Regs Used         : A1,A2,A3,A4,V9,SP,LR,SR,D0,D0_hi,D1,D1_hi,D2,D2_hi, *
    1707                    ;*                           D3,D3_hi,D4,D4_hi,D5,D5_hi,D6,D6_hi,D7,D7_hi,   *
    1708                    ;*                           FPEXC,FPSCR                                     *
    1709                    ;*   Local Frame Size  : 0 Args + 8 Auto + 4 Save = 12 byte                  *
    1710                    ;*****************************************************************************
    1711 00000314           xTaskGetTickCountFromISR:
    1712                    ;* --------------------------------------------------------------------------*
    1713                            .dwcfi  cfa_offset, 0
    1714 00000314 B50E              PUSH      {A2, A3, A4, LR}      ; [DPU_3_PIPE]  ; [ORIG 16-BIT INS]
    1715                            .dwcfi  cfa_offset, 16
    1716                            .dwcfi  save_reg_to_mem, 14, -4
    1717                            .dwcfi  save_reg_to_mem, 3, -8
    1718                            .dwcfi  save_reg_to_mem, 2, -12
    1719                            .dwcfi  save_reg_to_mem, 1, -16
    1720                    $C$DW$126       .dwtag  DW_TAG_variable, DW_AT_name("xReturn")
    1721                            .dwattr $C$DW$126, DW_AT_TI_symbol_name("xReturn")
    1722                            .dwattr $C$DW$126, DW_AT_type(*$C$DW$T$36)
    1723                            .dwattr $C$DW$126, DW_AT_location[DW_OP_breg13 0]
    1724                    $C$DW$127       .dwtag  DW_TAG_variable, DW_AT_name("uxSavedInterruptStatus")
    1725                            .dwattr $C$DW$127, DW_AT_TI_symbol_name("uxSavedInterruptStatus")
    1726                            .dwattr $C$DW$127, DW_AT_type(*$C$DW$T$28)
    1727                            .dwattr $C$DW$127, DW_AT_location[DW_OP_breg13 4]
    1728                            .dwpsn  file "../Source/tasks.c",line 1710,column 2,is_stmt,isa 1
    1729                    $C$DW$128       .dwtag  DW_TAG_TI_branch
    1730                            .dwattr $C$DW$128, DW_AT_low_pc(0x00)
    1731                            .dwattr $C$DW$128, DW_AT_name("ulPortSetInterruptMask")
    1732                            .dwattr $C$DW$128, DW_AT_TI_call
    1733 00000316 FFFEF7FF!         BL        ulPortSetInterruptMask ; [DPU_3_PIPE] |1710|  ; [KEEP 32-BIT INS]
    1734                            ; CALL OCCURS {ulPortSetInterruptMask }  ; [] |1710| 
    1735 0000031a 9001              STR       A1, [SP, #4]          ; [DPU_3_PIPE] |1710|  ; [ORIG 16-BIT INS]
    1736                            .dwpsn  file "../Source/tasks.c",line 1712,column 3,is_stmt,isa 1
    1737 0000031c 481C              LDR       A1, $C$CON7           ; [DPU_3_PIPE] |1712|  ; [ORIG 16-BIT INS]
    1738 0000031e 6800              LDR       A1, [A1, #0]          ; [DPU_3_PIPE] |1712|  ; [ORIG 16-BIT INS]
    1739 00000320 9000              STR       A1, [SP, #0]          ; [DPU_3_PIPE] |1712|  ; [ORIG 16-BIT INS]
    1740                            .dwpsn  file "../Source/tasks.c",line 1714,column 2,is_stmt,isa 1
    1741 00000322 9801              LDR       A1, [SP, #4]          ; [DPU_3_PIPE] |1714|  ; [ORIG 16-BIT INS]
    1742                    $C$DW$129       .dwtag  DW_TAG_TI_branch
    1743                            .dwattr $C$DW$129, DW_AT_low_pc(0x00)
    1744                            .dwattr $C$DW$129, DW_AT_name("vPortClearInterruptMask")
    1745                            .dwattr $C$DW$129, DW_AT_TI_call
    1746 00000324 FFFEF7FF!         BL        vPortClearInterruptMask ; [DPU_3_PIPE] |1714|  ; [KEEP 32-BIT INS]
    1747                            ; CALL OCCURS {vPortClearInterruptMask }  ; [] |1714| 
    1748                            .dwpsn  file "../Source/tasks.c",line 1716,column 2,is_stmt,isa 1
    1749 00000328 9800              LDR       A1, [SP, #0]          ; [DPU_3_PIPE] |1716|  ; [ORIG 16-BIT INS]
    1750                            .dwpsn  file "../Source/tasks.c",line 1717,column 1,is_stmt,isa 1
    1751                    $C$DW$130       .dwtag  DW_TAG_TI_branch
    1752                            .dwattr $C$DW$130, DW_AT_low_pc(0x00)
    1753                            .dwattr $C$DW$130, DW_AT_TI_return
    1754 0000032a BD0E              POP       {A2, A3, A4, PC}      ; [DPU_3_PIPE]  ; [ORIG 16-BIT INS]
    1755                            .dwcfi  cfa_offset, 0
    1756                            ; BRANCH OCCURS                  ; [] 
    1757                            .dwattr $C$DW$125, DW_AT_TI_end_file("../Source/tasks.c")
    1758                            .dwattr $C$DW$125, DW_AT_TI_end_line(0x6b5)
TI ARM Assembler PC v5.1.7 Tue Sep 16 08:38:42 2014

Tools Copyright (c) 1996-2014 Texas Instruments Incorporated
tasks.asm                                                            PAGE   33

    1759                            .dwattr $C$DW$125, DW_AT_TI_end_column(0x01)
    1760                            .dwendentry
    1761                            .dwendtag $C$DW$125
    1762                    
    1763 0000032c                   .sect   ".text"
    1764                            .clink
    1765                            .thumbfunc uxTaskGetNumberOfTasks
    1766 0000032c                   .thumb
    1767                            .global uxTaskGetNumberOfTasks
    1768                    
    1769                    $C$DW$131       .dwtag  DW_TAG_subprogram, DW_AT_name("uxTaskGetNumberOfTasks")
    1770                            .dwattr $C$DW$131, DW_AT_low_pc(uxTaskGetNumberOfTasks)
    1771                            .dwattr $C$DW$131, DW_AT_high_pc(0x00)
    1772                            .dwattr $C$DW$131, DW_AT_TI_symbol_name("uxTaskGetNumberOfTasks")
    1773                            .dwattr $C$DW$131, DW_AT_external
    1774                            .dwattr $C$DW$131, DW_AT_type(*$C$DW$T$28)
    1775                            .dwattr $C$DW$131, DW_AT_TI_begin_file("../Source/tasks.c")
    1776                            .dwattr $C$DW$131, DW_AT_TI_begin_line(0x6b8)
    1777                            .dwattr $C$DW$131, DW_AT_TI_begin_column(0x0d)
    1778                            .dwattr $C$DW$131, DW_AT_decl_file("../Source/tasks.c")
    1779                            .dwattr $C$DW$131, DW_AT_decl_line(0x6b8)
    1780                            .dwattr $C$DW$131, DW_AT_decl_column(0x0d)
    1781                            .dwattr $C$DW$131, DW_AT_TI_max_frame_size(0x00)
    1782                            .dwpsn  file "../Source/tasks.c",line 1721,column 1,is_stmt,address uxTaskGetNumberOfTasks,isa
    1783                    
    1784                            .dwfde $C$DW$CIE, uxTaskGetNumberOfTasks
    1785                    
    1786                    ;*****************************************************************************
    1787                    ;* FUNCTION NAME: uxTaskGetNumberOfTasks                                     *
    1788                    ;*                                                                           *
    1789                    ;*   Regs Modified     : A1                                                  *
    1790                    ;*   Regs Used         : A1,LR                                               *
    1791                    ;*   Local Frame Size  : 0 Args + 0 Auto + 0 Save = 0 byte                   *
    1792                    ;*****************************************************************************
    1793 0000032c           uxTaskGetNumberOfTasks:
    1794                    ;* --------------------------------------------------------------------------*
    1795                            .dwcfi  cfa_offset, 0
    1796                            .dwpsn  file "../Source/tasks.c",line 1724,column 2,is_stmt,isa 1
    1797 0000032c 489F              LDR       A1, $C$CON14          ; [DPU_3_PIPE] |1724|  ; [ORIG 16-BIT INS]
    1798 0000032e 6800              LDR       A1, [A1, #0]          ; [DPU_3_PIPE] |1724|  ; [ORIG 16-BIT INS]
    1799                            .dwpsn  file "../Source/tasks.c",line 1725,column 1,is_stmt,isa 1
    1800                    $C$DW$132       .dwtag  DW_TAG_TI_branch
    1801                            .dwattr $C$DW$132, DW_AT_low_pc(0x00)
    1802                            .dwattr $C$DW$132, DW_AT_TI_return
    1803 00000330 4770              BX        LR                    ; [DPU_3_PIPE]  ; [ORIG 16-BIT INS]
    1804                            ; BRANCH OCCURS                  ; [] 
    1805                            .dwattr $C$DW$131, DW_AT_TI_end_file("../Source/tasks.c")
    1806                            .dwattr $C$DW$131, DW_AT_TI_end_line(0x6bd)
    1807                            .dwattr $C$DW$131, DW_AT_TI_end_column(0x01)
    1808                            .dwendentry
    1809                            .dwendtag $C$DW$131
    1810                    
    1811                    ;******************************************************************************
    1812                    ;* CONSTANT TABLE                                                             *
    1813                    ;******************************************************************************
TI ARM Assembler PC v5.1.7 Tue Sep 16 08:38:42 2014

Tools Copyright (c) 1996-2014 Texas Instruments Incorporated
tasks.asm                                                            PAGE   34

    1814 00000332                   .sect   ".text"
    1815                            .align  4
    1816 00000332 000046C0! ||$C$CON4||:    .bits   uxTaskNumber,32
         00000336 00000000 
    1817                            .align  4
    1818 00000336 00000000! ||$C$CON5||:    .bits   uxTopReadyPriority,32
         0000033a 00000000 
    1819                            .align  4
    1820 0000033a 00000000! ||$C$CON6||:    .bits   pxReadyTasksLists,32
         0000033e 00000000 
    1821 00000340                   .sect   ".text"
    1822                            .clink
    1823                            .thumbfunc xTaskIncrementTick
    1824 00000340                   .thumb
    1825                            .global xTaskIncrementTick
    1826                    
    1827                    $C$DW$133       .dwtag  DW_TAG_subprogram, DW_AT_name("xTaskIncrementTick")
    1828                            .dwattr $C$DW$133, DW_AT_low_pc(xTaskIncrementTick)
    1829                            .dwattr $C$DW$133, DW_AT_high_pc(0x00)
    1830                            .dwattr $C$DW$133, DW_AT_TI_symbol_name("xTaskIncrementTick")
    1831                            .dwattr $C$DW$133, DW_AT_external
    1832                            .dwattr $C$DW$133, DW_AT_type(*$C$DW$T$56)
    1833                            .dwattr $C$DW$133, DW_AT_TI_begin_file("../Source/tasks.c")
    1834                            .dwattr $C$DW$133, DW_AT_TI_begin_line(0x739)
    1835                            .dwattr $C$DW$133, DW_AT_TI_begin_column(0x0c)
    1836                            .dwattr $C$DW$133, DW_AT_decl_file("../Source/tasks.c")
    1837                            .dwattr $C$DW$133, DW_AT_decl_line(0x739)
    1838                            .dwattr $C$DW$133, DW_AT_decl_column(0x0c)
    1839                            .dwattr $C$DW$133, DW_AT_TI_max_frame_size(0x20)
    1840                            .dwpsn  file "../Source/tasks.c",line 1850,column 1,is_stmt,address xTaskIncrementTick,isa 1
    1841                    
    1842                            .dwfde $C$DW$CIE, xTaskIncrementTick
    1843                    
    1844                    ;*****************************************************************************
    1845                    ;* FUNCTION NAME: xTaskIncrementTick                                         *
    1846                    ;*                                                                           *
    1847                    ;*   Regs Modified     : A1,A2,A3,A4,V1,V9,SP,LR,SR,D0,D0_hi,D1,D1_hi,D2,    *
    1848                    ;*                           D2_hi,D3,D3_hi,D4,D4_hi,D5,D5_hi,D6,D6_hi,D7,   *
    1849                    ;*                           D7_hi,FPEXC,FPSCR                               *
    1850                    ;*   Regs Used         : A1,A2,A3,A4,V1,V9,SP,LR,SR,D0,D0_hi,D1,D1_hi,D2,    *
    1851                    ;*                           D2_hi,D3,D3_hi,D4,D4_hi,D5,D5_hi,D6,D6_hi,D7,   *
    1852                    ;*                           D7_hi,FPEXC,FPSCR                               *
    1853                    ;*   Local Frame Size  : 0 Args + 20 Auto + 8 Save = 28 byte                 *
    1854                    ;*****************************************************************************
    1855 00000340           xTaskIncrementTick:
    1856                    ;* --------------------------------------------------------------------------*
    1857                            .dwcfi  cfa_offset, 0
    1858 00000340 B510              PUSH      {V1, LR}              ; [DPU_3_PIPE]  ; [ORIG 16-BIT INS]
    1859                            .dwcfi  cfa_offset, 8
    1860                            .dwcfi  save_reg_to_mem, 14, -4
    1861                            .dwcfi  save_reg_to_mem, 4, -8
    1862 00000342 0D18F1AD          SUB       SP, SP, #24           ; [DPU_3_PIPE]  ; [KEEP 32-BIT INS]
    1863                            .dwcfi  cfa_offset, 32
    1864                    $C$DW$134       .dwtag  DW_TAG_variable, DW_AT_name("pxTCB")
    1865                            .dwattr $C$DW$134, DW_AT_TI_symbol_name("pxTCB")
TI ARM Assembler PC v5.1.7 Tue Sep 16 08:38:42 2014

Tools Copyright (c) 1996-2014 Texas Instruments Incorporated
tasks.asm                                                            PAGE   35

    1866                            .dwattr $C$DW$134, DW_AT_type(*$C$DW$T$100)
    1867                            .dwattr $C$DW$134, DW_AT_location[DW_OP_breg13 0]
    1868                    $C$DW$135       .dwtag  DW_TAG_variable, DW_AT_name("xItemValue")
    1869                            .dwattr $C$DW$135, DW_AT_TI_symbol_name("xItemValue")
    1870                            .dwattr $C$DW$135, DW_AT_type(*$C$DW$T$36)
    1871                            .dwattr $C$DW$135, DW_AT_location[DW_OP_breg13 4]
    1872                    $C$DW$136       .dwtag  DW_TAG_variable, DW_AT_name("xSwitchRequired")
    1873                            .dwattr $C$DW$136, DW_AT_TI_symbol_name("xSwitchRequired")
    1874                            .dwattr $C$DW$136, DW_AT_type(*$C$DW$T$56)
    1875                            .dwattr $C$DW$136, DW_AT_location[DW_OP_breg13 8]
    1876                            .dwpsn  file "../Source/tasks.c",line 1853,column 28,is_stmt,isa 1
    1877 00000346 2000              MOVS      A1, #0                ; [DPU_3_PIPE] |1853|  ; [ORIG 16-BIT INS]
    1878 00000348 9002              STR       A1, [SP, #8]          ; [DPU_3_PIPE] |1853|  ; [ORIG 16-BIT INS]
    1879                            .dwpsn  file "../Source/tasks.c",line 1859,column 2,is_stmt,isa 1
    1880 0000034a 4855              LDR       A1, $C$CON9           ; [DPU_3_PIPE] |1859|  ; [ORIG 16-BIT INS]
    1881 0000034c 6800              LDR       A1, [A1, #0]          ; [DPU_3_PIPE] |1859|  ; [ORIG 16-BIT INS]
    1882 0000034e 2800              CMP       A1, #0                ; [DPU_3_PIPE] |1859|  ; [ORIG 16-BIT INS]
    1883 00000350 D15D              BNE       ||$C$L33||            ; [DPU_3_PIPE] |1859|  ; [ORIG 16-BIT INS]
    1884                            ; BRANCHCC OCCURS {||$C$L33||}   ; [] |1859| 
    1885                    ;* --------------------------------------------------------------------------*
    1886                            .dwpsn  file "../Source/tasks.c",line 1863,column 3,is_stmt,isa 1
    1887 00000352 490F              LDR       A2, $C$CON7           ; [DPU_3_PIPE] |1863|  ; [ORIG 16-BIT INS]
    1888 00000354 6808              LDR       A1, [A2, #0]          ; [DPU_3_PIPE] |1863|  ; [ORIG 16-BIT INS]
    1889 00000356 1C40              ADDS      A1, A1, #1            ; [DPU_3_PIPE] |1863|  ; [ORIG 16-BIT INS]
    1890 00000358 6008              STR       A1, [A2, #0]          ; [DPU_3_PIPE] |1863|  ; [ORIG 16-BIT INS]
    1891                    
    1892                    $C$DW$137       .dwtag  DW_TAG_lexical_block, DW_AT_low_pc(0x00), DW_AT_high_pc(0x00)
    1893                    $C$DW$138       .dwtag  DW_TAG_variable, DW_AT_name("xConstTickCount")
    1894                            .dwattr $C$DW$138, DW_AT_TI_symbol_name("xConstTickCount")
    1895                            .dwattr $C$DW$138, DW_AT_type(*$C$DW$T$87)
    1896                            .dwattr $C$DW$138, DW_AT_location[DW_OP_breg13 12]
    1897                            .dwpsn  file "../Source/tasks.c",line 1868,column 37,is_stmt,isa 1
    1898 0000035a 480D              LDR       A1, $C$CON7           ; [DPU_3_PIPE] |1868|  ; [ORIG 16-BIT INS]
    1899 0000035c 6800              LDR       A1, [A1, #0]          ; [DPU_3_PIPE] |1868|  ; [ORIG 16-BIT INS]
    1900 0000035e 9003              STR       A1, [SP, #12]         ; [DPU_3_PIPE] |1868|  ; [ORIG 16-BIT INS]
    1901                            .dwpsn  file "../Source/tasks.c",line 1870,column 4,is_stmt,isa 1
    1902 00000360 9803              LDR       A1, [SP, #12]         ; [DPU_3_PIPE] |1870|  ; [ORIG 16-BIT INS]
    1903 00000362 B978              CBNZ      A1, ||$C$L26||        ; []  ; [ORIG 16-BIT INS]
    1904                            ; BRANCHCC OCCURS {||$C$L26||}   ; [] |1870| 
    1905                    ;* --------------------------------------------------------------------------*
    1906                    
    1907                    $C$DW$139       .dwtag  DW_TAG_lexical_block, DW_AT_low_pc(0x00), DW_AT_high_pc(0x00)
    1908                    $C$DW$140       .dwtag  DW_TAG_variable, DW_AT_name("pxTemp")
    1909                            .dwattr $C$DW$140, DW_AT_TI_symbol_name("pxTemp")
    1910                            .dwattr $C$DW$140, DW_AT_type(*$C$DW$T$76)
    1911                            .dwattr $C$DW$140, DW_AT_location[DW_OP_breg13 16]
    1912                            .dwpsn  file "../Source/tasks.c",line 1872,column 5,is_stmt,isa 1
    1913 00000364 4892              LDR       A1, $C$CON15          ; [DPU_3_PIPE] |1872|  ; [ORIG 16-BIT INS]
    1914 00000366 4993              LDR       A2, $C$CON16          ; [DPU_3_PIPE] |1872|  ; [ORIG 16-BIT INS]
    1915 00000368 6800              LDR       A1, [A1, #0]          ; [DPU_3_PIPE] |1872|  ; [ORIG 16-BIT INS]
    1916 0000036a 4C91              LDR       V1, $C$CON15          ; [DPU_3_PIPE] |1872|  ; [ORIG 16-BIT INS]
    1917 0000036c 4B91              LDR       A4, $C$CON16          ; [DPU_3_PIPE] |1872|  ; [ORIG 16-BIT INS]
    1918 0000036e 680A              LDR       A3, [A2, #0]          ; [DPU_3_PIPE] |1872|  ; [ORIG 16-BIT INS]
    1919 00000370 9004              STR       A1, [SP, #16]         ; [DPU_3_PIPE] |1872|  ; [ORIG 16-BIT INS]
    1920 00000372 9804              LDR       A1, [SP, #16]         ; [DPU_3_PIPE] |1872|  ; [ORIG 16-BIT INS]
TI ARM Assembler PC v5.1.7 Tue Sep 16 08:38:42 2014

Tools Copyright (c) 1996-2014 Texas Instruments Incorporated
tasks.asm                                                            PAGE   36

    1921 00000374 49AE              LDR       A2, $C$CON17          ; [DPU_3_PIPE] |1872|  ; [ORIG 16-BIT INS]
    1922 00000376 6022              STR       A3, [V1, #0]          ; [DPU_3_PIPE] |1872|  ; [ORIG 16-BIT INS]
    1923 00000378 6018              STR       A1, [A4, #0]          ; [DPU_3_PIPE] |1872|  ; [ORIG 16-BIT INS]
    1924 0000037a 6808              LDR       A1, [A2, #0]          ; [DPU_3_PIPE] |1872|  ; [ORIG 16-BIT INS]
    1925 0000037c 1C40              ADDS      A1, A1, #1            ; [DPU_3_PIPE] |1872|  ; [ORIG 16-BIT INS]
    1926 0000037e 6008              STR       A1, [A2, #0]          ; [DPU_3_PIPE] |1872|  ; [ORIG 16-BIT INS]
    1927                    $C$DW$141       .dwtag  DW_TAG_TI_branch
    1928                            .dwattr $C$DW$141, DW_AT_low_pc(0x00)
    1929                            .dwattr $C$DW$141, DW_AT_name("prvResetNextTaskUnblockTime")
    1930                            .dwattr $C$DW$141, DW_AT_TI_call
    1931 00000380 FA62F000          BL        prvResetNextTaskUnblockTime ; [DPU_3_PIPE] |1872|  ; [KEEP 32-BIT INS]
    1932                            ; CALL OCCURS {prvResetNextTaskUnblockTime }  ; [] |1872| 
    1933                            .dwendtag $C$DW$139
    1934                    
    1935                            .dwpsn  file "../Source/tasks.c",line 1873,column 4,is_stmt,isa 1
    1936                    ;* --------------------------------------------------------------------------*
    1937 00000384           ||$C$L26||:    
    1938                            .dwpsn  file "../Source/tasks.c",line 1883,column 4,is_stmt,isa 1
    1939 00000384 48AB              LDR       A1, $C$CON18          ; [DPU_3_PIPE] |1883|  ; [ORIG 16-BIT INS]
    1940 00000386 9903              LDR       A2, [SP, #12]         ; [DPU_3_PIPE] |1883|  ; [ORIG 16-BIT INS]
    1941 00000388 6800              LDR       A1, [A1, #0]          ; [DPU_3_PIPE] |1883|  ; [ORIG 16-BIT INS]
    1942 0000038a 4288              CMP       A1, A2                ; [DPU_3_PIPE] |1883|  ; [ORIG 16-BIT INS]
    1943 0000038c D843              BHI       ||$C$L34||            ; [DPU_3_PIPE] |1883|  ; [ORIG 16-BIT INS]
    1944                            ; BRANCHCC OCCURS {||$C$L34||}   ; [] |1883| 
    1945                    ;* --------------------------------------------------------------------------*
    1946 0000038e E001              B         ||$C$L27||            ; []  ; [ORIG 16-BIT INS]
    1947                            ; BRANCH OCCURS {||$C$L27||}     ; [] 
    1948                    ;******************************************************************************
    1949                    ;* CONSTANT TABLE                                                             *
    1950                    ;******************************************************************************
    1951 00000390                   .sect   ".text"
    1952                            .align  4
    1953 00000390 00000000! ||$C$CON7||:    .bits   xTickCount,32
    1954                    ;* --------------------------------------------------------------------------*
    1955                    ;*   BEGIN LOOP ||$C$L27||
    1956                    ;*
    1957                    ;*   Loop source line                : 1885
    1958                    ;*   Loop closing brace source line  : 1958
    1959                    ;*   Known Minimum Trip Count        : 1
    1960                    ;*   Known Maximum Trip Count        : 4294967295
    1961                    ;*   Known Max Trip Count Factor     : 1
    1962                    ;* --------------------------------------------------------------------------*
    1963 00000394           ||$C$L27||:    
    1964                            .dwpsn  file "../Source/tasks.c",line 1887,column 6,is_stmt,isa 1
    1965 00000394 4886              LDR       A1, $C$CON15          ; [DPU_3_PIPE] |1887|  ; [ORIG 16-BIT INS]
    1966 00000396 6800              LDR       A1, [A1, #0]          ; [DPU_3_PIPE] |1887|  ; [ORIG 16-BIT INS]
    1967 00000398 6801              LDR       A2, [A1, #0]          ; [DPU_3_PIPE] |1887|  ; [ORIG 16-BIT INS]
    1968 0000039a 2000              MOVS      A1, #0                ; [DPU_3_PIPE] |1887|  ; [ORIG 16-BIT INS]
    1969 0000039c B901              CBNZ      A2, ||$C$L28||        ; []  ; [ORIG 16-BIT INS]
    1970                            ; BRANCHCC OCCURS {||$C$L28||}   ; [] |1887| 
    1971                    ;* --------------------------------------------------------------------------*
    1972 0000039e 2001              MOVS      A1, #1                ; [DPU_3_PIPE] |1887|  ; [ORIG 16-BIT INS]
    1973                    ;* --------------------------------------------------------------------------*
    1974 000003a0           ||$C$L28||:    
    1975 000003a0 B120              CBZ       A1, ||$C$L29||        ; []  ; [ORIG 16-BIT INS]
TI ARM Assembler PC v5.1.7 Tue Sep 16 08:38:42 2014

Tools Copyright (c) 1996-2014 Texas Instruments Incorporated
tasks.asm                                                            PAGE   37

    1976                            ; BRANCHCC OCCURS {||$C$L29||}   ; [] |1887| 
    1977                    ;* --------------------------------------------------------------------------*
    1978                            .dwpsn  file "../Source/tasks.c",line 1894,column 7,is_stmt,isa 1
    1979 000003a2 49A4              LDR       A2, $C$CON18          ; [DPU_3_PIPE] |1894|  ; [ORIG 16-BIT INS]
    1980 000003a4 30FFF04F          MOV       A1, #-1               ; [DPU_3_PIPE] |1894|  ; [KEEP 32-BIT INS]
    1981 000003a8 6008              STR       A1, [A2, #0]          ; [DPU_3_PIPE] |1894|  ; [ORIG 16-BIT INS]
    1982                            .dwpsn  file "../Source/tasks.c",line 1895,column 7,is_stmt,isa 1
    1983 000003aa E034              B         ||$C$L34||            ; [DPU_3_PIPE] |1895|  ; [ORIG 16-BIT INS]
    1984                            ; BRANCH OCCURS {||$C$L34||}     ; [] |1895| 
    1985                    ;* --------------------------------------------------------------------------*
    1986                    ;* --------------------------------------------------------------------------*
    1987 000003ac           ||$C$L29||:    
    1988                            .dwpsn  file "../Source/tasks.c",line 1903,column 7,is_stmt,isa 1
    1989 000003ac 4880              LDR       A1, $C$CON15          ; [DPU_3_PIPE] |1903|  ; [ORIG 16-BIT INS]
    1990 000003ae 6800              LDR       A1, [A1, #0]          ; [DPU_3_PIPE] |1903|  ; [ORIG 16-BIT INS]
    1991 000003b0 68C0              LDR       A1, [A1, #12]         ; [DPU_3_PIPE] |1903|  ; [ORIG 16-BIT INS]
    1992 000003b2 68C0              LDR       A1, [A1, #12]         ; [DPU_3_PIPE] |1903|  ; [ORIG 16-BIT INS]
    1993 000003b4 9000              STR       A1, [SP, #0]          ; [DPU_3_PIPE] |1903|  ; [ORIG 16-BIT INS]
    1994                            .dwpsn  file "../Source/tasks.c",line 1904,column 7,is_stmt,isa 1
    1995 000003b6 9800              LDR       A1, [SP, #0]          ; [DPU_3_PIPE] |1904|  ; [ORIG 16-BIT INS]
    1996 000003b8 6840              LDR       A1, [A1, #4]          ; [DPU_3_PIPE] |1904|  ; [ORIG 16-BIT INS]
    1997 000003ba 9001              STR       A1, [SP, #4]          ; [DPU_3_PIPE] |1904|  ; [ORIG 16-BIT INS]
    1998                            .dwpsn  file "../Source/tasks.c",line 1906,column 7,is_stmt,isa 1
    1999 000003bc 9903              LDR       A2, [SP, #12]         ; [DPU_3_PIPE] |1906|  ; [ORIG 16-BIT INS]
    2000 000003be 9801              LDR       A1, [SP, #4]          ; [DPU_3_PIPE] |1906|  ; [ORIG 16-BIT INS]
    2001 000003c0 4288              CMP       A1, A2                ; [DPU_3_PIPE] |1906|  ; [ORIG 16-BIT INS]
    2002 000003c2 D903              BLS       ||$C$L30||            ; [DPU_3_PIPE] |1906|  ; [ORIG 16-BIT INS]
    2003                            ; BRANCHCC OCCURS {||$C$L30||}   ; [] |1906| 
    2004                    ;* --------------------------------------------------------------------------*
    2005                            .dwpsn  file "../Source/tasks.c",line 1913,column 8,is_stmt,isa 1
    2006 000003c4 9801              LDR       A1, [SP, #4]          ; [DPU_3_PIPE] |1913|  ; [ORIG 16-BIT INS]
    2007 000003c6 499B              LDR       A2, $C$CON18          ; [DPU_3_PIPE] |1913|  ; [ORIG 16-BIT INS]
    2008 000003c8 6008              STR       A1, [A2, #0]          ; [DPU_3_PIPE] |1913|  ; [ORIG 16-BIT INS]
    2009                            .dwpsn  file "../Source/tasks.c",line 1914,column 8,is_stmt,isa 1
    2010 000003ca E024              B         ||$C$L34||            ; [DPU_3_PIPE] |1914|  ; [ORIG 16-BIT INS]
    2011                            ; BRANCH OCCURS {||$C$L34||}     ; [] |1914| 
    2012                    ;* --------------------------------------------------------------------------*
    2013                    ;* --------------------------------------------------------------------------*
    2014 000003cc           ||$C$L30||:    
    2015                            .dwpsn  file "../Source/tasks.c",line 1922,column 7,is_stmt,isa 1
    2016 000003cc 9800              LDR       A1, [SP, #0]          ; [DPU_3_PIPE] |1922|  ; [ORIG 16-BIT INS]
    2017 000003ce 1D00              ADDS      A1, A1, #4            ; [DPU_3_PIPE] |1922|  ; [ORIG 16-BIT INS]
    2018                    $C$DW$142       .dwtag  DW_TAG_TI_branch
    2019                            .dwattr $C$DW$142, DW_AT_low_pc(0x00)
    2020                            .dwattr $C$DW$142, DW_AT_name("uxListRemove")
    2021                            .dwattr $C$DW$142, DW_AT_TI_call
    2022 000003d0 FFFEF7FF!         BL        uxListRemove          ; [DPU_3_PIPE] |1922|  ; [KEEP 32-BIT INS]
    2023                            ; CALL OCCURS {uxListRemove }    ; [] |1922| 
    2024                            .dwpsn  file "../Source/tasks.c",line 1926,column 7,is_stmt,isa 1
    2025 000003d4 9800              LDR       A1, [SP, #0]          ; [DPU_3_PIPE] |1926|  ; [ORIG 16-BIT INS]
    2026 000003d6 6A80              LDR       A1, [A1, #40]         ; [DPU_3_PIPE] |1926|  ; [ORIG 16-BIT INS]
    2027 000003d8 B118              CBZ       A1, ||$C$L31||        ; []  ; [ORIG 16-BIT INS]
    2028                            ; BRANCHCC OCCURS {||$C$L31||}   ; [] |1926| 
    2029                    ;* --------------------------------------------------------------------------*
    2030                            .dwpsn  file "../Source/tasks.c",line 1928,column 8,is_stmt,isa 1
TI ARM Assembler PC v5.1.7 Tue Sep 16 08:38:42 2014

Tools Copyright (c) 1996-2014 Texas Instruments Incorporated
tasks.asm                                                            PAGE   38

    2031 000003da 9800              LDR       A1, [SP, #0]          ; [DPU_3_PIPE] |1928|  ; [ORIG 16-BIT INS]
    2032 000003dc 3018              ADDS      A1, A1, #24           ; [DPU_3_PIPE] |1928|  ; [ORIG 16-BIT INS]
    2033                    $C$DW$143       .dwtag  DW_TAG_TI_branch
    2034                            .dwattr $C$DW$143, DW_AT_low_pc(0x00)
    2035                            .dwattr $C$DW$143, DW_AT_name("uxListRemove")
    2036                            .dwattr $C$DW$143, DW_AT_TI_call
    2037 000003de FFFEF7FF!         BL        uxListRemove          ; [DPU_3_PIPE] |1928|  ; [KEEP 32-BIT INS]
    2038                            ; CALL OCCURS {uxListRemove }    ; [] |1928| 
    2039                            .dwpsn  file "../Source/tasks.c",line 1929,column 7,is_stmt,isa 1
    2040                    ;* --------------------------------------------------------------------------*
    2041 000003e2           ||$C$L31||:    
    2042                            .dwpsn  file "../Source/tasks.c",line 1937,column 7,is_stmt,isa 1
    2043 000003e2 489C              LDR       A1, $C$CON19          ; [DPU_3_PIPE] |1937|  ; [ORIG 16-BIT INS]
    2044 000003e4 9900              LDR       A2, [SP, #0]          ; [DPU_3_PIPE] |1937|  ; [ORIG 16-BIT INS]
    2045 000003e6 6800              LDR       A1, [A1, #0]          ; [DPU_3_PIPE] |1937|  ; [ORIG 16-BIT INS]
    2046 000003e8 6AC9              LDR       A2, [A2, #44]         ; [DPU_3_PIPE] |1937|  ; [ORIG 16-BIT INS]
    2047 000003ea 4288              CMP       A1, A2                ; [DPU_3_PIPE] |1937|  ; [ORIG 16-BIT INS]
    2048 000003ec D203              BCS       ||$C$L32||            ; [DPU_3_PIPE] |1937|  ; [ORIG 16-BIT INS]
    2049                            ; BRANCHCC OCCURS {||$C$L32||}   ; [] |1937| 
    2050                    ;* --------------------------------------------------------------------------*
    2051 000003ee 9800              LDR       A1, [SP, #0]          ; [DPU_3_PIPE] |1937|  ; [ORIG 16-BIT INS]
    2052 000003f0 4998              LDR       A2, $C$CON19          ; [DPU_3_PIPE] |1937|  ; [ORIG 16-BIT INS]
    2053 000003f2 6AC0              LDR       A1, [A1, #44]         ; [DPU_3_PIPE] |1937|  ; [ORIG 16-BIT INS]
    2054 000003f4 6008              STR       A1, [A2, #0]          ; [DPU_3_PIPE] |1937|  ; [ORIG 16-BIT INS]
    2055                    ;* --------------------------------------------------------------------------*
    2056 000003f6           ||$C$L32||:    
    2057 000003f6 9800              LDR       A1, [SP, #0]          ; [DPU_3_PIPE] |1937|  ; [ORIG 16-BIT INS]
    2058 000003f8 6AC3              LDR       A4, [A1, #44]         ; [DPU_3_PIPE] |1937|  ; [ORIG 16-BIT INS]
    2059 000003fa 9900              LDR       A2, [SP, #0]          ; [DPU_3_PIPE] |1937|  ; [ORIG 16-BIT INS]
    2060 000003fc 48B1              LDR       A1, $C$CON20          ; [DPU_3_PIPE] |1937|  ; [ORIG 16-BIT INS]
    2061 000003fe 009A              LSLS      A3, A4, #2            ; [DPU_3_PIPE] |1937|  ; [ORIG 16-BIT INS]
    2062 00000400 1D09              ADDS      A2, A2, #4            ; [DPU_3_PIPE] |1937|  ; [ORIG 16-BIT INS]
    2063 00000402 1203EB02          ADD       A3, A3, A4, LSL #4    ; [DPU_3_PIPE] |1937|  ; [KEEP 32-BIT INS]
    2064 00000406 1880              ADDS      A1, A1, A3            ; [DPU_3_PIPE] |1937|  ; [ORIG 16-BIT INS]
    2065                    $C$DW$144       .dwtag  DW_TAG_TI_branch
    2066                            .dwattr $C$DW$144, DW_AT_low_pc(0x00)
    2067                            .dwattr $C$DW$144, DW_AT_name("vListInsertEnd")
    2068                            .dwattr $C$DW$144, DW_AT_TI_call
    2069 00000408 FFFEF7FF!         BL        vListInsertEnd        ; [DPU_3_PIPE] |1937|  ; [KEEP 32-BIT INS]
    2070                            ; CALL OCCURS {vListInsertEnd }  ; [] |1937| 
    2071                            .dwpsn  file "../Source/tasks.c",line 1958,column 5,is_stmt,isa 1
    2072 0000040c E7C2              B         ||$C$L27||            ; [DPU_3_PIPE] |1958|  ; [ORIG 16-BIT INS]
    2073                            ; BRANCH OCCURS {||$C$L27||}     ; [] |1958| 
    2074                    ;* --------------------------------------------------------------------------*
    2075                            .dwendtag $C$DW$137
    2076                    
    2077                    ;* --------------------------------------------------------------------------*
    2078 0000040e           ||$C$L33||:    
    2079                            .dwpsn  file "../Source/tasks.c",line 1995,column 3,is_stmt,isa 1
    2080 0000040e 4947              LDR       A2, $C$CON13          ; [DPU_3_PIPE] |1995|  ; [ORIG 16-BIT INS]
    2081 00000410 6808              LDR       A1, [A2, #0]          ; [DPU_3_PIPE] |1995|  ; [ORIG 16-BIT INS]
    2082 00000412 1C40              ADDS      A1, A1, #1            ; [DPU_3_PIPE] |1995|  ; [ORIG 16-BIT INS]
    2083 00000414 6008              STR       A1, [A2, #0]          ; [DPU_3_PIPE] |1995|  ; [ORIG 16-BIT INS]
    2084                    ;* --------------------------------------------------------------------------*
    2085 00000416           ||$C$L34||:    
TI ARM Assembler PC v5.1.7 Tue Sep 16 08:38:42 2014

Tools Copyright (c) 1996-2014 Texas Instruments Incorporated
tasks.asm                                                            PAGE   39

    2086                            .dwpsn  file "../Source/tasks.c",line 2019,column 2,is_stmt,isa 1
    2087 00000416 9802              LDR       A1, [SP, #8]          ; [DPU_3_PIPE] |2019|  ; [ORIG 16-BIT INS]
    2088                            .dwpsn  file "../Source/tasks.c",line 2020,column 1,is_stmt,isa 1
    2089 00000418 B006              ADD       SP, SP, #24           ; [DPU_3_PIPE]  ; [ORIG 16-BIT INS]
    2090                            .dwcfi  cfa_offset, 8
    2091                    $C$DW$145       .dwtag  DW_TAG_TI_branch
    2092                            .dwattr $C$DW$145, DW_AT_low_pc(0x00)
    2093                            .dwattr $C$DW$145, DW_AT_TI_return
    2094 0000041a BD10              POP       {V1, PC}              ; [DPU_3_PIPE]  ; [ORIG 16-BIT INS]
    2095                            .dwcfi  cfa_offset, 0
    2096                            ; BRANCH OCCURS                  ; [] 
    2097                            .dwattr $C$DW$133, DW_AT_TI_end_file("../Source/tasks.c")
    2098                            .dwattr $C$DW$133, DW_AT_TI_end_line(0x7e4)
    2099                            .dwattr $C$DW$133, DW_AT_TI_end_column(0x01)
    2100                            .dwendentry
    2101                            .dwendtag $C$DW$133
    2102                    
    2103                    ;******************************************************************************
    2104                    ;* STRINGS                                                                    *
    2105                    ;******************************************************************************
    2106 0000041c                   .sect   ".text"
    2107                            .align  4
    2108 0000041c 49        ||$C$SL1||:     .string "IDLE",0
         0000041d 44       
         0000041e 4C       
         0000041f 45       
         00000420 00       
    2109                    ;******************************************************************************
    2110                    ;* CONSTANT TABLE                                                             *
    2111                    ;******************************************************************************
    2112 00000421                   .sect   ".text"
    2113                            .align  4
    2114 00000424 00000000! ||$C$CON8||:    .bits   prvIdleTask,32
    2115 00000428                   .sect   ".text"
    2116                            .clink
    2117                            .thumbfunc vTaskSwitchContext
    2118 00000428                   .thumb
    2119                            .global vTaskSwitchContext
    2120                    
    2121                    $C$DW$146       .dwtag  DW_TAG_subprogram, DW_AT_name("vTaskSwitchContext")
    2122                            .dwattr $C$DW$146, DW_AT_low_pc(vTaskSwitchContext)
    2123                            .dwattr $C$DW$146, DW_AT_high_pc(0x00)
    2124                            .dwattr $C$DW$146, DW_AT_TI_symbol_name("vTaskSwitchContext")
    2125                            .dwattr $C$DW$146, DW_AT_external
    2126                            .dwattr $C$DW$146, DW_AT_TI_begin_file("../Source/tasks.c")
    2127                            .dwattr $C$DW$146, DW_AT_TI_begin_line(0x841)
    2128                            .dwattr $C$DW$146, DW_AT_TI_begin_column(0x06)
    2129                            .dwattr $C$DW$146, DW_AT_decl_file("../Source/tasks.c")
    2130                            .dwattr $C$DW$146, DW_AT_decl_line(0x841)
    2131                            .dwattr $C$DW$146, DW_AT_decl_column(0x06)
    2132                            .dwattr $C$DW$146, DW_AT_TI_max_frame_size(0x08)
    2133                            .dwpsn  file "../Source/tasks.c",line 2114,column 1,is_stmt,address vTaskSwitchContext,isa 1
    2134                    
    2135                            .dwfde $C$DW$CIE, vTaskSwitchContext
    2136                    
TI ARM Assembler PC v5.1.7 Tue Sep 16 08:38:42 2014

Tools Copyright (c) 1996-2014 Texas Instruments Incorporated
tasks.asm                                                            PAGE   40

    2137                    ;*****************************************************************************
    2138                    ;* FUNCTION NAME: vTaskSwitchContext                                         *
    2139                    ;*                                                                           *
    2140                    ;*   Regs Modified     : A1,A2,A3,SP,SR                                      *
    2141                    ;*   Regs Used         : A1,A2,A3,SP,LR,SR                                   *
    2142                    ;*   Local Frame Size  : 0 Args + 4 Auto + 0 Save = 4 byte                   *
    2143                    ;*****************************************************************************
    2144 00000428           vTaskSwitchContext:
    2145                    ;* --------------------------------------------------------------------------*
    2146                            .dwcfi  cfa_offset, 0
    2147 00000428 0D08F1AD          SUB       SP, SP, #8            ; [DPU_3_PIPE]  ; [KEEP 32-BIT INS]
    2148                            .dwcfi  cfa_offset, 8
    2149                            .dwpsn  file "../Source/tasks.c",line 2115,column 2,is_stmt,isa 1
    2150 0000042c 481C              LDR       A1, $C$CON9           ; [DPU_3_PIPE] |2115|  ; [ORIG 16-BIT INS]
    2151 0000042e 6800              LDR       A1, [A1, #0]          ; [DPU_3_PIPE] |2115|  ; [ORIG 16-BIT INS]
    2152 00000430 B118              CBZ       A1, ||$C$L35||        ; []  ; [ORIG 16-BIT INS]
    2153                            ; BRANCHCC OCCURS {||$C$L35||}   ; [] |2115| 
    2154                    ;* --------------------------------------------------------------------------*
    2155                            .dwpsn  file "../Source/tasks.c",line 2119,column 3,is_stmt,isa 1
    2156 00000432 493C              LDR       A2, $C$CON11          ; [DPU_3_PIPE] |2119|  ; [ORIG 16-BIT INS]
    2157 00000434 2001              MOVS      A1, #1                ; [DPU_3_PIPE] |2119|  ; [ORIG 16-BIT INS]
    2158 00000436 6008              STR       A1, [A2, #0]          ; [DPU_3_PIPE] |2119|  ; [ORIG 16-BIT INS]
    2159                            .dwpsn  file "../Source/tasks.c",line 2120,column 2,is_stmt,isa 1
    2160 00000438 E030              B         ||$C$L40||            ; [DPU_3_PIPE] |2120|  ; [ORIG 16-BIT INS]
    2161                            ; BRANCH OCCURS {||$C$L40||}     ; [] |2120| 
    2162                    ;* --------------------------------------------------------------------------*
    2163 0000043a           ||$C$L35||:    
    2164                            .dwpsn  file "../Source/tasks.c",line 2123,column 3,is_stmt,isa 1
    2165 0000043a 493A              LDR       A2, $C$CON11          ; [DPU_3_PIPE] |2123|  ; [ORIG 16-BIT INS]
    2166 0000043c 2000              MOVS      A1, #0                ; [DPU_3_PIPE] |2123|  ; [ORIG 16-BIT INS]
    2167 0000043e 6008              STR       A1, [A2, #0]          ; [DPU_3_PIPE] |2123|  ; [ORIG 16-BIT INS]
    2168                            .dwpsn  file "../Source/tasks.c",line 2156,column 3,is_stmt,isa 1
    2169 00000440 E003              B         ||$C$L37||            ; [DPU_3_PIPE] |2156|  ; [ORIG 16-BIT INS]
    2170                            ; BRANCH OCCURS {||$C$L37||}     ; [] |2156| 
    2171                    ;* --------------------------------------------------------------------------*
    2172 00000442           ||$C$L36||:    
    2173 00000442 4984              LDR       A2, $C$CON19          ; [DPU_3_PIPE] |2156|  ; [ORIG 16-BIT INS]
    2174 00000444 6808              LDR       A1, [A2, #0]          ; [DPU_3_PIPE] |2156|  ; [ORIG 16-BIT INS]
    2175 00000446 1E40              SUBS      A1, A1, #1            ; [DPU_3_PIPE] |2156|  ; [ORIG 16-BIT INS]
    2176 00000448 6008              STR       A1, [A2, #0]          ; [DPU_3_PIPE] |2156|  ; [ORIG 16-BIT INS]
    2177                    ;* --------------------------------------------------------------------------*
    2178                    ;*   BEGIN LOOP ||$C$L37||
    2179                    ;* --------------------------------------------------------------------------*
    2180 0000044a           ||$C$L37||:    
    2181 0000044a 4882              LDR       A1, $C$CON19          ; [DPU_3_PIPE] |2156|  ; [ORIG 16-BIT INS]
    2182 0000044c 499D              LDR       A2, $C$CON20          ; [DPU_3_PIPE] |2156|  ; [ORIG 16-BIT INS]
    2183 0000044e 6802              LDR       A3, [A1, #0]          ; [DPU_3_PIPE] |2156|  ; [ORIG 16-BIT INS]
    2184 00000450 0090              LSLS      A1, A3, #2            ; [DPU_3_PIPE] |2156|  ; [ORIG 16-BIT INS]
    2185 00000452 1002EB00          ADD       A1, A1, A3, LSL #4    ; [DPU_3_PIPE] |2156|  ; [KEEP 32-BIT INS]
    2186 00000456 5809              LDR       A2, [A2, +A1]         ; [DPU_3_PIPE] |2156|  ; [ORIG 16-BIT INS]
    2187 00000458 2000              MOVS      A1, #0                ; [DPU_3_PIPE] |2156|  ; [ORIG 16-BIT INS]
    2188 0000045a B901              CBNZ      A2, ||$C$L38||        ; []  ; [ORIG 16-BIT INS]
    2189                            ; BRANCHCC OCCURS {||$C$L38||}   ; [] |2156| 
    2190                    ;* --------------------------------------------------------------------------*
    2191 0000045c 2001              MOVS      A1, #1                ; [DPU_3_PIPE] |2156|  ; [ORIG 16-BIT INS]
TI ARM Assembler PC v5.1.7 Tue Sep 16 08:38:42 2014

Tools Copyright (c) 1996-2014 Texas Instruments Incorporated
tasks.asm                                                            PAGE   41

    2192                    ;* --------------------------------------------------------------------------*
    2193 0000045e           ||$C$L38||:    
    2194 0000045e 2800              CMP       A1, #0                ; [DPU_3_PIPE] |2156|  ; [ORIG 16-BIT INS]
    2195 00000460 D1EF              BNE       ||$C$L36||            ; [DPU_3_PIPE] |2156|  ; [ORIG 16-BIT INS]
    2196                            ; BRANCHCC OCCURS {||$C$L36||}   ; [] |2156| 
    2197                    ;* --------------------------------------------------------------------------*
    2198                    
    2199                    $C$DW$147       .dwtag  DW_TAG_lexical_block, DW_AT_low_pc(0x00), DW_AT_high_pc(0x00)
    2200                    $C$DW$148       .dwtag  DW_TAG_variable, DW_AT_name("pxConstList")
    2201                            .dwattr $C$DW$148, DW_AT_TI_symbol_name("pxConstList")
    2202                            .dwattr $C$DW$148, DW_AT_type(*$C$DW$T$77)
    2203                            .dwattr $C$DW$148, DW_AT_location[DW_OP_breg13 0]
    2204 00000462 487C              LDR       A1, $C$CON19          ; [DPU_3_PIPE] |2156|  ; [ORIG 16-BIT INS]
    2205 00000464 4997              LDR       A2, $C$CON20          ; [DPU_3_PIPE] |2156|  ; [ORIG 16-BIT INS]
    2206 00000466 6802              LDR       A3, [A1, #0]          ; [DPU_3_PIPE] |2156|  ; [ORIG 16-BIT INS]
    2207 00000468 0090              LSLS      A1, A3, #2            ; [DPU_3_PIPE] |2156|  ; [ORIG 16-BIT INS]
    2208 0000046a 1002EB00          ADD       A1, A1, A3, LSL #4    ; [DPU_3_PIPE] |2156|  ; [KEEP 32-BIT INS]
    2209 0000046e 1809              ADDS      A2, A2, A1            ; [DPU_3_PIPE] |2156|  ; [ORIG 16-BIT INS]
    2210 00000470 9100              STR       A2, [SP, #0]          ; [DPU_3_PIPE] |2156|  ; [ORIG 16-BIT INS]
    2211 00000472 9800              LDR       A1, [SP, #0]          ; [DPU_3_PIPE] |2156|  ; [ORIG 16-BIT INS]
    2212 00000474 9900              LDR       A2, [SP, #0]          ; [DPU_3_PIPE] |2156|  ; [ORIG 16-BIT INS]
    2213 00000476 6840              LDR       A1, [A1, #4]          ; [DPU_3_PIPE] |2156|  ; [ORIG 16-BIT INS]
    2214 00000478 6840              LDR       A1, [A1, #4]          ; [DPU_3_PIPE] |2156|  ; [ORIG 16-BIT INS]
    2215 0000047a 6048              STR       A1, [A2, #4]          ; [DPU_3_PIPE] |2156|  ; [ORIG 16-BIT INS]
    2216 0000047c 9900              LDR       A2, [SP, #0]          ; [DPU_3_PIPE] |2156|  ; [ORIG 16-BIT INS]
    2217 0000047e 9800              LDR       A1, [SP, #0]          ; [DPU_3_PIPE] |2156|  ; [ORIG 16-BIT INS]
    2218 00000480 6849              LDR       A2, [A2, #4]          ; [DPU_3_PIPE] |2156|  ; [ORIG 16-BIT INS]
    2219 00000482 3008              ADDS      A1, A1, #8            ; [DPU_3_PIPE] |2156|  ; [ORIG 16-BIT INS]
    2220 00000484 4288              CMP       A1, A2                ; [DPU_3_PIPE] |2156|  ; [ORIG 16-BIT INS]
    2221 00000486 D104              BNE       ||$C$L39||            ; [DPU_3_PIPE] |2156|  ; [ORIG 16-BIT INS]
    2222                            ; BRANCHCC OCCURS {||$C$L39||}   ; [] |2156| 
    2223                    ;* --------------------------------------------------------------------------*
    2224 00000488 9800              LDR       A1, [SP, #0]          ; [DPU_3_PIPE] |2156|  ; [ORIG 16-BIT INS]
    2225 0000048a 9900              LDR       A2, [SP, #0]          ; [DPU_3_PIPE] |2156|  ; [ORIG 16-BIT INS]
    2226 0000048c 6840              LDR       A1, [A1, #4]          ; [DPU_3_PIPE] |2156|  ; [ORIG 16-BIT INS]
    2227 0000048e 6840              LDR       A1, [A1, #4]          ; [DPU_3_PIPE] |2156|  ; [ORIG 16-BIT INS]
    2228 00000490 6048              STR       A1, [A2, #4]          ; [DPU_3_PIPE] |2156|  ; [ORIG 16-BIT INS]
    2229                    ;* --------------------------------------------------------------------------*
    2230 00000492           ||$C$L39||:    
    2231 00000492 9800              LDR       A1, [SP, #0]          ; [DPU_3_PIPE] |2156|  ; [ORIG 16-BIT INS]
    2232 00000494 4992              LDR       A2, $C$CON21          ; [DPU_3_PIPE] |2156|  ; [ORIG 16-BIT INS]
    2233 00000496 6840              LDR       A1, [A1, #4]          ; [DPU_3_PIPE] |2156|  ; [ORIG 16-BIT INS]
    2234 00000498 68C0              LDR       A1, [A1, #12]         ; [DPU_3_PIPE] |2156|  ; [ORIG 16-BIT INS]
    2235 0000049a 6008              STR       A1, [A2, #0]          ; [DPU_3_PIPE] |2156|  ; [ORIG 16-BIT INS]
    2236                            .dwendtag $C$DW$147
    2237                    
    2238                            .dwpsn  file "../Source/tasks.c",line 2168,column 1,is_stmt,isa 1
    2239                    ;* --------------------------------------------------------------------------*
    2240 0000049c           ||$C$L40||:    
    2241 0000049c B002              ADD       SP, SP, #8            ; [DPU_3_PIPE]  ; [ORIG 16-BIT INS]
    2242                            .dwcfi  cfa_offset, 0
    2243                    $C$DW$149       .dwtag  DW_TAG_TI_branch
    2244                            .dwattr $C$DW$149, DW_AT_low_pc(0x00)
    2245                            .dwattr $C$DW$149, DW_AT_TI_return
    2246 0000049e 4770              BX        LR                    ; [DPU_3_PIPE]  ; [ORIG 16-BIT INS]
TI ARM Assembler PC v5.1.7 Tue Sep 16 08:38:42 2014

Tools Copyright (c) 1996-2014 Texas Instruments Incorporated
tasks.asm                                                            PAGE   42

    2247                            ; BRANCH OCCURS                  ; [] 
    2248                            .dwattr $C$DW$146, DW_AT_TI_end_file("../Source/tasks.c")
    2249                            .dwattr $C$DW$146, DW_AT_TI_end_line(0x878)
    2250                            .dwattr $C$DW$146, DW_AT_TI_end_column(0x01)
    2251                            .dwendentry
    2252                            .dwendtag $C$DW$146
    2253                    
    2254                    ;******************************************************************************
    2255                    ;* CONSTANT TABLE                                                             *
    2256                    ;******************************************************************************
    2257 000004a0                   .sect   ".text"
    2258                            .align  4
    2259 000004a0 00000000! ||$C$CON9||:    .bits   uxSchedulerSuspended,32
    2260 000004a4                   .sect   ".text"
    2261                            .clink
    2262                            .thumbfunc vTaskPlaceOnEventList
    2263 000004a4                   .thumb
    2264                            .global vTaskPlaceOnEventList
    2265                    
    2266                    $C$DW$150       .dwtag  DW_TAG_subprogram, DW_AT_name("vTaskPlaceOnEventList")
    2267                            .dwattr $C$DW$150, DW_AT_low_pc(vTaskPlaceOnEventList)
    2268                            .dwattr $C$DW$150, DW_AT_high_pc(0x00)
    2269                            .dwattr $C$DW$150, DW_AT_TI_symbol_name("vTaskPlaceOnEventList")
    2270                            .dwattr $C$DW$150, DW_AT_external
    2271                            .dwattr $C$DW$150, DW_AT_TI_begin_file("../Source/tasks.c")
    2272                            .dwattr $C$DW$150, DW_AT_TI_begin_line(0x87b)
    2273                            .dwattr $C$DW$150, DW_AT_TI_begin_column(0x06)
    2274                            .dwattr $C$DW$150, DW_AT_decl_file("../Source/tasks.c")
    2275                            .dwattr $C$DW$150, DW_AT_decl_line(0x87b)
    2276                            .dwattr $C$DW$150, DW_AT_decl_column(0x06)
    2277                            .dwattr $C$DW$150, DW_AT_TI_max_frame_size(0x10)
    2278                            .dwpsn  file "../Source/tasks.c",line 2172,column 1,is_stmt,address vTaskPlaceOnEventList,isa 
    2279                    
    2280                            .dwfde $C$DW$CIE, vTaskPlaceOnEventList
    2281                    $C$DW$151       .dwtag  DW_TAG_formal_parameter, DW_AT_name("pxEventList")
    2282                            .dwattr $C$DW$151, DW_AT_TI_symbol_name("pxEventList")
    2283                            .dwattr $C$DW$151, DW_AT_type(*$C$DW$T$77)
    2284                            .dwattr $C$DW$151, DW_AT_location[DW_OP_reg0]
    2285                    $C$DW$152       .dwtag  DW_TAG_formal_parameter, DW_AT_name("xTicksToWait")
    2286                            .dwattr $C$DW$152, DW_AT_TI_symbol_name("xTicksToWait")
    2287                            .dwattr $C$DW$152, DW_AT_type(*$C$DW$T$87)
    2288                            .dwattr $C$DW$152, DW_AT_location[DW_OP_reg1]
    2289                    
    2290                    ;*****************************************************************************
    2291                    ;* FUNCTION NAME: vTaskPlaceOnEventList                                      *
    2292                    ;*                                                                           *
    2293                    ;*   Regs Modified     : A1,A2,A3,A4,V9,SP,LR,SR,D0,D0_hi,D1,D1_hi,D2,D2_hi, *
    2294                    ;*                           D3,D3_hi,D4,D4_hi,D5,D5_hi,D6,D6_hi,D7,D7_hi,   *
    2295                    ;*                           FPEXC,FPSCR                                     *
    2296                    ;*   Regs Used         : A1,A2,A3,A4,V9,SP,LR,SR,D0,D0_hi,D1,D1_hi,D2,D2_hi, *
    2297                    ;*                           D3,D3_hi,D4,D4_hi,D5,D5_hi,D6,D6_hi,D7,D7_hi,   *
    2298                    ;*                           FPEXC,FPSCR                                     *
    2299                    ;*   Local Frame Size  : 0 Args + 12 Auto + 4 Save = 16 byte                 *
    2300                    ;*****************************************************************************
    2301 000004a4           vTaskPlaceOnEventList:
TI ARM Assembler PC v5.1.7 Tue Sep 16 08:38:42 2014

Tools Copyright (c) 1996-2014 Texas Instruments Incorporated
tasks.asm                                                            PAGE   43

    2302                    ;* --------------------------------------------------------------------------*
    2303                            .dwcfi  cfa_offset, 0
    2304 000004a4 B50E              PUSH      {A2, A3, A4, LR}      ; [DPU_3_PIPE]  ; [ORIG 16-BIT INS]
    2305                            .dwcfi  cfa_offset, 16
    2306                            .dwcfi  save_reg_to_mem, 14, -4
    2307                            .dwcfi  save_reg_to_mem, 3, -8
    2308                            .dwcfi  save_reg_to_mem, 2, -12
    2309                            .dwcfi  save_reg_to_mem, 1, -16
    2310                    $C$DW$153       .dwtag  DW_TAG_variable, DW_AT_name("pxEventList")
    2311                            .dwattr $C$DW$153, DW_AT_TI_symbol_name("pxEventList")
    2312                            .dwattr $C$DW$153, DW_AT_type(*$C$DW$T$77)
    2313                            .dwattr $C$DW$153, DW_AT_location[DW_OP_breg13 0]
    2314                    $C$DW$154       .dwtag  DW_TAG_variable, DW_AT_name("xTicksToWait")
    2315                            .dwattr $C$DW$154, DW_AT_TI_symbol_name("xTicksToWait")
    2316                            .dwattr $C$DW$154, DW_AT_type(*$C$DW$T$87)
    2317                            .dwattr $C$DW$154, DW_AT_location[DW_OP_breg13 4]
    2318                    $C$DW$155       .dwtag  DW_TAG_variable, DW_AT_name("xTimeToWake")
    2319                            .dwattr $C$DW$155, DW_AT_TI_symbol_name("xTimeToWake")
    2320                            .dwattr $C$DW$155, DW_AT_type(*$C$DW$T$36)
    2321                            .dwattr $C$DW$155, DW_AT_location[DW_OP_breg13 8]
    2322 000004a6 9101              STR       A2, [SP, #4]          ; [DPU_3_PIPE] |2172|  ; [ORIG 16-BIT INS]
    2323 000004a8 9000              STR       A1, [SP, #0]          ; [DPU_3_PIPE] |2172|  ; [ORIG 16-BIT INS]
    2324                            .dwpsn  file "../Source/tasks.c",line 2184,column 2,is_stmt,isa 1
    2325 000004aa 488D              LDR       A1, $C$CON21          ; [DPU_3_PIPE] |2184|  ; [ORIG 16-BIT INS]
    2326 000004ac 6801              LDR       A2, [A1, #0]          ; [DPU_3_PIPE] |2184|  ; [ORIG 16-BIT INS]
    2327 000004ae 9800              LDR       A1, [SP, #0]          ; [DPU_3_PIPE] |2184|  ; [ORIG 16-BIT INS]
    2328 000004b0 3118              ADDS      A2, A2, #24           ; [DPU_3_PIPE] |2184|  ; [ORIG 16-BIT INS]
    2329                    $C$DW$156       .dwtag  DW_TAG_TI_branch
    2330                            .dwattr $C$DW$156, DW_AT_low_pc(0x00)
    2331                            .dwattr $C$DW$156, DW_AT_name("vListInsert")
    2332                            .dwattr $C$DW$156, DW_AT_TI_call
    2333 000004b2 FFFEF7FF!         BL        vListInsert           ; [DPU_3_PIPE] |2184|  ; [KEEP 32-BIT INS]
    2334                            ; CALL OCCURS {vListInsert }     ; [] |2184| 
    2335                            .dwpsn  file "../Source/tasks.c",line 2189,column 2,is_stmt,isa 1
    2336 000004b6 488A              LDR       A1, $C$CON21          ; [DPU_3_PIPE] |2189|  ; [ORIG 16-BIT INS]
    2337 000004b8 6800              LDR       A1, [A1, #0]          ; [DPU_3_PIPE] |2189|  ; [ORIG 16-BIT INS]
    2338 000004ba 1D00              ADDS      A1, A1, #4            ; [DPU_3_PIPE] |2189|  ; [ORIG 16-BIT INS]
    2339                    $C$DW$157       .dwtag  DW_TAG_TI_branch
    2340                            .dwattr $C$DW$157, DW_AT_low_pc(0x00)
    2341                            .dwattr $C$DW$157, DW_AT_name("uxListRemove")
    2342                            .dwattr $C$DW$157, DW_AT_TI_call
    2343 000004bc FFFEF7FF!         BL        uxListRemove          ; [DPU_3_PIPE] |2189|  ; [KEEP 32-BIT INS]
    2344                            ; CALL OCCURS {uxListRemove }    ; [] |2189| 
    2345 000004c0 2800              CMP       A1, #0                ; [DPU_3_PIPE] |2189|  ; [ORIG 16-BIT INS]
    2346 000004c2 D0FF              BEQ       ||$C$L41||            ; [DPU_3_PIPE] |2189|  ; [ORIG 16-BIT INS]
    2347                            ; BRANCHCC OCCURS {||$C$L41||}   ; [] |2189| 
    2348                    ;* --------------------------------------------------------------------------*
    2349                            .dwpsn  file "../Source/tasks.c",line 2194,column 2,is_stmt,isa 1
    2350                    ;* --------------------------------------------------------------------------*
    2351 000004c4           ||$C$L41||:    
    2352                            .dwpsn  file "../Source/tasks.c",line 2223,column 4,is_stmt,isa 1
    2353 000004c4 49A7              LDR       A2, $C$CON22          ; [DPU_3_PIPE] |2223|  ; [ORIG 16-BIT INS]
    2354 000004c6 9801              LDR       A1, [SP, #4]          ; [DPU_3_PIPE] |2223|  ; [ORIG 16-BIT INS]
    2355 000004c8 6809              LDR       A2, [A2, #0]          ; [DPU_3_PIPE] |2223|  ; [ORIG 16-BIT INS]
    2356 000004ca 1840              ADDS      A1, A1, A2            ; [DPU_3_PIPE] |2223|  ; [ORIG 16-BIT INS]
TI ARM Assembler PC v5.1.7 Tue Sep 16 08:38:42 2014

Tools Copyright (c) 1996-2014 Texas Instruments Incorporated
tasks.asm                                                            PAGE   44

    2357 000004cc 9002              STR       A1, [SP, #8]          ; [DPU_3_PIPE] |2223|  ; [ORIG 16-BIT INS]
    2358                            .dwpsn  file "../Source/tasks.c",line 2224,column 4,is_stmt,isa 1
    2359 000004ce 9802              LDR       A1, [SP, #8]          ; [DPU_3_PIPE] |2224|  ; [ORIG 16-BIT INS]
    2360                    $C$DW$158       .dwtag  DW_TAG_TI_branch
    2361                            .dwattr $C$DW$158, DW_AT_low_pc(0x00)
    2362                            .dwattr $C$DW$158, DW_AT_name("prvAddCurrentTaskToDelayedList")
    2363                            .dwattr $C$DW$158, DW_AT_TI_call
    2364 000004d0 F972F000          BL        prvAddCurrentTaskToDelayedList ; [DPU_3_PIPE] |2224|  ; [KEEP 32-BIT INS]
    2365                            ; CALL OCCURS {prvAddCurrentTaskToDelayedList }  ; [] |2224| 
    2366                            .dwpsn  file "../Source/tasks.c",line 2227,column 1,is_stmt,isa 1
    2367                    $C$DW$159       .dwtag  DW_TAG_TI_branch
    2368                            .dwattr $C$DW$159, DW_AT_low_pc(0x00)
    2369                            .dwattr $C$DW$159, DW_AT_TI_return
    2370 000004d4 BD0E              POP       {A2, A3, A4, PC}      ; [DPU_3_PIPE]  ; [ORIG 16-BIT INS]
    2371                            .dwcfi  cfa_offset, 0
    2372                            ; BRANCH OCCURS                  ; [] 
    2373                            .dwattr $C$DW$150, DW_AT_TI_end_file("../Source/tasks.c")
    2374                            .dwattr $C$DW$150, DW_AT_TI_end_line(0x8b3)
    2375                            .dwattr $C$DW$150, DW_AT_TI_end_column(0x01)
    2376                            .dwendentry
    2377                            .dwendtag $C$DW$150
    2378                    
    2379                    ;******************************************************************************
    2380                    ;* CONSTANT TABLE                                                             *
    2381                    ;******************************************************************************
    2382 000004d6                   .sect   ".text"
    2383                            .align  4
    2384 000004d6 000C46C0! ||$C$CON10||:   .bits   xPendingReadyList+12,32
         000004da 00000000 
    2385 000004dc                   .sect   ".text"
    2386                            .clink
    2387                            .thumbfunc vTaskPlaceOnUnorderedEventList
    2388 000004dc                   .thumb
    2389                            .global vTaskPlaceOnUnorderedEventList
    2390                    
    2391                    $C$DW$160       .dwtag  DW_TAG_subprogram, DW_AT_name("vTaskPlaceOnUnorderedEventList")
    2392                            .dwattr $C$DW$160, DW_AT_low_pc(vTaskPlaceOnUnorderedEventList)
    2393                            .dwattr $C$DW$160, DW_AT_high_pc(0x00)
    2394                            .dwattr $C$DW$160, DW_AT_TI_symbol_name("vTaskPlaceOnUnorderedEventList")
    2395                            .dwattr $C$DW$160, DW_AT_external
    2396                            .dwattr $C$DW$160, DW_AT_TI_begin_file("../Source/tasks.c")
    2397                            .dwattr $C$DW$160, DW_AT_TI_begin_line(0x8b6)
    2398                            .dwattr $C$DW$160, DW_AT_TI_begin_column(0x06)
    2399                            .dwattr $C$DW$160, DW_AT_decl_file("../Source/tasks.c")
    2400                            .dwattr $C$DW$160, DW_AT_decl_line(0x8b6)
    2401                            .dwattr $C$DW$160, DW_AT_decl_column(0x06)
    2402                            .dwattr $C$DW$160, DW_AT_TI_max_frame_size(0x18)
    2403                            .dwpsn  file "../Source/tasks.c",line 2231,column 1,is_stmt,address vTaskPlaceOnUnorderedEvent
    2404                    
    2405                            .dwfde $C$DW$CIE, vTaskPlaceOnUnorderedEventList
    2406                    $C$DW$161       .dwtag  DW_TAG_formal_parameter, DW_AT_name("pxEventList")
    2407                            .dwattr $C$DW$161, DW_AT_TI_symbol_name("pxEventList")
    2408                            .dwattr $C$DW$161, DW_AT_type(*$C$DW$T$76)
    2409                            .dwattr $C$DW$161, DW_AT_location[DW_OP_reg0]
    2410                    $C$DW$162       .dwtag  DW_TAG_formal_parameter, DW_AT_name("xItemValue")
TI ARM Assembler PC v5.1.7 Tue Sep 16 08:38:42 2014

Tools Copyright (c) 1996-2014 Texas Instruments Incorporated
tasks.asm                                                            PAGE   45

    2411                            .dwattr $C$DW$162, DW_AT_TI_symbol_name("xItemValue")
    2412                            .dwattr $C$DW$162, DW_AT_type(*$C$DW$T$87)
    2413                            .dwattr $C$DW$162, DW_AT_location[DW_OP_reg1]
    2414                    $C$DW$163       .dwtag  DW_TAG_formal_parameter, DW_AT_name("xTicksToWait")
    2415                            .dwattr $C$DW$163, DW_AT_TI_symbol_name("xTicksToWait")
    2416                            .dwattr $C$DW$163, DW_AT_type(*$C$DW$T$87)
    2417                            .dwattr $C$DW$163, DW_AT_location[DW_OP_reg2]
    2418                    
    2419                    ;*****************************************************************************
    2420                    ;* FUNCTION NAME: vTaskPlaceOnUnorderedEventList                             *
    2421                    ;*                                                                           *
    2422                    ;*   Regs Modified     : A1,A2,A3,A4,V9,SP,LR,SR,D0,D0_hi,D1,D1_hi,D2,D2_hi, *
    2423                    ;*                           D3,D3_hi,D4,D4_hi,D5,D5_hi,D6,D6_hi,D7,D7_hi,   *
    2424                    ;*                           FPEXC,FPSCR                                     *
    2425                    ;*   Regs Used         : A1,A2,A3,A4,V9,SP,LR,SR,D0,D0_hi,D1,D1_hi,D2,D2_hi, *
    2426                    ;*                           D3,D3_hi,D4,D4_hi,D5,D5_hi,D6,D6_hi,D7,D7_hi,   *
    2427                    ;*                           FPEXC,FPSCR                                     *
    2428                    ;*   Local Frame Size  : 0 Args + 16 Auto + 4 Save = 20 byte                 *
    2429                    ;*****************************************************************************
    2430 000004dc           vTaskPlaceOnUnorderedEventList:
    2431                    ;* --------------------------------------------------------------------------*
    2432                            .dwcfi  cfa_offset, 0
    2433 000004dc B500              PUSH      {LR}                  ; [DPU_3_PIPE]  ; [ORIG 16-BIT INS]
    2434                            .dwcfi  cfa_offset, 4
    2435                            .dwcfi  save_reg_to_mem, 14, -4
    2436 000004de 0D14F1AD          SUB       SP, SP, #20           ; [DPU_3_PIPE]  ; [KEEP 32-BIT INS]
    2437                            .dwcfi  cfa_offset, 24
    2438                    $C$DW$164       .dwtag  DW_TAG_variable, DW_AT_name("pxEventList")
    2439                            .dwattr $C$DW$164, DW_AT_TI_symbol_name("pxEventList")
    2440                            .dwattr $C$DW$164, DW_AT_type(*$C$DW$T$76)
    2441                            .dwattr $C$DW$164, DW_AT_location[DW_OP_breg13 0]
    2442                    $C$DW$165       .dwtag  DW_TAG_variable, DW_AT_name("xItemValue")
    2443                            .dwattr $C$DW$165, DW_AT_TI_symbol_name("xItemValue")
    2444                            .dwattr $C$DW$165, DW_AT_type(*$C$DW$T$87)
    2445                            .dwattr $C$DW$165, DW_AT_location[DW_OP_breg13 4]
    2446                    $C$DW$166       .dwtag  DW_TAG_variable, DW_AT_name("xTicksToWait")
    2447                            .dwattr $C$DW$166, DW_AT_TI_symbol_name("xTicksToWait")
    2448                            .dwattr $C$DW$166, DW_AT_type(*$C$DW$T$87)
    2449                            .dwattr $C$DW$166, DW_AT_location[DW_OP_breg13 8]
    2450                    $C$DW$167       .dwtag  DW_TAG_variable, DW_AT_name("xTimeToWake")
    2451                            .dwattr $C$DW$167, DW_AT_TI_symbol_name("xTimeToWake")
    2452                            .dwattr $C$DW$167, DW_AT_type(*$C$DW$T$36)
    2453                            .dwattr $C$DW$167, DW_AT_location[DW_OP_breg13 12]
    2454 000004e2 9202              STR       A3, [SP, #8]          ; [DPU_3_PIPE] |2231|  ; [ORIG 16-BIT INS]
    2455 000004e4 9101              STR       A2, [SP, #4]          ; [DPU_3_PIPE] |2231|  ; [ORIG 16-BIT INS]
    2456 000004e6 9000              STR       A1, [SP, #0]          ; [DPU_3_PIPE] |2231|  ; [ORIG 16-BIT INS]
    2457                            .dwpsn  file "../Source/tasks.c",line 2243,column 2,is_stmt,isa 1
    2458 000004e8 497D              LDR       A2, $C$CON21          ; [DPU_3_PIPE] |2243|  ; [ORIG 16-BIT INS]
    2459 000004ea 9801              LDR       A1, [SP, #4]          ; [DPU_3_PIPE] |2243|  ; [ORIG 16-BIT INS]
    2460 000004ec 6809              LDR       A2, [A2, #0]          ; [DPU_3_PIPE] |2243|  ; [ORIG 16-BIT INS]
    2461 000004ee 4000F040          ORR       A1, A1, #-2147483648  ; [DPU_3_PIPE] |2243|  ; [KEEP 32-BIT INS]
    2462 000004f2 6188              STR       A1, [A2, #24]         ; [DPU_3_PIPE] |2243|  ; [ORIG 16-BIT INS]
    2463                            .dwpsn  file "../Source/tasks.c",line 2250,column 2,is_stmt,isa 1
    2464 000004f4 487A              LDR       A1, $C$CON21          ; [DPU_3_PIPE] |2250|  ; [ORIG 16-BIT INS]
    2465 000004f6 6801              LDR       A2, [A1, #0]          ; [DPU_3_PIPE] |2250|  ; [ORIG 16-BIT INS]
TI ARM Assembler PC v5.1.7 Tue Sep 16 08:38:42 2014

Tools Copyright (c) 1996-2014 Texas Instruments Incorporated
tasks.asm                                                            PAGE   46

    2466 000004f8 9800              LDR       A1, [SP, #0]          ; [DPU_3_PIPE] |2250|  ; [ORIG 16-BIT INS]
    2467 000004fa 3118              ADDS      A2, A2, #24           ; [DPU_3_PIPE] |2250|  ; [ORIG 16-BIT INS]
    2468                    $C$DW$168       .dwtag  DW_TAG_TI_branch
    2469                            .dwattr $C$DW$168, DW_AT_low_pc(0x00)
    2470                            .dwattr $C$DW$168, DW_AT_name("vListInsertEnd")
    2471                            .dwattr $C$DW$168, DW_AT_TI_call
    2472 000004fc FFFEF7FF!         BL        vListInsertEnd        ; [DPU_3_PIPE] |2250|  ; [KEEP 32-BIT INS]
    2473                            ; CALL OCCURS {vListInsertEnd }  ; [] |2250| 
    2474                            .dwpsn  file "../Source/tasks.c",line 2255,column 2,is_stmt,isa 1
    2475 00000500 4877              LDR       A1, $C$CON21          ; [DPU_3_PIPE] |2255|  ; [ORIG 16-BIT INS]
    2476 00000502 6800              LDR       A1, [A1, #0]          ; [DPU_3_PIPE] |2255|  ; [ORIG 16-BIT INS]
    2477 00000504 1D00              ADDS      A1, A1, #4            ; [DPU_3_PIPE] |2255|  ; [ORIG 16-BIT INS]
    2478                    $C$DW$169       .dwtag  DW_TAG_TI_branch
    2479                            .dwattr $C$DW$169, DW_AT_low_pc(0x00)
    2480                            .dwattr $C$DW$169, DW_AT_name("uxListRemove")
    2481                            .dwattr $C$DW$169, DW_AT_TI_call
    2482 00000506 FFFEF7FF!         BL        uxListRemove          ; [DPU_3_PIPE] |2255|  ; [KEEP 32-BIT INS]
    2483                            ; CALL OCCURS {uxListRemove }    ; [] |2255| 
    2484 0000050a 2800              CMP       A1, #0                ; [DPU_3_PIPE] |2255|  ; [ORIG 16-BIT INS]
    2485 0000050c D0FF              BEQ       ||$C$L42||            ; [DPU_3_PIPE] |2255|  ; [ORIG 16-BIT INS]
    2486                            ; BRANCHCC OCCURS {||$C$L42||}   ; [] |2255| 
    2487                    ;* --------------------------------------------------------------------------*
    2488                            .dwpsn  file "../Source/tasks.c",line 2260,column 2,is_stmt,isa 1
    2489                    ;* --------------------------------------------------------------------------*
    2490 0000050e           ||$C$L42||:    
    2491                            .dwpsn  file "../Source/tasks.c",line 2289,column 4,is_stmt,isa 1
    2492 0000050e 4995              LDR       A2, $C$CON22          ; [DPU_3_PIPE] |2289|  ; [ORIG 16-BIT INS]
    2493 00000510 9802              LDR       A1, [SP, #8]          ; [DPU_3_PIPE] |2289|  ; [ORIG 16-BIT INS]
    2494 00000512 6809              LDR       A2, [A2, #0]          ; [DPU_3_PIPE] |2289|  ; [ORIG 16-BIT INS]
    2495 00000514 1840              ADDS      A1, A1, A2            ; [DPU_3_PIPE] |2289|  ; [ORIG 16-BIT INS]
    2496 00000516 9003              STR       A1, [SP, #12]         ; [DPU_3_PIPE] |2289|  ; [ORIG 16-BIT INS]
    2497                            .dwpsn  file "../Source/tasks.c",line 2290,column 4,is_stmt,isa 1
    2498 00000518 9803              LDR       A1, [SP, #12]         ; [DPU_3_PIPE] |2290|  ; [ORIG 16-BIT INS]
    2499                    $C$DW$170       .dwtag  DW_TAG_TI_branch
    2500                            .dwattr $C$DW$170, DW_AT_low_pc(0x00)
    2501                            .dwattr $C$DW$170, DW_AT_name("prvAddCurrentTaskToDelayedList")
    2502                            .dwattr $C$DW$170, DW_AT_TI_call
    2503 0000051a F94DF000          BL        prvAddCurrentTaskToDelayedList ; [DPU_3_PIPE] |2290|  ; [KEEP 32-BIT INS]
    2504                            ; CALL OCCURS {prvAddCurrentTaskToDelayedList }  ; [] |2290| 
    2505                            .dwpsn  file "../Source/tasks.c",line 2293,column 1,is_stmt,isa 1
    2506 0000051e B005              ADD       SP, SP, #20           ; [DPU_3_PIPE]  ; [ORIG 16-BIT INS]
    2507                            .dwcfi  cfa_offset, 4
    2508                    $C$DW$171       .dwtag  DW_TAG_TI_branch
    2509                            .dwattr $C$DW$171, DW_AT_low_pc(0x00)
    2510                            .dwattr $C$DW$171, DW_AT_TI_return
    2511 00000520 BD00              POP       {PC}                  ; [DPU_3_PIPE]  ; [ORIG 16-BIT INS]
    2512                            .dwcfi  cfa_offset, 0
    2513                            ; BRANCH OCCURS                  ; [] 
    2514                            .dwattr $C$DW$160, DW_AT_TI_end_file("../Source/tasks.c")
    2515                            .dwattr $C$DW$160, DW_AT_TI_end_line(0x8f5)
    2516                            .dwattr $C$DW$160, DW_AT_TI_end_column(0x01)
    2517                            .dwendentry
    2518                            .dwendtag $C$DW$160
    2519                    
    2520                    ;******************************************************************************
TI ARM Assembler PC v5.1.7 Tue Sep 16 08:38:42 2014

Tools Copyright (c) 1996-2014 Texas Instruments Incorporated
tasks.asm                                                            PAGE   47

    2521                    ;* CONSTANT TABLE                                                             *
    2522                    ;******************************************************************************
    2523 00000522                   .sect   ".text"
    2524                            .align  4
    2525 00000522 000046C0! ||$C$CON11||:   .bits   xYieldPending,32
         00000526 00000000 
    2526                            .align  4
    2527 00000526 00000000! ||$C$CON12||:   .bits   xPendingReadyList,32
         0000052a 00000000 
    2528                            .align  4
    2529 0000052a 00000000! ||$C$CON13||:   .bits   uxPendedTicks,32
         0000052e 00000000 
    2530 00000530                   .sect   ".text"
    2531                            .clink
    2532                            .thumbfunc xTaskRemoveFromEventList
    2533 00000530                   .thumb
    2534                            .global xTaskRemoveFromEventList
    2535                    
    2536                    $C$DW$172       .dwtag  DW_TAG_subprogram, DW_AT_name("xTaskRemoveFromEventList")
    2537                            .dwattr $C$DW$172, DW_AT_low_pc(xTaskRemoveFromEventList)
    2538                            .dwattr $C$DW$172, DW_AT_high_pc(0x00)
    2539                            .dwattr $C$DW$172, DW_AT_TI_symbol_name("xTaskRemoveFromEventList")
    2540                            .dwattr $C$DW$172, DW_AT_external
    2541                            .dwattr $C$DW$172, DW_AT_type(*$C$DW$T$56)
    2542                            .dwattr $C$DW$172, DW_AT_TI_begin_file("../Source/tasks.c")
    2543                            .dwattr $C$DW$172, DW_AT_TI_begin_line(0x925)
    2544                            .dwattr $C$DW$172, DW_AT_TI_begin_column(0x0c)
    2545                            .dwattr $C$DW$172, DW_AT_decl_file("../Source/tasks.c")
    2546                            .dwattr $C$DW$172, DW_AT_decl_line(0x925)
    2547                            .dwattr $C$DW$172, DW_AT_decl_column(0x0c)
    2548                            .dwattr $C$DW$172, DW_AT_TI_max_frame_size(0x10)
    2549                            .dwpsn  file "../Source/tasks.c",line 2342,column 1,is_stmt,address xTaskRemoveFromEventList,i
    2550                    
    2551                            .dwfde $C$DW$CIE, xTaskRemoveFromEventList
    2552                    $C$DW$173       .dwtag  DW_TAG_formal_parameter, DW_AT_name("pxEventList")
    2553                            .dwattr $C$DW$173, DW_AT_TI_symbol_name("pxEventList")
    2554                            .dwattr $C$DW$173, DW_AT_type(*$C$DW$T$140)
    2555                            .dwattr $C$DW$173, DW_AT_location[DW_OP_reg0]
    2556                    
    2557                    ;*****************************************************************************
    2558                    ;* FUNCTION NAME: xTaskRemoveFromEventList                                   *
    2559                    ;*                                                                           *
    2560                    ;*   Regs Modified     : A1,A2,A3,A4,V9,SP,LR,SR,D0,D0_hi,D1,D1_hi,D2,D2_hi, *
    2561                    ;*                           D3,D3_hi,D4,D4_hi,D5,D5_hi,D6,D6_hi,D7,D7_hi,   *
    2562                    ;*                           FPEXC,FPSCR                                     *
    2563                    ;*   Regs Used         : A1,A2,A3,A4,V9,SP,LR,SR,D0,D0_hi,D1,D1_hi,D2,D2_hi, *
    2564                    ;*                           D3,D3_hi,D4,D4_hi,D5,D5_hi,D6,D6_hi,D7,D7_hi,   *
    2565                    ;*                           FPEXC,FPSCR                                     *
    2566                    ;*   Local Frame Size  : 0 Args + 12 Auto + 4 Save = 16 byte                 *
    2567                    ;*****************************************************************************
    2568 00000530           xTaskRemoveFromEventList:
    2569                    ;* --------------------------------------------------------------------------*
    2570                            .dwcfi  cfa_offset, 0
    2571 00000530 B50E              PUSH      {A2, A3, A4, LR}      ; [DPU_3_PIPE]  ; [ORIG 16-BIT INS]
    2572                            .dwcfi  cfa_offset, 16
TI ARM Assembler PC v5.1.7 Tue Sep 16 08:38:42 2014

Tools Copyright (c) 1996-2014 Texas Instruments Incorporated
tasks.asm                                                            PAGE   48

    2573                            .dwcfi  save_reg_to_mem, 14, -4
    2574                            .dwcfi  save_reg_to_mem, 3, -8
    2575                            .dwcfi  save_reg_to_mem, 2, -12
    2576                            .dwcfi  save_reg_to_mem, 1, -16
    2577                    $C$DW$174       .dwtag  DW_TAG_variable, DW_AT_name("pxEventList")
    2578                            .dwattr $C$DW$174, DW_AT_TI_symbol_name("pxEventList")
    2579                            .dwattr $C$DW$174, DW_AT_type(*$C$DW$T$140)
    2580                            .dwattr $C$DW$174, DW_AT_location[DW_OP_breg13 0]
    2581                    $C$DW$175       .dwtag  DW_TAG_variable, DW_AT_name("pxUnblockedTCB")
    2582                            .dwattr $C$DW$175, DW_AT_TI_symbol_name("pxUnblockedTCB")
    2583                            .dwattr $C$DW$175, DW_AT_type(*$C$DW$T$100)
    2584                            .dwattr $C$DW$175, DW_AT_location[DW_OP_breg13 4]
    2585                    $C$DW$176       .dwtag  DW_TAG_variable, DW_AT_name("xReturn")
    2586                            .dwattr $C$DW$176, DW_AT_TI_symbol_name("xReturn")
    2587                            .dwattr $C$DW$176, DW_AT_type(*$C$DW$T$56)
    2588                            .dwattr $C$DW$176, DW_AT_location[DW_OP_breg13 8]
    2589 00000532 9000              STR       A1, [SP, #0]          ; [DPU_3_PIPE] |2342|  ; [ORIG 16-BIT INS]
    2590                            .dwpsn  file "../Source/tasks.c",line 2359,column 2,is_stmt,isa 1
    2591 00000534 9800              LDR       A1, [SP, #0]          ; [DPU_3_PIPE] |2359|  ; [ORIG 16-BIT INS]
    2592 00000536 68C0              LDR       A1, [A1, #12]         ; [DPU_3_PIPE] |2359|  ; [ORIG 16-BIT INS]
    2593 00000538 68C0              LDR       A1, [A1, #12]         ; [DPU_3_PIPE] |2359|  ; [ORIG 16-BIT INS]
    2594 0000053a 9001              STR       A1, [SP, #4]          ; [DPU_3_PIPE] |2359|  ; [ORIG 16-BIT INS]
    2595                            .dwpsn  file "../Source/tasks.c",line 2361,column 2,is_stmt,isa 1
    2596 0000053c 9801              LDR       A1, [SP, #4]          ; [DPU_3_PIPE] |2361|  ; [ORIG 16-BIT INS]
    2597 0000053e 3018              ADDS      A1, A1, #24           ; [DPU_3_PIPE] |2361|  ; [ORIG 16-BIT INS]
    2598                    $C$DW$177       .dwtag  DW_TAG_TI_branch
    2599                            .dwattr $C$DW$177, DW_AT_low_pc(0x00)
    2600                            .dwattr $C$DW$177, DW_AT_name("uxListRemove")
    2601                            .dwattr $C$DW$177, DW_AT_TI_call
    2602 00000540 FFFEF7FF!         BL        uxListRemove          ; [DPU_3_PIPE] |2361|  ; [KEEP 32-BIT INS]
    2603                            ; CALL OCCURS {uxListRemove }    ; [] |2361| 
    2604                            .dwpsn  file "../Source/tasks.c",line 2363,column 2,is_stmt,isa 1
    2605 00000544 489B              LDR       A1, $C$CON23          ; [DPU_3_PIPE] |2363|  ; [ORIG 16-BIT INS]
    2606 00000546 6800              LDR       A1, [A1, #0]          ; [DPU_3_PIPE] |2363|  ; [ORIG 16-BIT INS]
    2607 00000548 B9C8              CBNZ      A1, ||$C$L44||        ; []  ; [ORIG 16-BIT INS]
    2608                            ; BRANCHCC OCCURS {||$C$L44||}   ; [] |2363| 
    2609                    ;* --------------------------------------------------------------------------*
    2610                            .dwpsn  file "../Source/tasks.c",line 2365,column 3,is_stmt,isa 1
    2611 0000054a 9801              LDR       A1, [SP, #4]          ; [DPU_3_PIPE] |2365|  ; [ORIG 16-BIT INS]
    2612 0000054c 1D00              ADDS      A1, A1, #4            ; [DPU_3_PIPE] |2365|  ; [ORIG 16-BIT INS]
    2613                    $C$DW$178       .dwtag  DW_TAG_TI_branch
    2614                            .dwattr $C$DW$178, DW_AT_low_pc(0x00)
    2615                            .dwattr $C$DW$178, DW_AT_name("uxListRemove")
    2616                            .dwattr $C$DW$178, DW_AT_TI_call
    2617 0000054e FFFEF7FF!         BL        uxListRemove          ; [DPU_3_PIPE] |2365|  ; [KEEP 32-BIT INS]
    2618                            ; CALL OCCURS {uxListRemove }    ; [] |2365| 
    2619                            .dwpsn  file "../Source/tasks.c",line 2366,column 3,is_stmt,isa 1
    2620 00000552 4840              LDR       A1, $C$CON19          ; [DPU_3_PIPE] |2366|  ; [ORIG 16-BIT INS]
    2621 00000554 9901              LDR       A2, [SP, #4]          ; [DPU_3_PIPE] |2366|  ; [ORIG 16-BIT INS]
    2622 00000556 6800              LDR       A1, [A1, #0]          ; [DPU_3_PIPE] |2366|  ; [ORIG 16-BIT INS]
    2623 00000558 6AC9              LDR       A2, [A2, #44]         ; [DPU_3_PIPE] |2366|  ; [ORIG 16-BIT INS]
    2624 0000055a 4288              CMP       A1, A2                ; [DPU_3_PIPE] |2366|  ; [ORIG 16-BIT INS]
    2625 0000055c D203              BCS       ||$C$L43||            ; [DPU_3_PIPE] |2366|  ; [ORIG 16-BIT INS]
    2626                            ; BRANCHCC OCCURS {||$C$L43||}   ; [] |2366| 
    2627                    ;* --------------------------------------------------------------------------*
TI ARM Assembler PC v5.1.7 Tue Sep 16 08:38:42 2014

Tools Copyright (c) 1996-2014 Texas Instruments Incorporated
tasks.asm                                                            PAGE   49

    2628 0000055e 9801              LDR       A1, [SP, #4]          ; [DPU_3_PIPE] |2366|  ; [ORIG 16-BIT INS]
    2629 00000560 493C              LDR       A2, $C$CON19          ; [DPU_3_PIPE] |2366|  ; [ORIG 16-BIT INS]
    2630 00000562 6AC0              LDR       A1, [A1, #44]         ; [DPU_3_PIPE] |2366|  ; [ORIG 16-BIT INS]
    2631 00000564 6008              STR       A1, [A2, #0]          ; [DPU_3_PIPE] |2366|  ; [ORIG 16-BIT INS]
    2632                    ;* --------------------------------------------------------------------------*
    2633 00000566           ||$C$L43||:    
    2634 00000566 9801              LDR       A1, [SP, #4]          ; [DPU_3_PIPE] |2366|  ; [ORIG 16-BIT INS]
    2635 00000568 6AC3              LDR       A4, [A1, #44]         ; [DPU_3_PIPE] |2366|  ; [ORIG 16-BIT INS]
    2636 0000056a 9901              LDR       A2, [SP, #4]          ; [DPU_3_PIPE] |2366|  ; [ORIG 16-BIT INS]
    2637 0000056c 4855              LDR       A1, $C$CON20          ; [DPU_3_PIPE] |2366|  ; [ORIG 16-BIT INS]
    2638 0000056e 009A              LSLS      A3, A4, #2            ; [DPU_3_PIPE] |2366|  ; [ORIG 16-BIT INS]
    2639 00000570 1D09              ADDS      A2, A2, #4            ; [DPU_3_PIPE] |2366|  ; [ORIG 16-BIT INS]
    2640 00000572 1203EB02          ADD       A3, A3, A4, LSL #4    ; [DPU_3_PIPE] |2366|  ; [KEEP 32-BIT INS]
    2641 00000576 1880              ADDS      A1, A1, A3            ; [DPU_3_PIPE] |2366|  ; [ORIG 16-BIT INS]
    2642                    $C$DW$179       .dwtag  DW_TAG_TI_branch
    2643                            .dwattr $C$DW$179, DW_AT_low_pc(0x00)
    2644                            .dwattr $C$DW$179, DW_AT_name("vListInsertEnd")
    2645                            .dwattr $C$DW$179, DW_AT_TI_call
    2646 00000578 FFFEF7FF!         BL        vListInsertEnd        ; [DPU_3_PIPE] |2366|  ; [KEEP 32-BIT INS]
    2647                            ; CALL OCCURS {vListInsertEnd }  ; [] |2366| 
    2648                            .dwpsn  file "../Source/tasks.c",line 2367,column 2,is_stmt,isa 1
    2649 0000057c E004              B         ||$C$L45||            ; [DPU_3_PIPE] |2367|  ; [ORIG 16-BIT INS]
    2650                            ; BRANCH OCCURS {||$C$L45||}     ; [] |2367| 
    2651                    ;* --------------------------------------------------------------------------*
    2652 0000057e           ||$C$L44||:    
    2653                            .dwpsn  file "../Source/tasks.c",line 2372,column 3,is_stmt,isa 1
    2654 0000057e 9901              LDR       A2, [SP, #4]          ; [DPU_3_PIPE] |2372|  ; [ORIG 16-BIT INS]
    2655 00000580 489F              LDR       A1, $C$CON24          ; [DPU_3_PIPE] |2372|  ; [ORIG 16-BIT INS]
    2656 00000582 3118              ADDS      A2, A2, #24           ; [DPU_3_PIPE] |2372|  ; [ORIG 16-BIT INS]
    2657                    $C$DW$180       .dwtag  DW_TAG_TI_branch
    2658                            .dwattr $C$DW$180, DW_AT_low_pc(0x00)
    2659                            .dwattr $C$DW$180, DW_AT_name("vListInsertEnd")
    2660                            .dwattr $C$DW$180, DW_AT_TI_call
    2661 00000584 FFFEF7FF!         BL        vListInsertEnd        ; [DPU_3_PIPE] |2372|  ; [KEEP 32-BIT INS]
    2662                            ; CALL OCCURS {vListInsertEnd }  ; [] |2372| 
    2663                    ;* --------------------------------------------------------------------------*
    2664 00000588           ||$C$L45||:    
    2665                            .dwpsn  file "../Source/tasks.c",line 2375,column 2,is_stmt,isa 1
    2666 00000588 4855              LDR       A1, $C$CON21          ; [DPU_3_PIPE] |2375|  ; [ORIG 16-BIT INS]
    2667 0000058a 9901              LDR       A2, [SP, #4]          ; [DPU_3_PIPE] |2375|  ; [ORIG 16-BIT INS]
    2668 0000058c 6800              LDR       A1, [A1, #0]          ; [DPU_3_PIPE] |2375|  ; [ORIG 16-BIT INS]
    2669 0000058e 6AC9              LDR       A2, [A2, #44]         ; [DPU_3_PIPE] |2375|  ; [ORIG 16-BIT INS]
    2670 00000590 6AC0              LDR       A1, [A1, #44]         ; [DPU_3_PIPE] |2375|  ; [ORIG 16-BIT INS]
    2671 00000592 4288              CMP       A1, A2                ; [DPU_3_PIPE] |2375|  ; [ORIG 16-BIT INS]
    2672 00000594 D205              BCS       ||$C$L46||            ; [DPU_3_PIPE] |2375|  ; [ORIG 16-BIT INS]
    2673                            ; BRANCHCC OCCURS {||$C$L46||}   ; [] |2375| 
    2674                    ;* --------------------------------------------------------------------------*
    2675                            .dwpsn  file "../Source/tasks.c",line 2380,column 3,is_stmt,isa 1
    2676 00000596 2001              MOVS      A1, #1                ; [DPU_3_PIPE] |2380|  ; [ORIG 16-BIT INS]
    2677 00000598 9002              STR       A1, [SP, #8]          ; [DPU_3_PIPE] |2380|  ; [ORIG 16-BIT INS]
    2678                            .dwpsn  file "../Source/tasks.c",line 2384,column 3,is_stmt,isa 1
    2679 0000059a 49AA              LDR       A2, $C$CON25          ; [DPU_3_PIPE] |2384|  ; [ORIG 16-BIT INS]
    2680 0000059c 2001              MOVS      A1, #1                ; [DPU_3_PIPE] |2384|  ; [ORIG 16-BIT INS]
    2681 0000059e 6008              STR       A1, [A2, #0]          ; [DPU_3_PIPE] |2384|  ; [ORIG 16-BIT INS]
    2682                            .dwpsn  file "../Source/tasks.c",line 2385,column 2,is_stmt,isa 1
TI ARM Assembler PC v5.1.7 Tue Sep 16 08:38:42 2014

Tools Copyright (c) 1996-2014 Texas Instruments Incorporated
tasks.asm                                                            PAGE   50

    2683 000005a0 E001              B         ||$C$L47||            ; [DPU_3_PIPE] |2385|  ; [ORIG 16-BIT INS]
    2684                            ; BRANCH OCCURS {||$C$L47||}     ; [] |2385| 
    2685                    ;* --------------------------------------------------------------------------*
    2686 000005a2           ||$C$L46||:    
    2687                            .dwpsn  file "../Source/tasks.c",line 2388,column 3,is_stmt,isa 1
    2688 000005a2 2000              MOVS      A1, #0                ; [DPU_3_PIPE] |2388|  ; [ORIG 16-BIT INS]
    2689 000005a4 9002              STR       A1, [SP, #8]          ; [DPU_3_PIPE] |2388|  ; [ORIG 16-BIT INS]
    2690                    ;* --------------------------------------------------------------------------*
    2691 000005a6           ||$C$L47||:    
    2692                            .dwpsn  file "../Source/tasks.c",line 2391,column 2,is_stmt,isa 1
    2693 000005a6 9802              LDR       A1, [SP, #8]          ; [DPU_3_PIPE] |2391|  ; [ORIG 16-BIT INS]
    2694                            .dwpsn  file "../Source/tasks.c",line 2392,column 1,is_stmt,isa 1
    2695                    $C$DW$181       .dwtag  DW_TAG_TI_branch
    2696                            .dwattr $C$DW$181, DW_AT_low_pc(0x00)
    2697                            .dwattr $C$DW$181, DW_AT_TI_return
    2698 000005a8 BD0E              POP       {A2, A3, A4, PC}      ; [DPU_3_PIPE]  ; [ORIG 16-BIT INS]
    2699                            .dwcfi  cfa_offset, 0
    2700                            ; BRANCH OCCURS                  ; [] 
    2701                            .dwattr $C$DW$172, DW_AT_TI_end_file("../Source/tasks.c")
    2702                            .dwattr $C$DW$172, DW_AT_TI_end_line(0x958)
    2703                            .dwattr $C$DW$172, DW_AT_TI_end_column(0x01)
    2704                            .dwendentry
    2705                            .dwendtag $C$DW$172
    2706                    
    2707                    ;******************************************************************************
    2708                    ;* CONSTANT TABLE                                                             *
    2709                    ;******************************************************************************
    2710 000005aa                   .sect   ".text"
    2711                            .align  4
    2712 000005aa 000046C0! ||$C$CON14||:   .bits   uxCurrentNumberOfTasks,32
         000005ae 00000000 
    2713                            .align  4
    2714 000005ae 00000000! ||$C$CON15||:   .bits   pxDelayedTaskList,32
         000005b2 00000000 
    2715                            .align  4
    2716 000005b2 00000000! ||$C$CON16||:   .bits   pxOverflowDelayedTaskList,32
         000005b6 00000000 
    2717 000005b8                   .sect   ".text"
    2718                            .clink
    2719                            .thumbfunc xTaskRemoveFromUnorderedEventList
    2720 000005b8                   .thumb
    2721                            .global xTaskRemoveFromUnorderedEventList
    2722                    
    2723                    $C$DW$182       .dwtag  DW_TAG_subprogram, DW_AT_name("xTaskRemoveFromUnorderedEventList")
    2724                            .dwattr $C$DW$182, DW_AT_low_pc(xTaskRemoveFromUnorderedEventList)
    2725                            .dwattr $C$DW$182, DW_AT_high_pc(0x00)
    2726                            .dwattr $C$DW$182, DW_AT_TI_symbol_name("xTaskRemoveFromUnorderedEventList")
    2727                            .dwattr $C$DW$182, DW_AT_external
    2728                            .dwattr $C$DW$182, DW_AT_type(*$C$DW$T$56)
    2729                            .dwattr $C$DW$182, DW_AT_TI_begin_file("../Source/tasks.c")
    2730                            .dwattr $C$DW$182, DW_AT_TI_begin_line(0x95b)
    2731                            .dwattr $C$DW$182, DW_AT_TI_begin_column(0x0c)
    2732                            .dwattr $C$DW$182, DW_AT_decl_file("../Source/tasks.c")
    2733                            .dwattr $C$DW$182, DW_AT_decl_line(0x95b)
    2734                            .dwattr $C$DW$182, DW_AT_decl_column(0x0c)
TI ARM Assembler PC v5.1.7 Tue Sep 16 08:38:42 2014

Tools Copyright (c) 1996-2014 Texas Instruments Incorporated
tasks.asm                                                            PAGE   51

    2735                            .dwattr $C$DW$182, DW_AT_TI_max_frame_size(0x18)
    2736                            .dwpsn  file "../Source/tasks.c",line 2396,column 1,is_stmt,address xTaskRemoveFromUnorderedEv
    2737                    
    2738                            .dwfde $C$DW$CIE, xTaskRemoveFromUnorderedEventList
    2739                    $C$DW$183       .dwtag  DW_TAG_formal_parameter, DW_AT_name("pxEventListItem")
    2740                            .dwattr $C$DW$183, DW_AT_TI_symbol_name("pxEventListItem")
    2741                            .dwattr $C$DW$183, DW_AT_type(*$C$DW$T$33)
    2742                            .dwattr $C$DW$183, DW_AT_location[DW_OP_reg0]
    2743                    $C$DW$184       .dwtag  DW_TAG_formal_parameter, DW_AT_name("xItemValue")
    2744                            .dwattr $C$DW$184, DW_AT_TI_symbol_name("xItemValue")
    2745                            .dwattr $C$DW$184, DW_AT_type(*$C$DW$T$87)
    2746                            .dwattr $C$DW$184, DW_AT_location[DW_OP_reg1]
    2747                    
    2748                    ;*****************************************************************************
    2749                    ;* FUNCTION NAME: xTaskRemoveFromUnorderedEventList                          *
    2750                    ;*                                                                           *
    2751                    ;*   Regs Modified     : A1,A2,A3,A4,V9,SP,LR,SR,D0,D0_hi,D1,D1_hi,D2,D2_hi, *
    2752                    ;*                           D3,D3_hi,D4,D4_hi,D5,D5_hi,D6,D6_hi,D7,D7_hi,   *
    2753                    ;*                           FPEXC,FPSCR                                     *
    2754                    ;*   Regs Used         : A1,A2,A3,A4,V9,SP,LR,SR,D0,D0_hi,D1,D1_hi,D2,D2_hi, *
    2755                    ;*                           D3,D3_hi,D4,D4_hi,D5,D5_hi,D6,D6_hi,D7,D7_hi,   *
    2756                    ;*                           FPEXC,FPSCR                                     *
    2757                    ;*   Local Frame Size  : 0 Args + 16 Auto + 4 Save = 20 byte                 *
    2758                    ;*****************************************************************************
    2759 000005b8           xTaskRemoveFromUnorderedEventList:
    2760                    ;* --------------------------------------------------------------------------*
    2761                            .dwcfi  cfa_offset, 0
    2762 000005b8 B500              PUSH      {LR}                  ; [DPU_3_PIPE]  ; [ORIG 16-BIT INS]
    2763                            .dwcfi  cfa_offset, 4
    2764                            .dwcfi  save_reg_to_mem, 14, -4
    2765 000005ba 0D14F1AD          SUB       SP, SP, #20           ; [DPU_3_PIPE]  ; [KEEP 32-BIT INS]
    2766                            .dwcfi  cfa_offset, 24
    2767                    $C$DW$185       .dwtag  DW_TAG_variable, DW_AT_name("pxEventListItem")
    2768                            .dwattr $C$DW$185, DW_AT_TI_symbol_name("pxEventListItem")
    2769                            .dwattr $C$DW$185, DW_AT_type(*$C$DW$T$33)
    2770                            .dwattr $C$DW$185, DW_AT_location[DW_OP_breg13 0]
    2771                    $C$DW$186       .dwtag  DW_TAG_variable, DW_AT_name("xItemValue")
    2772                            .dwattr $C$DW$186, DW_AT_TI_symbol_name("xItemValue")
    2773                            .dwattr $C$DW$186, DW_AT_type(*$C$DW$T$87)
    2774                            .dwattr $C$DW$186, DW_AT_location[DW_OP_breg13 4]
    2775                    $C$DW$187       .dwtag  DW_TAG_variable, DW_AT_name("pxUnblockedTCB")
    2776                            .dwattr $C$DW$187, DW_AT_TI_symbol_name("pxUnblockedTCB")
    2777                            .dwattr $C$DW$187, DW_AT_type(*$C$DW$T$100)
    2778                            .dwattr $C$DW$187, DW_AT_location[DW_OP_breg13 8]
    2779                    $C$DW$188       .dwtag  DW_TAG_variable, DW_AT_name("xReturn")
    2780                            .dwattr $C$DW$188, DW_AT_TI_symbol_name("xReturn")
    2781                            .dwattr $C$DW$188, DW_AT_type(*$C$DW$T$56)
    2782                            .dwattr $C$DW$188, DW_AT_location[DW_OP_breg13 12]
    2783 000005be 9101              STR       A2, [SP, #4]          ; [DPU_3_PIPE] |2396|  ; [ORIG 16-BIT INS]
    2784 000005c0 9000              STR       A1, [SP, #0]          ; [DPU_3_PIPE] |2396|  ; [ORIG 16-BIT INS]
    2785                            .dwpsn  file "../Source/tasks.c",line 2405,column 2,is_stmt,isa 1
    2786 000005c2 9801              LDR       A1, [SP, #4]          ; [DPU_3_PIPE] |2405|  ; [ORIG 16-BIT INS]
    2787 000005c4 9900              LDR       A2, [SP, #0]          ; [DPU_3_PIPE] |2405|  ; [ORIG 16-BIT INS]
    2788 000005c6 4000F040          ORR       A1, A1, #-2147483648  ; [DPU_3_PIPE] |2405|  ; [KEEP 32-BIT INS]
    2789 000005ca 6008              STR       A1, [A2, #0]          ; [DPU_3_PIPE] |2405|  ; [ORIG 16-BIT INS]
TI ARM Assembler PC v5.1.7 Tue Sep 16 08:38:42 2014

Tools Copyright (c) 1996-2014 Texas Instruments Incorporated
tasks.asm                                                            PAGE   52

    2790                            .dwpsn  file "../Source/tasks.c",line 2409,column 2,is_stmt,isa 1
    2791 000005cc 9800              LDR       A1, [SP, #0]          ; [DPU_3_PIPE] |2409|  ; [ORIG 16-BIT INS]
    2792 000005ce 68C0              LDR       A1, [A1, #12]         ; [DPU_3_PIPE] |2409|  ; [ORIG 16-BIT INS]
    2793 000005d0 9002              STR       A1, [SP, #8]          ; [DPU_3_PIPE] |2409|  ; [ORIG 16-BIT INS]
    2794                            .dwpsn  file "../Source/tasks.c",line 2411,column 2,is_stmt,isa 1
    2795 000005d2 9800              LDR       A1, [SP, #0]          ; [DPU_3_PIPE] |2411|  ; [ORIG 16-BIT INS]
    2796                    $C$DW$189       .dwtag  DW_TAG_TI_branch
    2797                            .dwattr $C$DW$189, DW_AT_low_pc(0x00)
    2798                            .dwattr $C$DW$189, DW_AT_name("uxListRemove")
    2799                            .dwattr $C$DW$189, DW_AT_TI_call
    2800 000005d4 FFFEF7FF!         BL        uxListRemove          ; [DPU_3_PIPE] |2411|  ; [KEEP 32-BIT INS]
    2801                            ; CALL OCCURS {uxListRemove }    ; [] |2411| 
    2802                            .dwpsn  file "../Source/tasks.c",line 2416,column 2,is_stmt,isa 1
    2803 000005d8 9802              LDR       A1, [SP, #8]          ; [DPU_3_PIPE] |2416|  ; [ORIG 16-BIT INS]
    2804 000005da 1D00              ADDS      A1, A1, #4            ; [DPU_3_PIPE] |2416|  ; [ORIG 16-BIT INS]
    2805                    $C$DW$190       .dwtag  DW_TAG_TI_branch
    2806                            .dwattr $C$DW$190, DW_AT_low_pc(0x00)
    2807                            .dwattr $C$DW$190, DW_AT_name("uxListRemove")
    2808                            .dwattr $C$DW$190, DW_AT_TI_call
    2809 000005dc FFFEF7FF!         BL        uxListRemove          ; [DPU_3_PIPE] |2416|  ; [KEEP 32-BIT INS]
    2810                            ; CALL OCCURS {uxListRemove }    ; [] |2416| 
    2811                            .dwpsn  file "../Source/tasks.c",line 2417,column 2,is_stmt,isa 1
    2812 000005e0 481C              LDR       A1, $C$CON19          ; [DPU_3_PIPE] |2417|  ; [ORIG 16-BIT INS]
    2813 000005e2 9902              LDR       A2, [SP, #8]          ; [DPU_3_PIPE] |2417|  ; [ORIG 16-BIT INS]
    2814 000005e4 6800              LDR       A1, [A1, #0]          ; [DPU_3_PIPE] |2417|  ; [ORIG 16-BIT INS]
    2815 000005e6 6AC9              LDR       A2, [A2, #44]         ; [DPU_3_PIPE] |2417|  ; [ORIG 16-BIT INS]
    2816 000005e8 4288              CMP       A1, A2                ; [DPU_3_PIPE] |2417|  ; [ORIG 16-BIT INS]
    2817 000005ea D203              BCS       ||$C$L48||            ; [DPU_3_PIPE] |2417|  ; [ORIG 16-BIT INS]
    2818                            ; BRANCHCC OCCURS {||$C$L48||}   ; [] |2417| 
    2819                    ;* --------------------------------------------------------------------------*
    2820 000005ec 9802              LDR       A1, [SP, #8]          ; [DPU_3_PIPE] |2417|  ; [ORIG 16-BIT INS]
    2821 000005ee 4919              LDR       A2, $C$CON19          ; [DPU_3_PIPE] |2417|  ; [ORIG 16-BIT INS]
    2822 000005f0 6AC0              LDR       A1, [A1, #44]         ; [DPU_3_PIPE] |2417|  ; [ORIG 16-BIT INS]
    2823 000005f2 6008              STR       A1, [A2, #0]          ; [DPU_3_PIPE] |2417|  ; [ORIG 16-BIT INS]
    2824                    ;* --------------------------------------------------------------------------*
    2825 000005f4           ||$C$L48||:    
    2826 000005f4 9802              LDR       A1, [SP, #8]          ; [DPU_3_PIPE] |2417|  ; [ORIG 16-BIT INS]
    2827 000005f6 6AC3              LDR       A4, [A1, #44]         ; [DPU_3_PIPE] |2417|  ; [ORIG 16-BIT INS]
    2828 000005f8 9902              LDR       A2, [SP, #8]          ; [DPU_3_PIPE] |2417|  ; [ORIG 16-BIT INS]
    2829 000005fa 4832              LDR       A1, $C$CON20          ; [DPU_3_PIPE] |2417|  ; [ORIG 16-BIT INS]
    2830 000005fc 009A              LSLS      A3, A4, #2            ; [DPU_3_PIPE] |2417|  ; [ORIG 16-BIT INS]
    2831 000005fe 1D09              ADDS      A2, A2, #4            ; [DPU_3_PIPE] |2417|  ; [ORIG 16-BIT INS]
    2832 00000600 1203EB02          ADD       A3, A3, A4, LSL #4    ; [DPU_3_PIPE] |2417|  ; [KEEP 32-BIT INS]
    2833 00000604 1880              ADDS      A1, A1, A3            ; [DPU_3_PIPE] |2417|  ; [ORIG 16-BIT INS]
    2834                    $C$DW$191       .dwtag  DW_TAG_TI_branch
    2835                            .dwattr $C$DW$191, DW_AT_low_pc(0x00)
    2836                            .dwattr $C$DW$191, DW_AT_name("vListInsertEnd")
    2837                            .dwattr $C$DW$191, DW_AT_TI_call
    2838 00000606 FFFEF7FF!         BL        vListInsertEnd        ; [DPU_3_PIPE] |2417|  ; [KEEP 32-BIT INS]
    2839                            ; CALL OCCURS {vListInsertEnd }  ; [] |2417| 
    2840                            .dwpsn  file "../Source/tasks.c",line 2419,column 2,is_stmt,isa 1
    2841 0000060a 4835              LDR       A1, $C$CON21          ; [DPU_3_PIPE] |2419|  ; [ORIG 16-BIT INS]
    2842 0000060c 9902              LDR       A2, [SP, #8]          ; [DPU_3_PIPE] |2419|  ; [ORIG 16-BIT INS]
    2843 0000060e 6800              LDR       A1, [A1, #0]          ; [DPU_3_PIPE] |2419|  ; [ORIG 16-BIT INS]
    2844 00000610 6AC9              LDR       A2, [A2, #44]         ; [DPU_3_PIPE] |2419|  ; [ORIG 16-BIT INS]
TI ARM Assembler PC v5.1.7 Tue Sep 16 08:38:42 2014

Tools Copyright (c) 1996-2014 Texas Instruments Incorporated
tasks.asm                                                            PAGE   53

    2845 00000612 6AC0              LDR       A1, [A1, #44]         ; [DPU_3_PIPE] |2419|  ; [ORIG 16-BIT INS]
    2846 00000614 4288              CMP       A1, A2                ; [DPU_3_PIPE] |2419|  ; [ORIG 16-BIT INS]
    2847 00000616 D205              BCS       ||$C$L49||            ; [DPU_3_PIPE] |2419|  ; [ORIG 16-BIT INS]
    2848                            ; BRANCHCC OCCURS {||$C$L49||}   ; [] |2419| 
    2849                    ;* --------------------------------------------------------------------------*
    2850                            .dwpsn  file "../Source/tasks.c",line 2425,column 3,is_stmt,isa 1
    2851 00000618 2001              MOVS      A1, #1                ; [DPU_3_PIPE] |2425|  ; [ORIG 16-BIT INS]
    2852 0000061a 9003              STR       A1, [SP, #12]         ; [DPU_3_PIPE] |2425|  ; [ORIG 16-BIT INS]
    2853                            .dwpsn  file "../Source/tasks.c",line 2429,column 3,is_stmt,isa 1
    2854 0000061c 4989              LDR       A2, $C$CON25          ; [DPU_3_PIPE] |2429|  ; [ORIG 16-BIT INS]
    2855 0000061e 2001              MOVS      A1, #1                ; [DPU_3_PIPE] |2429|  ; [ORIG 16-BIT INS]
    2856 00000620 6008              STR       A1, [A2, #0]          ; [DPU_3_PIPE] |2429|  ; [ORIG 16-BIT INS]
    2857                            .dwpsn  file "../Source/tasks.c",line 2430,column 2,is_stmt,isa 1
    2858 00000622 E001              B         ||$C$L50||            ; [DPU_3_PIPE] |2430|  ; [ORIG 16-BIT INS]
    2859                            ; BRANCH OCCURS {||$C$L50||}     ; [] |2430| 
    2860                    ;* --------------------------------------------------------------------------*
    2861 00000624           ||$C$L49||:    
    2862                            .dwpsn  file "../Source/tasks.c",line 2433,column 3,is_stmt,isa 1
    2863 00000624 2000              MOVS      A1, #0                ; [DPU_3_PIPE] |2433|  ; [ORIG 16-BIT INS]
    2864 00000626 9003              STR       A1, [SP, #12]         ; [DPU_3_PIPE] |2433|  ; [ORIG 16-BIT INS]
    2865                    ;* --------------------------------------------------------------------------*
    2866 00000628           ||$C$L50||:    
    2867                            .dwpsn  file "../Source/tasks.c",line 2436,column 2,is_stmt,isa 1
    2868 00000628 9803              LDR       A1, [SP, #12]         ; [DPU_3_PIPE] |2436|  ; [ORIG 16-BIT INS]
    2869                            .dwpsn  file "../Source/tasks.c",line 2437,column 1,is_stmt,isa 1
    2870 0000062a B005              ADD       SP, SP, #20           ; [DPU_3_PIPE]  ; [ORIG 16-BIT INS]
    2871                            .dwcfi  cfa_offset, 4
    2872                    $C$DW$192       .dwtag  DW_TAG_TI_branch
    2873                            .dwattr $C$DW$192, DW_AT_low_pc(0x00)
    2874                            .dwattr $C$DW$192, DW_AT_TI_return
    2875 0000062c BD00              POP       {PC}                  ; [DPU_3_PIPE]  ; [ORIG 16-BIT INS]
    2876                            .dwcfi  cfa_offset, 0
    2877                            ; BRANCH OCCURS                  ; [] 
    2878                            .dwattr $C$DW$182, DW_AT_TI_end_file("../Source/tasks.c")
    2879                            .dwattr $C$DW$182, DW_AT_TI_end_line(0x985)
    2880                            .dwattr $C$DW$182, DW_AT_TI_end_column(0x01)
    2881                            .dwendentry
    2882                            .dwendtag $C$DW$182
    2883                    
    2884                    ;******************************************************************************
    2885                    ;* CONSTANT TABLE                                                             *
    2886                    ;******************************************************************************
    2887 0000062e                   .sect   ".text"
    2888                            .align  4
    2889 0000062e 000046C0! ||$C$CON17||:   .bits   xNumOfOverflows,32
         00000632 00000000 
    2890                            .align  4
    2891 00000632 00000000! ||$C$CON18||:   .bits   xNextTaskUnblockTime,32
         00000636 00000000 
    2892 00000638                   .sect   ".text"
    2893                            .clink
    2894                            .thumbfunc vTaskSetTimeOutState
    2895 00000638                   .thumb
    2896                            .global vTaskSetTimeOutState
    2897                    
TI ARM Assembler PC v5.1.7 Tue Sep 16 08:38:42 2014

Tools Copyright (c) 1996-2014 Texas Instruments Incorporated
tasks.asm                                                            PAGE   54

    2898                    $C$DW$193       .dwtag  DW_TAG_subprogram, DW_AT_name("vTaskSetTimeOutState")
    2899                            .dwattr $C$DW$193, DW_AT_low_pc(vTaskSetTimeOutState)
    2900                            .dwattr $C$DW$193, DW_AT_high_pc(0x00)
    2901                            .dwattr $C$DW$193, DW_AT_TI_symbol_name("vTaskSetTimeOutState")
    2902                            .dwattr $C$DW$193, DW_AT_external
    2903                            .dwattr $C$DW$193, DW_AT_TI_begin_file("../Source/tasks.c")
    2904                            .dwattr $C$DW$193, DW_AT_TI_begin_line(0x988)
    2905                            .dwattr $C$DW$193, DW_AT_TI_begin_column(0x06)
    2906                            .dwattr $C$DW$193, DW_AT_decl_file("../Source/tasks.c")
    2907                            .dwattr $C$DW$193, DW_AT_decl_line(0x988)
    2908                            .dwattr $C$DW$193, DW_AT_decl_column(0x06)
    2909                            .dwattr $C$DW$193, DW_AT_TI_max_frame_size(0x08)
    2910                            .dwpsn  file "../Source/tasks.c",line 2441,column 1,is_stmt,address vTaskSetTimeOutState,isa 1
    2911                    
    2912                            .dwfde $C$DW$CIE, vTaskSetTimeOutState
    2913                    $C$DW$194       .dwtag  DW_TAG_formal_parameter, DW_AT_name("pxTimeOut")
    2914                            .dwattr $C$DW$194, DW_AT_TI_symbol_name("pxTimeOut")
    2915                            .dwattr $C$DW$194, DW_AT_type(*$C$DW$T$95)
    2916                            .dwattr $C$DW$194, DW_AT_location[DW_OP_reg0]
    2917                    
    2918                    ;*****************************************************************************
    2919                    ;* FUNCTION NAME: vTaskSetTimeOutState                                       *
    2920                    ;*                                                                           *
    2921                    ;*   Regs Modified     : A1,A2,SP                                            *
    2922                    ;*   Regs Used         : A1,A2,SP,LR                                         *
    2923                    ;*   Local Frame Size  : 0 Args + 4 Auto + 0 Save = 4 byte                   *
    2924                    ;*****************************************************************************
    2925 00000638           vTaskSetTimeOutState:
    2926                    ;* --------------------------------------------------------------------------*
    2927                            .dwcfi  cfa_offset, 0
    2928 00000638 0D08F1AD          SUB       SP, SP, #8            ; [DPU_3_PIPE]  ; [KEEP 32-BIT INS]
    2929                            .dwcfi  cfa_offset, 8
    2930                    $C$DW$195       .dwtag  DW_TAG_variable, DW_AT_name("pxTimeOut")
    2931                            .dwattr $C$DW$195, DW_AT_TI_symbol_name("pxTimeOut")
    2932                            .dwattr $C$DW$195, DW_AT_type(*$C$DW$T$95)
    2933                            .dwattr $C$DW$195, DW_AT_location[DW_OP_breg13 0]
    2934 0000063c 9000              STR       A1, [SP, #0]          ; [DPU_3_PIPE] |2441|  ; [ORIG 16-BIT INS]
    2935                            .dwpsn  file "../Source/tasks.c",line 2443,column 2,is_stmt,isa 1
    2936 0000063e 4897              LDR       A1, $C$CON26          ; [DPU_3_PIPE] |2443|  ; [ORIG 16-BIT INS]
    2937 00000640 9900              LDR       A2, [SP, #0]          ; [DPU_3_PIPE] |2443|  ; [ORIG 16-BIT INS]
    2938 00000642 6800              LDR       A1, [A1, #0]          ; [DPU_3_PIPE] |2443|  ; [ORIG 16-BIT INS]
    2939 00000644 6008              STR       A1, [A2, #0]          ; [DPU_3_PIPE] |2443|  ; [ORIG 16-BIT INS]
    2940                            .dwpsn  file "../Source/tasks.c",line 2444,column 2,is_stmt,isa 1
    2941 00000646 4847              LDR       A1, $C$CON22          ; [DPU_3_PIPE] |2444|  ; [ORIG 16-BIT INS]
    2942 00000648 9900              LDR       A2, [SP, #0]          ; [DPU_3_PIPE] |2444|  ; [ORIG 16-BIT INS]
    2943 0000064a 6800              LDR       A1, [A1, #0]          ; [DPU_3_PIPE] |2444|  ; [ORIG 16-BIT INS]
    2944 0000064c 6048              STR       A1, [A2, #4]          ; [DPU_3_PIPE] |2444|  ; [ORIG 16-BIT INS]
    2945                            .dwpsn  file "../Source/tasks.c",line 2445,column 1,is_stmt,isa 1
    2946 0000064e B002              ADD       SP, SP, #8            ; [DPU_3_PIPE]  ; [ORIG 16-BIT INS]
    2947                            .dwcfi  cfa_offset, 0
    2948                    $C$DW$196       .dwtag  DW_TAG_TI_branch
    2949                            .dwattr $C$DW$196, DW_AT_low_pc(0x00)
    2950                            .dwattr $C$DW$196, DW_AT_TI_return
    2951 00000650 4770              BX        LR                    ; [DPU_3_PIPE]  ; [ORIG 16-BIT INS]
    2952                            ; BRANCH OCCURS                  ; [] 
TI ARM Assembler PC v5.1.7 Tue Sep 16 08:38:42 2014

Tools Copyright (c) 1996-2014 Texas Instruments Incorporated
tasks.asm                                                            PAGE   55

    2953                            .dwattr $C$DW$193, DW_AT_TI_end_file("../Source/tasks.c")
    2954                            .dwattr $C$DW$193, DW_AT_TI_end_line(0x98d)
    2955                            .dwattr $C$DW$193, DW_AT_TI_end_column(0x01)
    2956                            .dwendentry
    2957                            .dwendtag $C$DW$193
    2958                    
    2959                    ;******************************************************************************
    2960                    ;* CONSTANT TABLE                                                             *
    2961                    ;******************************************************************************
    2962 00000652                   .sect   ".text"
    2963                            .align  4
    2964 00000652 000046C0! ||$C$CON19||:   .bits   uxTopReadyPriority,32
         00000656 00000000 
    2965 00000658                   .sect   ".text"
    2966                            .clink
    2967                            .thumbfunc xTaskCheckForTimeOut
    2968 00000658                   .thumb
    2969                            .global xTaskCheckForTimeOut
    2970                    
    2971                    $C$DW$197       .dwtag  DW_TAG_subprogram, DW_AT_name("xTaskCheckForTimeOut")
    2972                            .dwattr $C$DW$197, DW_AT_low_pc(xTaskCheckForTimeOut)
    2973                            .dwattr $C$DW$197, DW_AT_high_pc(0x00)
    2974                            .dwattr $C$DW$197, DW_AT_TI_symbol_name("xTaskCheckForTimeOut")
    2975                            .dwattr $C$DW$197, DW_AT_external
    2976                            .dwattr $C$DW$197, DW_AT_type(*$C$DW$T$56)
    2977                            .dwattr $C$DW$197, DW_AT_TI_begin_file("../Source/tasks.c")
    2978                            .dwattr $C$DW$197, DW_AT_TI_begin_line(0x990)
    2979                            .dwattr $C$DW$197, DW_AT_TI_begin_column(0x0c)
    2980                            .dwattr $C$DW$197, DW_AT_decl_file("../Source/tasks.c")
    2981                            .dwattr $C$DW$197, DW_AT_decl_line(0x990)
    2982                            .dwattr $C$DW$197, DW_AT_decl_column(0x0c)
    2983                            .dwattr $C$DW$197, DW_AT_TI_max_frame_size(0x18)
    2984                            .dwpsn  file "../Source/tasks.c",line 2449,column 1,is_stmt,address xTaskCheckForTimeOut,isa 1
    2985                    
    2986                            .dwfde $C$DW$CIE, xTaskCheckForTimeOut
    2987                    $C$DW$198       .dwtag  DW_TAG_formal_parameter, DW_AT_name("pxTimeOut")
    2988                            .dwattr $C$DW$198, DW_AT_TI_symbol_name("pxTimeOut")
    2989                            .dwattr $C$DW$198, DW_AT_type(*$C$DW$T$95)
    2990                            .dwattr $C$DW$198, DW_AT_location[DW_OP_reg0]
    2991                    $C$DW$199       .dwtag  DW_TAG_formal_parameter, DW_AT_name("pxTicksToWait")
    2992                            .dwattr $C$DW$199, DW_AT_TI_symbol_name("pxTicksToWait")
    2993                            .dwattr $C$DW$199, DW_AT_type(*$C$DW$T$86)
    2994                            .dwattr $C$DW$199, DW_AT_location[DW_OP_reg1]
    2995                    
    2996                    ;*****************************************************************************
    2997                    ;* FUNCTION NAME: xTaskCheckForTimeOut                                       *
    2998                    ;*                                                                           *
    2999                    ;*   Regs Modified     : A1,A2,A3,A4,V9,SP,LR,SR,D0,D0_hi,D1,D1_hi,D2,D2_hi, *
    3000                    ;*                           D3,D3_hi,D4,D4_hi,D5,D5_hi,D6,D6_hi,D7,D7_hi,   *
    3001                    ;*                           FPEXC,FPSCR                                     *
    3002                    ;*   Regs Used         : A1,A2,A3,A4,V9,SP,LR,SR,D0,D0_hi,D1,D1_hi,D2,D2_hi, *
    3003                    ;*                           D3,D3_hi,D4,D4_hi,D5,D5_hi,D6,D6_hi,D7,D7_hi,   *
    3004                    ;*                           FPEXC,FPSCR                                     *
    3005                    ;*   Local Frame Size  : 0 Args + 16 Auto + 4 Save = 20 byte                 *
    3006                    ;*****************************************************************************
TI ARM Assembler PC v5.1.7 Tue Sep 16 08:38:42 2014

Tools Copyright (c) 1996-2014 Texas Instruments Incorporated
tasks.asm                                                            PAGE   56

    3007 00000658           xTaskCheckForTimeOut:
    3008                    ;* --------------------------------------------------------------------------*
    3009                            .dwcfi  cfa_offset, 0
    3010 00000658 B500              PUSH      {LR}                  ; [DPU_3_PIPE]  ; [ORIG 16-BIT INS]
    3011                            .dwcfi  cfa_offset, 4
    3012                            .dwcfi  save_reg_to_mem, 14, -4
    3013 0000065a 0D14F1AD          SUB       SP, SP, #20           ; [DPU_3_PIPE]  ; [KEEP 32-BIT INS]
    3014                            .dwcfi  cfa_offset, 24
    3015                    $C$DW$200       .dwtag  DW_TAG_variable, DW_AT_name("pxTimeOut")
    3016                            .dwattr $C$DW$200, DW_AT_TI_symbol_name("pxTimeOut")
    3017                            .dwattr $C$DW$200, DW_AT_type(*$C$DW$T$95)
    3018                            .dwattr $C$DW$200, DW_AT_location[DW_OP_breg13 0]
    3019                    $C$DW$201       .dwtag  DW_TAG_variable, DW_AT_name("pxTicksToWait")
    3020                            .dwattr $C$DW$201, DW_AT_TI_symbol_name("pxTicksToWait")
    3021                            .dwattr $C$DW$201, DW_AT_type(*$C$DW$T$86)
    3022                            .dwattr $C$DW$201, DW_AT_location[DW_OP_breg13 4]
    3023                    $C$DW$202       .dwtag  DW_TAG_variable, DW_AT_name("xReturn")
    3024                            .dwattr $C$DW$202, DW_AT_TI_symbol_name("xReturn")
    3025                            .dwattr $C$DW$202, DW_AT_type(*$C$DW$T$56)
    3026                            .dwattr $C$DW$202, DW_AT_location[DW_OP_breg13 8]
    3027 0000065e 9101              STR       A2, [SP, #4]          ; [DPU_3_PIPE] |2449|  ; [ORIG 16-BIT INS]
    3028 00000660 9000              STR       A1, [SP, #0]          ; [DPU_3_PIPE] |2449|  ; [ORIG 16-BIT INS]
    3029                            .dwpsn  file "../Source/tasks.c",line 2455,column 2,is_stmt,isa 1
    3030                    $C$DW$203       .dwtag  DW_TAG_TI_branch
    3031                            .dwattr $C$DW$203, DW_AT_low_pc(0x00)
    3032                            .dwattr $C$DW$203, DW_AT_name("vPortEnterCritical")
    3033                            .dwattr $C$DW$203, DW_AT_TI_call
    3034 00000662 FFFEF7FF!         BL        vPortEnterCritical    ; [DPU_3_PIPE] |2455|  ; [KEEP 32-BIT INS]
    3035                            ; CALL OCCURS {vPortEnterCritical }  ; [] |2455| 
    3036                    
    3037                    $C$DW$204       .dwtag  DW_TAG_lexical_block, DW_AT_low_pc(0x00), DW_AT_high_pc(0x00)
    3038                    $C$DW$205       .dwtag  DW_TAG_variable, DW_AT_name("xConstTickCount")
    3039                            .dwattr $C$DW$205, DW_AT_TI_symbol_name("xConstTickCount")
    3040                            .dwattr $C$DW$205, DW_AT_type(*$C$DW$T$87)
    3041                            .dwattr $C$DW$205, DW_AT_location[DW_OP_breg13 12]
    3042                            .dwpsn  file "../Source/tasks.c",line 2458,column 36,is_stmt,isa 1
    3043 00000666 483F              LDR       A1, $C$CON22          ; [DPU_3_PIPE] |2458|  ; [ORIG 16-BIT INS]
    3044 00000668 6800              LDR       A1, [A1, #0]          ; [DPU_3_PIPE] |2458|  ; [ORIG 16-BIT INS]
    3045 0000066a 9003              STR       A1, [SP, #12]         ; [DPU_3_PIPE] |2458|  ; [ORIG 16-BIT INS]
    3046                            .dwpsn  file "../Source/tasks.c",line 2471,column 3,is_stmt,isa 1
    3047 0000066c 498B              LDR       A2, $C$CON26          ; [DPU_3_PIPE] |2471|  ; [ORIG 16-BIT INS]
    3048 0000066e 9800              LDR       A1, [SP, #0]          ; [DPU_3_PIPE] |2471|  ; [ORIG 16-BIT INS]
    3049 00000670 6809              LDR       A2, [A2, #0]          ; [DPU_3_PIPE] |2471|  ; [ORIG 16-BIT INS]
    3050 00000672 6800              LDR       A1, [A1, #0]          ; [DPU_3_PIPE] |2471|  ; [ORIG 16-BIT INS]
    3051 00000674 4288              CMP       A1, A2                ; [DPU_3_PIPE] |2471|  ; [ORIG 16-BIT INS]
    3052 00000676 D007              BEQ       ||$C$L51||            ; [DPU_3_PIPE] |2471|  ; [ORIG 16-BIT INS]
    3053                            ; BRANCHCC OCCURS {||$C$L51||}   ; [] |2471| 
    3054                    ;* --------------------------------------------------------------------------*
    3055 00000678 9800              LDR       A1, [SP, #0]          ; [DPU_3_PIPE] |2471|  ; [ORIG 16-BIT INS]
    3056 0000067a 9903              LDR       A2, [SP, #12]         ; [DPU_3_PIPE] |2471|  ; [ORIG 16-BIT INS]
    3057 0000067c 6840              LDR       A1, [A1, #4]          ; [DPU_3_PIPE] |2471|  ; [ORIG 16-BIT INS]
    3058 0000067e 4288              CMP       A1, A2                ; [DPU_3_PIPE] |2471|  ; [ORIG 16-BIT INS]
    3059 00000680 D802              BHI       ||$C$L51||            ; [DPU_3_PIPE] |2471|  ; [ORIG 16-BIT INS]
    3060                            ; BRANCHCC OCCURS {||$C$L51||}   ; [] |2471| 
    3061                    ;* --------------------------------------------------------------------------*
TI ARM Assembler PC v5.1.7 Tue Sep 16 08:38:42 2014

Tools Copyright (c) 1996-2014 Texas Instruments Incorporated
tasks.asm                                                            PAGE   57

    3062                            .dwpsn  file "../Source/tasks.c",line 2477,column 4,is_stmt,isa 1
    3063 00000682 2001              MOVS      A1, #1                ; [DPU_3_PIPE] |2477|  ; [ORIG 16-BIT INS]
    3064 00000684 9002              STR       A1, [SP, #8]          ; [DPU_3_PIPE] |2477|  ; [ORIG 16-BIT INS]
    3065                            .dwpsn  file "../Source/tasks.c",line 2478,column 3,is_stmt,isa 1
    3066 00000686 E017              B         ||$C$L53||            ; [DPU_3_PIPE] |2478|  ; [ORIG 16-BIT INS]
    3067                            ; BRANCH OCCURS {||$C$L53||}     ; [] |2478| 
    3068                    ;* --------------------------------------------------------------------------*
    3069 00000688           ||$C$L51||:    
    3070                            .dwpsn  file "../Source/tasks.c",line 2479,column 8,is_stmt,isa 1
    3071 00000688 9A00              LDR       A3, [SP, #0]          ; [DPU_3_PIPE] |2479|  ; [ORIG 16-BIT INS]
    3072 0000068a 9901              LDR       A2, [SP, #4]          ; [DPU_3_PIPE] |2479|  ; [ORIG 16-BIT INS]
    3073 0000068c 9803              LDR       A1, [SP, #12]         ; [DPU_3_PIPE] |2479|  ; [ORIG 16-BIT INS]
    3074 0000068e 6852              LDR       A3, [A3, #4]          ; [DPU_3_PIPE] |2479|  ; [ORIG 16-BIT INS]
    3075 00000690 6809              LDR       A2, [A2, #0]          ; [DPU_3_PIPE] |2479|  ; [ORIG 16-BIT INS]
    3076 00000692 1A80              SUBS      A1, A1, A3            ; [DPU_3_PIPE] |2479|  ; [ORIG 16-BIT INS]
    3077 00000694 4281              CMP       A2, A1                ; [DPU_3_PIPE] |2479|  ; [ORIG 16-BIT INS]
    3078 00000696 D90D              BLS       ||$C$L52||            ; [DPU_3_PIPE] |2479|  ; [ORIG 16-BIT INS]
    3079                            ; BRANCHCC OCCURS {||$C$L52||}   ; [] |2479| 
    3080                    ;* --------------------------------------------------------------------------*
    3081                            .dwpsn  file "../Source/tasks.c",line 2482,column 4,is_stmt,isa 1
    3082 00000698 9A01              LDR       A3, [SP, #4]          ; [DPU_3_PIPE] |2482|  ; [ORIG 16-BIT INS]
    3083 0000069a 9900              LDR       A2, [SP, #0]          ; [DPU_3_PIPE] |2482|  ; [ORIG 16-BIT INS]
    3084 0000069c 9B03              LDR       A4, [SP, #12]         ; [DPU_3_PIPE] |2482|  ; [ORIG 16-BIT INS]
    3085 0000069e 6810              LDR       A1, [A3, #0]          ; [DPU_3_PIPE] |2482|  ; [ORIG 16-BIT INS]
    3086 000006a0 6849              LDR       A2, [A2, #4]          ; [DPU_3_PIPE] |2482|  ; [ORIG 16-BIT INS]
    3087 000006a2 1AC0              SUBS      A1, A1, A4            ; [DPU_3_PIPE] |2482|  ; [ORIG 16-BIT INS]
    3088 000006a4 1809              ADDS      A2, A2, A1            ; [DPU_3_PIPE] |2482|  ; [ORIG 16-BIT INS]
    3089 000006a6 6011              STR       A2, [A3, #0]          ; [DPU_3_PIPE] |2482|  ; [ORIG 16-BIT INS]
    3090                            .dwpsn  file "../Source/tasks.c",line 2483,column 4,is_stmt,isa 1
    3091 000006a8 9800              LDR       A1, [SP, #0]          ; [DPU_3_PIPE] |2483|  ; [ORIG 16-BIT INS]
    3092                    $C$DW$206       .dwtag  DW_TAG_TI_branch
    3093                            .dwattr $C$DW$206, DW_AT_low_pc(0x00)
    3094                            .dwattr $C$DW$206, DW_AT_name("vTaskSetTimeOutState")
    3095                            .dwattr $C$DW$206, DW_AT_TI_call
    3096 000006aa FFC5F7FF          BL        vTaskSetTimeOutState  ; [DPU_3_PIPE] |2483|  ; [KEEP 32-BIT INS]
    3097                            ; CALL OCCURS {vTaskSetTimeOutState }  ; [] |2483| 
    3098                            .dwpsn  file "../Source/tasks.c",line 2484,column 4,is_stmt,isa 1
    3099 000006ae 2000              MOVS      A1, #0                ; [DPU_3_PIPE] |2484|  ; [ORIG 16-BIT INS]
    3100 000006b0 9002              STR       A1, [SP, #8]          ; [DPU_3_PIPE] |2484|  ; [ORIG 16-BIT INS]
    3101                            .dwpsn  file "../Source/tasks.c",line 2485,column 3,is_stmt,isa 1
    3102 000006b2 E001              B         ||$C$L53||            ; [DPU_3_PIPE] |2485|  ; [ORIG 16-BIT INS]
    3103                            ; BRANCH OCCURS {||$C$L53||}     ; [] |2485| 
    3104                    ;* --------------------------------------------------------------------------*
    3105 000006b4           ||$C$L52||:    
    3106                            .dwpsn  file "../Source/tasks.c",line 2488,column 4,is_stmt,isa 1
    3107 000006b4 2001              MOVS      A1, #1                ; [DPU_3_PIPE] |2488|  ; [ORIG 16-BIT INS]
    3108 000006b6 9002              STR       A1, [SP, #8]          ; [DPU_3_PIPE] |2488|  ; [ORIG 16-BIT INS]
    3109                    ;* --------------------------------------------------------------------------*
    3110                    ||$C$L53||:    
    3111                            .dwendtag $C$DW$204
    3112                    
    3113                            .dwpsn  file "../Source/tasks.c",line 2491,column 2,is_stmt,isa 1
    3114                    $C$DW$207       .dwtag  DW_TAG_TI_branch
    3115                            .dwattr $C$DW$207, DW_AT_low_pc(0x00)
    3116                            .dwattr $C$DW$207, DW_AT_name("vPortExitCritical")
TI ARM Assembler PC v5.1.7 Tue Sep 16 08:38:42 2014

Tools Copyright (c) 1996-2014 Texas Instruments Incorporated
tasks.asm                                                            PAGE   58

    3117                            .dwattr $C$DW$207, DW_AT_TI_call
    3118 000006b8 FFFEF7FF!         BL        vPortExitCritical     ; [DPU_3_PIPE] |2491|  ; [KEEP 32-BIT INS]
    3119                            ; CALL OCCURS {vPortExitCritical }  ; [] |2491| 
    3120                            .dwpsn  file "../Source/tasks.c",line 2493,column 2,is_stmt,isa 1
    3121 000006bc 9802              LDR       A1, [SP, #8]          ; [DPU_3_PIPE] |2493|  ; [ORIG 16-BIT INS]
    3122                            .dwpsn  file "../Source/tasks.c",line 2494,column 1,is_stmt,isa 1
    3123 000006be B005              ADD       SP, SP, #20           ; [DPU_3_PIPE]  ; [ORIG 16-BIT INS]
    3124                            .dwcfi  cfa_offset, 4
    3125                    $C$DW$208       .dwtag  DW_TAG_TI_branch
    3126                            .dwattr $C$DW$208, DW_AT_low_pc(0x00)
    3127                            .dwattr $C$DW$208, DW_AT_TI_return
    3128 000006c0 BD00              POP       {PC}                  ; [DPU_3_PIPE]  ; [ORIG 16-BIT INS]
    3129                            .dwcfi  cfa_offset, 0
    3130                            ; BRANCH OCCURS                  ; [] 
    3131                            .dwattr $C$DW$197, DW_AT_TI_end_file("../Source/tasks.c")
    3132                            .dwattr $C$DW$197, DW_AT_TI_end_line(0x9be)
    3133                            .dwattr $C$DW$197, DW_AT_TI_end_column(0x01)
    3134                            .dwendentry
    3135                            .dwendtag $C$DW$197
    3136                    
    3137                    ;******************************************************************************
    3138                    ;* CONSTANT TABLE                                                             *
    3139                    ;******************************************************************************
    3140 000006c2                   .sect   ".text"
    3141                            .align  4
    3142 000006c2 000046C0! ||$C$CON20||:   .bits   pxReadyTasksLists,32
         000006c6 00000000 
    3143 000006c8                   .sect   ".text"
    3144                            .clink
    3145                            .thumbfunc vTaskMissedYield
    3146 000006c8                   .thumb
    3147                            .global vTaskMissedYield
    3148                    
    3149                    $C$DW$209       .dwtag  DW_TAG_subprogram, DW_AT_name("vTaskMissedYield")
    3150                            .dwattr $C$DW$209, DW_AT_low_pc(vTaskMissedYield)
    3151                            .dwattr $C$DW$209, DW_AT_high_pc(0x00)
    3152                            .dwattr $C$DW$209, DW_AT_TI_symbol_name("vTaskMissedYield")
    3153                            .dwattr $C$DW$209, DW_AT_external
    3154                            .dwattr $C$DW$209, DW_AT_TI_begin_file("../Source/tasks.c")
    3155                            .dwattr $C$DW$209, DW_AT_TI_begin_line(0x9c1)
    3156                            .dwattr $C$DW$209, DW_AT_TI_begin_column(0x06)
    3157                            .dwattr $C$DW$209, DW_AT_decl_file("../Source/tasks.c")
    3158                            .dwattr $C$DW$209, DW_AT_decl_line(0x9c1)
    3159                            .dwattr $C$DW$209, DW_AT_decl_column(0x06)
    3160                            .dwattr $C$DW$209, DW_AT_TI_max_frame_size(0x00)
    3161                            .dwpsn  file "../Source/tasks.c",line 2498,column 1,is_stmt,address vTaskMissedYield,isa 1
    3162                    
    3163                            .dwfde $C$DW$CIE, vTaskMissedYield
    3164                    
    3165                    ;*****************************************************************************
    3166                    ;* FUNCTION NAME: vTaskMissedYield                                           *
    3167                    ;*                                                                           *
    3168                    ;*   Regs Modified     : A1,A2,SR                                            *
    3169                    ;*   Regs Used         : A1,A2,LR,SR                                         *
    3170                    ;*   Local Frame Size  : 0 Args + 0 Auto + 0 Save = 0 byte                   *
TI ARM Assembler PC v5.1.7 Tue Sep 16 08:38:42 2014

Tools Copyright (c) 1996-2014 Texas Instruments Incorporated
tasks.asm                                                            PAGE   59

    3171                    ;*****************************************************************************
    3172 000006c8           vTaskMissedYield:
    3173                    ;* --------------------------------------------------------------------------*
    3174                            .dwcfi  cfa_offset, 0
    3175                            .dwpsn  file "../Source/tasks.c",line 2499,column 2,is_stmt,isa 1
    3176 000006c8 495E              LDR       A2, $C$CON25          ; [DPU_3_PIPE] |2499|  ; [ORIG 16-BIT INS]
    3177 000006ca 2001              MOVS      A1, #1                ; [DPU_3_PIPE] |2499|  ; [ORIG 16-BIT INS]
    3178 000006cc 6008              STR       A1, [A2, #0]          ; [DPU_3_PIPE] |2499|  ; [ORIG 16-BIT INS]
    3179                            .dwpsn  file "../Source/tasks.c",line 2500,column 1,is_stmt,isa 1
    3180                    $C$DW$210       .dwtag  DW_TAG_TI_branch
    3181                            .dwattr $C$DW$210, DW_AT_low_pc(0x00)
    3182                            .dwattr $C$DW$210, DW_AT_TI_return
    3183 000006ce 4770              BX        LR                    ; [DPU_3_PIPE]  ; [ORIG 16-BIT INS]
    3184                            ; BRANCH OCCURS                  ; [] 
    3185                            .dwattr $C$DW$209, DW_AT_TI_end_file("../Source/tasks.c")
    3186                            .dwattr $C$DW$209, DW_AT_TI_end_line(0x9c4)
    3187                            .dwattr $C$DW$209, DW_AT_TI_end_column(0x01)
    3188                            .dwendentry
    3189                            .dwendtag $C$DW$209
    3190                    
    3191 000006d0                   .sect   ".text"
    3192                            .clink
    3193                            .thumbfunc prvIdleTask
    3194 000006d0                   .thumb
    3195                    
    3196                    $C$DW$211       .dwtag  DW_TAG_subprogram, DW_AT_name("prvIdleTask")
    3197                            .dwattr $C$DW$211, DW_AT_low_pc(prvIdleTask)
    3198                            .dwattr $C$DW$211, DW_AT_high_pc(0x00)
    3199                            .dwattr $C$DW$211, DW_AT_TI_symbol_name("prvIdleTask")
    3200                            .dwattr $C$DW$211, DW_AT_TI_begin_file("../Source/tasks.c")
    3201                            .dwattr $C$DW$211, DW_AT_TI_begin_line(0x9f8)
    3202                            .dwattr $C$DW$211, DW_AT_TI_begin_column(0x08)
    3203                            .dwattr $C$DW$211, DW_AT_decl_file("../Source/tasks.c")
    3204                            .dwattr $C$DW$211, DW_AT_decl_line(0x9f8)
    3205                            .dwattr $C$DW$211, DW_AT_decl_column(0x08)
    3206                            .dwattr $C$DW$211, DW_AT_TI_max_frame_size(0x08)
    3207                            .dwpsn  file "../Source/tasks.c",line 2553,column 1,is_stmt,address prvIdleTask,isa 1
    3208                    
    3209                            .dwfde $C$DW$CIE, prvIdleTask
    3210                    $C$DW$212       .dwtag  DW_TAG_formal_parameter, DW_AT_name("pvParameters")
    3211                            .dwattr $C$DW$212, DW_AT_TI_symbol_name("pvParameters")
    3212                            .dwattr $C$DW$212, DW_AT_type(*$C$DW$T$3)
    3213                            .dwattr $C$DW$212, DW_AT_location[DW_OP_reg0]
    3214                    
    3215                    ;*****************************************************************************
    3216                    ;* FUNCTION NAME: prvIdleTask                                                *
    3217                    ;*                                                                           *
    3218                    ;*   Regs Modified     : A1,A2,A3,A4,V9,SP,LR,SR,D0,D0_hi,D1,D1_hi,D2,D2_hi, *
    3219                    ;*                           D3,D3_hi,D4,D4_hi,D5,D5_hi,D6,D6_hi,D7,D7_hi,   *
    3220                    ;*                           FPEXC,FPSCR                                     *
    3221                    ;*   Regs Used         : A1,A2,A3,A4,V9,SP,LR,SR,D0,D0_hi,D1,D1_hi,D2,D2_hi, *
    3222                    ;*                           D3,D3_hi,D4,D4_hi,D5,D5_hi,D6,D6_hi,D7,D7_hi,   *
    3223                    ;*                           FPEXC,FPSCR                                     *
    3224                    ;*   Local Frame Size  : 0 Args + 4 Auto + 4 Save = 8 byte                   *
    3225                    ;*****************************************************************************
TI ARM Assembler PC v5.1.7 Tue Sep 16 08:38:42 2014

Tools Copyright (c) 1996-2014 Texas Instruments Incorporated
tasks.asm                                                            PAGE   60

    3226 000006d0           prvIdleTask:
    3227                    ;* --------------------------------------------------------------------------*
    3228                            .dwcfi  cfa_offset, 0
    3229 000006d0 B508              PUSH      {A4, LR}              ; [DPU_3_PIPE]  ; [ORIG 16-BIT INS]
    3230                            .dwcfi  cfa_offset, 8
    3231                            .dwcfi  save_reg_to_mem, 14, -4
    3232                            .dwcfi  save_reg_to_mem, 3, -8
    3233                    $C$DW$213       .dwtag  DW_TAG_variable, DW_AT_name("pvParameters")
    3234                            .dwattr $C$DW$213, DW_AT_TI_symbol_name("pvParameters")
    3235                            .dwattr $C$DW$213, DW_AT_type(*$C$DW$T$3)
    3236                            .dwattr $C$DW$213, DW_AT_location[DW_OP_breg13 0]
    3237 000006d2 9000              STR       A1, [SP, #0]          ; [DPU_3_PIPE] |2553|  ; [ORIG 16-BIT INS]
    3238                            .dwpsn  file "../Source/tasks.c",line 2555,column 2,is_stmt,isa 1
    3239                    ;* --------------------------------------------------------------------------*
    3240                    ;*   BEGIN LOOP ||$C$L54||
    3241                    ;*
    3242                    ;*   Loop source line                : 2557
    3243                    ;*   Loop closing brace source line  : 2651
    3244                    ;*   Known Minimum Trip Count        : 1
    3245                    ;*   Known Maximum Trip Count        : 4294967295
    3246                    ;*   Known Max Trip Count Factor     : 1
    3247                    ;* --------------------------------------------------------------------------*
    3248 000006d4           ||$C$L54||:    
    3249                            .dwpsn  file "../Source/tasks.c",line 2560,column 3,is_stmt,isa 1
    3250                    $C$DW$214       .dwtag  DW_TAG_TI_branch
    3251                            .dwattr $C$DW$214, DW_AT_low_pc(0x00)
    3252                            .dwattr $C$DW$214, DW_AT_name("prvCheckTasksWaitingTermination")
    3253                            .dwattr $C$DW$214, DW_AT_TI_call
    3254 000006d4 F86CF000          BL        prvCheckTasksWaitingTermination ; [DPU_3_PIPE] |2560|  ; [KEEP 32-BIT INS]
    3255                            ; CALL OCCURS {prvCheckTasksWaitingTermination }  ; [] |2560| 
    3256                            .dwpsn  file "../Source/tasks.c",line 2568,column 4,is_stmt,isa 1
    3257                    $C$DW$215       .dwtag  DW_TAG_TI_branch
    3258                            .dwattr $C$DW$215, DW_AT_low_pc(0x00)
    3259                            .dwattr $C$DW$215, DW_AT_name("vPortYieldFromISR")
    3260                            .dwattr $C$DW$215, DW_AT_TI_call
    3261 000006d8 FFFEF7FF!         BL        vPortYieldFromISR     ; [DPU_3_PIPE] |2568|  ; [KEEP 32-BIT INS]
    3262                            ; CALL OCCURS {vPortYieldFromISR }  ; [] |2568| 
    3263                            .dwpsn  file "../Source/tasks.c",line 2651,column 2,is_stmt,isa 1
    3264 000006dc E7FA              B         ||$C$L54||            ; [DPU_3_PIPE] |2651|  ; [ORIG 16-BIT INS]
    3265                            ; BRANCH OCCURS {||$C$L54||}     ; [] |2651| 
    3266                    ;* --------------------------------------------------------------------------*
    3267                            .dwattr $C$DW$211, DW_AT_TI_end_file("../Source/tasks.c")
    3268                            .dwattr $C$DW$211, DW_AT_TI_end_line(0xa5c)
    3269                            .dwattr $C$DW$211, DW_AT_TI_end_column(0x01)
    3270                            .dwendentry
    3271                            .dwendtag $C$DW$211
    3272                    
    3273                    ;******************************************************************************
    3274                    ;* CONSTANT TABLE                                                             *
    3275                    ;******************************************************************************
    3276 000006de                   .sect   ".text"
    3277                            .align  4
    3278 000006de 000046C0! ||$C$CON21||:   .bits   pxCurrentTCB,32
         000006e2 00000000 
    3279 000006e4                   .sect   ".text"
TI ARM Assembler PC v5.1.7 Tue Sep 16 08:38:42 2014

Tools Copyright (c) 1996-2014 Texas Instruments Incorporated
tasks.asm                                                            PAGE   61

    3280                            .clink
    3281                            .thumbfunc prvInitialiseTCBVariables
    3282 000006e4                   .thumb
    3283                    
    3284                    $C$DW$216       .dwtag  DW_TAG_subprogram, DW_AT_name("prvInitialiseTCBVariables")
    3285                            .dwattr $C$DW$216, DW_AT_low_pc(prvInitialiseTCBVariables)
    3286                            .dwattr $C$DW$216, DW_AT_high_pc(0x00)
    3287                            .dwattr $C$DW$216, DW_AT_TI_symbol_name("prvInitialiseTCBVariables")
    3288                            .dwattr $C$DW$216, DW_AT_TI_begin_file("../Source/tasks.c")
    3289                            .dwattr $C$DW$216, DW_AT_TI_begin_line(0xa8b)
    3290                            .dwattr $C$DW$216, DW_AT_TI_begin_column(0x0d)
    3291                            .dwattr $C$DW$216, DW_AT_decl_file("../Source/tasks.c")
    3292                            .dwattr $C$DW$216, DW_AT_decl_line(0xa8b)
    3293                            .dwattr $C$DW$216, DW_AT_decl_column(0x0d)
    3294                            .dwattr $C$DW$216, DW_AT_TI_max_frame_size(0x18)
    3295                            .dwpsn  file "../Source/tasks.c",line 2700,column 1,is_stmt,address prvInitialiseTCBVariables,
    3296                    
    3297                            .dwfde $C$DW$CIE, prvInitialiseTCBVariables
    3298                    $C$DW$217       .dwtag  DW_TAG_formal_parameter, DW_AT_name("pxTCB")
    3299                            .dwattr $C$DW$217, DW_AT_TI_symbol_name("pxTCB")
    3300                            .dwattr $C$DW$217, DW_AT_type(*$C$DW$T$101)
    3301                            .dwattr $C$DW$217, DW_AT_location[DW_OP_reg0]
    3302                    $C$DW$218       .dwtag  DW_TAG_formal_parameter, DW_AT_name("pcName")
    3303                            .dwattr $C$DW$218, DW_AT_TI_symbol_name("pcName")
    3304                            .dwattr $C$DW$218, DW_AT_type(*$C$DW$T$46)
    3305                            .dwattr $C$DW$218, DW_AT_location[DW_OP_reg1]
    3306                    $C$DW$219       .dwtag  DW_TAG_formal_parameter, DW_AT_name("uxPriority")
    3307                            .dwattr $C$DW$219, DW_AT_TI_symbol_name("uxPriority")
    3308                            .dwattr $C$DW$219, DW_AT_type(*$C$DW$T$28)
    3309                            .dwattr $C$DW$219, DW_AT_location[DW_OP_reg2]
    3310                    $C$DW$220       .dwtag  DW_TAG_formal_parameter, DW_AT_name("xRegions")
    3311                            .dwattr $C$DW$220, DW_AT_TI_symbol_name("xRegions")
    3312                            .dwattr $C$DW$220, DW_AT_type(*$C$DW$T$104)
    3313                            .dwattr $C$DW$220, DW_AT_location[DW_OP_reg3]
    3314                    $C$DW$221       .dwtag  DW_TAG_formal_parameter, DW_AT_name("usStackDepth")
    3315                            .dwattr $C$DW$221, DW_AT_TI_symbol_name("usStackDepth")
    3316                            .dwattr $C$DW$221, DW_AT_type(*$C$DW$T$105)
    3317                            .dwattr $C$DW$221, DW_AT_location[DW_OP_breg13 24]
    3318                    
    3319                    ;*****************************************************************************
    3320                    ;* FUNCTION NAME: prvInitialiseTCBVariables                                  *
    3321                    ;*                                                                           *
    3322                    ;*   Regs Modified     : A1,A2,A3,A4,V9,SP,LR,SR,D0,D0_hi,D1,D1_hi,D2,D2_hi, *
    3323                    ;*                           D3,D3_hi,D4,D4_hi,D5,D5_hi,D6,D6_hi,D7,D7_hi,   *
    3324                    ;*                           FPEXC,FPSCR                                     *
    3325                    ;*   Regs Used         : A1,A2,A3,A4,V9,SP,LR,SR,D0,D0_hi,D1,D1_hi,D2,D2_hi, *
    3326                    ;*                           D3,D3_hi,D4,D4_hi,D5,D5_hi,D6,D6_hi,D7,D7_hi,   *
    3327                    ;*                           FPEXC,FPSCR                                     *
    3328                    ;*   Local Frame Size  : 0 Args + 20 Auto + 4 Save = 24 byte                 *
    3329                    ;*****************************************************************************
    3330 000006e4           prvInitialiseTCBVariables:
    3331                    ;* --------------------------------------------------------------------------*
    3332                            .dwcfi  cfa_offset, 0
    3333 000006e4 B500              PUSH      {LR}                  ; [DPU_3_PIPE]  ; [ORIG 16-BIT INS]
    3334                            .dwcfi  cfa_offset, 4
TI ARM Assembler PC v5.1.7 Tue Sep 16 08:38:42 2014

Tools Copyright (c) 1996-2014 Texas Instruments Incorporated
tasks.asm                                                            PAGE   62

    3335                            .dwcfi  save_reg_to_mem, 14, -4
    3336 000006e6 0D14F1AD          SUB       SP, SP, #20           ; [DPU_3_PIPE]  ; [KEEP 32-BIT INS]
    3337                            .dwcfi  cfa_offset, 24
    3338                    $C$DW$222       .dwtag  DW_TAG_variable, DW_AT_name("pxTCB")
    3339                            .dwattr $C$DW$222, DW_AT_TI_symbol_name("pxTCB")
    3340                            .dwattr $C$DW$222, DW_AT_type(*$C$DW$T$101)
    3341                            .dwattr $C$DW$222, DW_AT_location[DW_OP_breg13 0]
    3342                    $C$DW$223       .dwtag  DW_TAG_variable, DW_AT_name("pcName")
    3343                            .dwattr $C$DW$223, DW_AT_TI_symbol_name("pcName")
    3344                            .dwattr $C$DW$223, DW_AT_type(*$C$DW$T$46)
    3345                            .dwattr $C$DW$223, DW_AT_location[DW_OP_breg13 4]
    3346                    $C$DW$224       .dwtag  DW_TAG_variable, DW_AT_name("uxPriority")
    3347                            .dwattr $C$DW$224, DW_AT_TI_symbol_name("uxPriority")
    3348                            .dwattr $C$DW$224, DW_AT_type(*$C$DW$T$28)
    3349                            .dwattr $C$DW$224, DW_AT_location[DW_OP_breg13 8]
    3350                    $C$DW$225       .dwtag  DW_TAG_variable, DW_AT_name("xRegions")
    3351                            .dwattr $C$DW$225, DW_AT_TI_symbol_name("xRegions")
    3352                            .dwattr $C$DW$225, DW_AT_type(*$C$DW$T$104)
    3353                            .dwattr $C$DW$225, DW_AT_location[DW_OP_breg13 12]
    3354                    $C$DW$226       .dwtag  DW_TAG_variable, DW_AT_name("x")
    3355                            .dwattr $C$DW$226, DW_AT_TI_symbol_name("x")
    3356                            .dwattr $C$DW$226, DW_AT_type(*$C$DW$T$28)
    3357                            .dwattr $C$DW$226, DW_AT_location[DW_OP_breg13 16]
    3358 000006ea 9303              STR       A4, [SP, #12]         ; [DPU_3_PIPE] |2700|  ; [ORIG 16-BIT INS]
    3359 000006ec 9202              STR       A3, [SP, #8]          ; [DPU_3_PIPE] |2700|  ; [ORIG 16-BIT INS]
    3360 000006ee 9101              STR       A2, [SP, #4]          ; [DPU_3_PIPE] |2700|  ; [ORIG 16-BIT INS]
    3361 000006f0 9000              STR       A1, [SP, #0]          ; [DPU_3_PIPE] |2700|  ; [ORIG 16-BIT INS]
    3362                            .dwpsn  file "../Source/tasks.c",line 2704,column 7,is_stmt,isa 1
    3363 000006f2 2000              MOVS      A1, #0                ; [DPU_3_PIPE] |2704|  ; [ORIG 16-BIT INS]
    3364 000006f4 9004              STR       A1, [SP, #16]         ; [DPU_3_PIPE] |2704|  ; [ORIG 16-BIT INS]
    3365                            .dwpsn  file "../Source/tasks.c",line 2704,column 30,is_stmt,isa 1
    3366 000006f6 9804              LDR       A1, [SP, #16]         ; [DPU_3_PIPE] |2704|  ; [ORIG 16-BIT INS]
    3367 000006f8 2810              CMP       A1, #16               ; [DPU_3_PIPE] |2704|  ; [ORIG 16-BIT INS]
    3368 000006fa D212              BCS       ||$C$L57||            ; [DPU_3_PIPE] |2704|  ; [ORIG 16-BIT INS]
    3369                            ; BRANCHCC OCCURS {||$C$L57||}   ; [] |2704| 
    3370                    ;* --------------------------------------------------------------------------*
    3371                    ;*   BEGIN LOOP ||$C$L55||
    3372                    ;*
    3373                    ;*   Loop source line                : 2704
    3374                    ;*   Loop closing brace source line  : 2719
    3375                    ;*   Known Minimum Trip Count        : 1
    3376                    ;*   Known Maximum Trip Count        : 4294967295
    3377                    ;*   Known Max Trip Count Factor     : 1
    3378                    ;* --------------------------------------------------------------------------*
    3379 000006fc           ||$C$L55||:    
    3380                            .dwpsn  file "../Source/tasks.c",line 2706,column 3,is_stmt,isa 1
    3381 000006fc 9901              LDR       A2, [SP, #4]          ; [DPU_3_PIPE] |2706|  ; [ORIG 16-BIT INS]
    3382 000006fe 9B04              LDR       A4, [SP, #16]         ; [DPU_3_PIPE] |2706|  ; [ORIG 16-BIT INS]
    3383 00000700 9A00              LDR       A3, [SP, #0]          ; [DPU_3_PIPE] |2706|  ; [ORIG 16-BIT INS]
    3384 00000702 9804              LDR       A1, [SP, #16]         ; [DPU_3_PIPE] |2706|  ; [ORIG 16-BIT INS]
    3385 00000704 5C59              LDRB      A2, [A4, +A2]         ; [DPU_3_PIPE] |2706|  ; [ORIG 16-BIT INS]
    3386 00000706 1880              ADDS      A1, A1, A3            ; [DPU_3_PIPE] |2706|  ; [ORIG 16-BIT INS]
    3387 00000708 1034F880          STRB      A2, [A1, #52]         ; [DPU_3_PIPE] |2706|  ; [KEEP 32-BIT INS]
    3388                            .dwpsn  file "../Source/tasks.c",line 2711,column 3,is_stmt,isa 1
    3389 0000070c 9801              LDR       A1, [SP, #4]          ; [DPU_3_PIPE] |2711|  ; [ORIG 16-BIT INS]
TI ARM Assembler PC v5.1.7 Tue Sep 16 08:38:42 2014

Tools Copyright (c) 1996-2014 Texas Instruments Incorporated
tasks.asm                                                            PAGE   63

    3390 0000070e 9904              LDR       A2, [SP, #16]         ; [DPU_3_PIPE] |2711|  ; [ORIG 16-BIT INS]
    3391 00000710 5C08              LDRB      A1, [A2, +A1]         ; [DPU_3_PIPE] |2711|  ; [ORIG 16-BIT INS]
    3392 00000712 B900              CBNZ      A1, ||$C$L56||        ; []  ; [ORIG 16-BIT INS]
    3393                            ; BRANCHCC OCCURS {||$C$L56||}   ; [] |2711| 
    3394                    ;* --------------------------------------------------------------------------*
    3395                            .dwpsn  file "../Source/tasks.c",line 2713,column 4,is_stmt,isa 1
    3396 00000714 E005              B         ||$C$L57||            ; [DPU_3_PIPE] |2713|  ; [ORIG 16-BIT INS]
    3397                            ; BRANCH OCCURS {||$C$L57||}     ; [] |2713| 
    3398                    ;* --------------------------------------------------------------------------*
    3399                    ;* --------------------------------------------------------------------------*
    3400 00000716           ||$C$L56||:    
    3401                            .dwpsn  file "../Source/tasks.c",line 2704,column 75,is_stmt,isa 1
    3402 00000716 9804              LDR       A1, [SP, #16]         ; [DPU_3_PIPE] |2704|  ; [ORIG 16-BIT INS]
    3403 00000718 1C40              ADDS      A1, A1, #1            ; [DPU_3_PIPE] |2704|  ; [ORIG 16-BIT INS]
    3404 0000071a 9004              STR       A1, [SP, #16]         ; [DPU_3_PIPE] |2704|  ; [ORIG 16-BIT INS]
    3405                            .dwpsn  file "../Source/tasks.c",line 2704,column 30,is_stmt,isa 1
    3406 0000071c 9804              LDR       A1, [SP, #16]         ; [DPU_3_PIPE] |2704|  ; [ORIG 16-BIT INS]
    3407 0000071e 2810              CMP       A1, #16               ; [DPU_3_PIPE] |2704|  ; [ORIG 16-BIT INS]
    3408 00000720 D3EC              BCC       ||$C$L55||            ; [DPU_3_PIPE] |2704|  ; [ORIG 16-BIT INS]
    3409                            ; BRANCHCC OCCURS {||$C$L55||}   ; [] |2704| 
    3410                    ;* --------------------------------------------------------------------------*
    3411 00000722           ||$C$L57||:    
    3412                            .dwpsn  file "../Source/tasks.c",line 2723,column 2,is_stmt,isa 1
    3413 00000722 9900              LDR       A2, [SP, #0]          ; [DPU_3_PIPE] |2723|  ; [ORIG 16-BIT INS]
    3414 00000724 2000              MOVS      A1, #0                ; [DPU_3_PIPE] |2723|  ; [ORIG 16-BIT INS]
    3415 00000726 0043F881          STRB      A1, [A2, #67]         ; [DPU_3_PIPE] |2723|  ; [KEEP 32-BIT INS]
    3416                            .dwpsn  file "../Source/tasks.c",line 2727,column 2,is_stmt,isa 1
    3417 0000072a 9802              LDR       A1, [SP, #8]          ; [DPU_3_PIPE] |2727|  ; [ORIG 16-BIT INS]
    3418 0000072c 2804              CMP       A1, #4                ; [DPU_3_PIPE] |2727|  ; [ORIG 16-BIT INS]
    3419 0000072e D301              BCC       ||$C$L58||            ; [DPU_3_PIPE] |2727|  ; [ORIG 16-BIT INS]
    3420                            ; BRANCHCC OCCURS {||$C$L58||}   ; [] |2727| 
    3421                    ;* --------------------------------------------------------------------------*
    3422                            .dwpsn  file "../Source/tasks.c",line 2729,column 3,is_stmt,isa 1
    3423 00000730 2003              MOVS      A1, #3                ; [DPU_3_PIPE] |2729|  ; [ORIG 16-BIT INS]
    3424 00000732 9002              STR       A1, [SP, #8]          ; [DPU_3_PIPE] |2729|  ; [ORIG 16-BIT INS]
    3425                            .dwpsn  file "../Source/tasks.c",line 2730,column 2,is_stmt,isa 1
    3426                    ;* --------------------------------------------------------------------------*
    3427 00000734           ||$C$L58||:    
    3428                            .dwpsn  file "../Source/tasks.c",line 2736,column 2,is_stmt,isa 1
    3429 00000734 9802              LDR       A1, [SP, #8]          ; [DPU_3_PIPE] |2736|  ; [ORIG 16-BIT INS]
    3430 00000736 9900              LDR       A2, [SP, #0]          ; [DPU_3_PIPE] |2736|  ; [ORIG 16-BIT INS]
    3431 00000738 62C8              STR       A1, [A2, #44]         ; [DPU_3_PIPE] |2736|  ; [ORIG 16-BIT INS]
    3432                            .dwpsn  file "../Source/tasks.c",line 2743,column 2,is_stmt,isa 1
    3433 0000073a 9800              LDR       A1, [SP, #0]          ; [DPU_3_PIPE] |2743|  ; [ORIG 16-BIT INS]
    3434 0000073c 1D00              ADDS      A1, A1, #4            ; [DPU_3_PIPE] |2743|  ; [ORIG 16-BIT INS]
    3435                    $C$DW$227       .dwtag  DW_TAG_TI_branch
    3436                            .dwattr $C$DW$227, DW_AT_low_pc(0x00)
    3437                            .dwattr $C$DW$227, DW_AT_name("vListInitialiseItem")
    3438                            .dwattr $C$DW$227, DW_AT_TI_call
    3439 0000073e FFFEF7FF!         BL        vListInitialiseItem   ; [DPU_3_PIPE] |2743|  ; [KEEP 32-BIT INS]
    3440                            ; CALL OCCURS {vListInitialiseItem }  ; [] |2743| 
    3441                            .dwpsn  file "../Source/tasks.c",line 2744,column 2,is_stmt,isa 1
    3442 00000742 9800              LDR       A1, [SP, #0]          ; [DPU_3_PIPE] |2744|  ; [ORIG 16-BIT INS]
    3443 00000744 3018              ADDS      A1, A1, #24           ; [DPU_3_PIPE] |2744|  ; [ORIG 16-BIT INS]
    3444                    $C$DW$228       .dwtag  DW_TAG_TI_branch
TI ARM Assembler PC v5.1.7 Tue Sep 16 08:38:42 2014

Tools Copyright (c) 1996-2014 Texas Instruments Incorporated
tasks.asm                                                            PAGE   64

    3445                            .dwattr $C$DW$228, DW_AT_low_pc(0x00)
    3446                            .dwattr $C$DW$228, DW_AT_name("vListInitialiseItem")
    3447                            .dwattr $C$DW$228, DW_AT_TI_call
    3448 00000746 FFFEF7FF!         BL        vListInitialiseItem   ; [DPU_3_PIPE] |2744|  ; [KEEP 32-BIT INS]
    3449                            ; CALL OCCURS {vListInitialiseItem }  ; [] |2744| 
    3450                            .dwpsn  file "../Source/tasks.c",line 2748,column 2,is_stmt,isa 1
    3451 0000074a 9800              LDR       A1, [SP, #0]          ; [DPU_3_PIPE] |2748|  ; [ORIG 16-BIT INS]
    3452 0000074c 9900              LDR       A2, [SP, #0]          ; [DPU_3_PIPE] |2748|  ; [ORIG 16-BIT INS]
    3453 0000074e 6108              STR       A1, [A2, #16]         ; [DPU_3_PIPE] |2748|  ; [ORIG 16-BIT INS]
    3454                            .dwpsn  file "../Source/tasks.c",line 2751,column 2,is_stmt,isa 1
    3455 00000750 9802              LDR       A1, [SP, #8]          ; [DPU_3_PIPE] |2751|  ; [ORIG 16-BIT INS]
    3456 00000752 9900              LDR       A2, [SP, #0]          ; [DPU_3_PIPE] |2751|  ; [ORIG 16-BIT INS]
    3457 00000754 0004F1C0          RSB       A1, A1, #4            ; [DPU_3_PIPE] |2751|  ; [KEEP 32-BIT INS]
    3458 00000758 6188              STR       A1, [A2, #24]         ; [DPU_3_PIPE] |2751|  ; [ORIG 16-BIT INS]
    3459                            .dwpsn  file "../Source/tasks.c",line 2752,column 2,is_stmt,isa 1
    3460 0000075a 9800              LDR       A1, [SP, #0]          ; [DPU_3_PIPE] |2752|  ; [ORIG 16-BIT INS]
    3461 0000075c 9900              LDR       A2, [SP, #0]          ; [DPU_3_PIPE] |2752|  ; [ORIG 16-BIT INS]
    3462 0000075e 6248              STR       A1, [A2, #36]         ; [DPU_3_PIPE] |2752|  ; [ORIG 16-BIT INS]
    3463                            .dwpsn  file "../Source/tasks.c",line 2778,column 3,is_stmt,isa 1
    3464                            .dwpsn  file "../Source/tasks.c",line 2779,column 3,is_stmt,isa 1
    3465                            .dwpsn  file "../Source/tasks.c",line 2789,column 1,is_stmt,isa 1
    3466 00000760 B005              ADD       SP, SP, #20           ; [DPU_3_PIPE]  ; [ORIG 16-BIT INS]
    3467                            .dwcfi  cfa_offset, 4
    3468                    $C$DW$229       .dwtag  DW_TAG_TI_branch
    3469                            .dwattr $C$DW$229, DW_AT_low_pc(0x00)
    3470                            .dwattr $C$DW$229, DW_AT_TI_return
    3471 00000762 BD00              POP       {PC}                  ; [DPU_3_PIPE]  ; [ORIG 16-BIT INS]
    3472                            .dwcfi  cfa_offset, 0
    3473                            ; BRANCH OCCURS                  ; [] 
    3474                            .dwattr $C$DW$216, DW_AT_TI_end_file("../Source/tasks.c")
    3475                            .dwattr $C$DW$216, DW_AT_TI_end_line(0xae5)
    3476                            .dwattr $C$DW$216, DW_AT_TI_end_column(0x01)
    3477                            .dwendentry
    3478                            .dwendtag $C$DW$216
    3479                    
    3480                    ;******************************************************************************
    3481                    ;* CONSTANT TABLE                                                             *
    3482                    ;******************************************************************************
    3483 00000764                   .sect   ".text"
    3484                            .align  4
    3485 00000764 00000000! ||$C$CON22||:   .bits   xTickCount,32
    3486 00000768                   .sect   ".text"
    3487                            .clink
    3488                            .thumbfunc prvInitialiseTaskLists
    3489 00000768                   .thumb
    3490                    
    3491                    $C$DW$230       .dwtag  DW_TAG_subprogram, DW_AT_name("prvInitialiseTaskLists")
    3492                            .dwattr $C$DW$230, DW_AT_low_pc(prvInitialiseTaskLists)
    3493                            .dwattr $C$DW$230, DW_AT_high_pc(0x00)
    3494                            .dwattr $C$DW$230, DW_AT_TI_symbol_name("prvInitialiseTaskLists")
    3495                            .dwattr $C$DW$230, DW_AT_TI_begin_file("../Source/tasks.c")
    3496                            .dwattr $C$DW$230, DW_AT_TI_begin_line(0xaf7)
    3497                            .dwattr $C$DW$230, DW_AT_TI_begin_column(0x0d)
    3498                            .dwattr $C$DW$230, DW_AT_decl_file("../Source/tasks.c")
    3499                            .dwattr $C$DW$230, DW_AT_decl_line(0xaf7)
TI ARM Assembler PC v5.1.7 Tue Sep 16 08:38:42 2014

Tools Copyright (c) 1996-2014 Texas Instruments Incorporated
tasks.asm                                                            PAGE   65

    3500                            .dwattr $C$DW$230, DW_AT_decl_column(0x0d)
    3501                            .dwattr $C$DW$230, DW_AT_TI_max_frame_size(0x08)
    3502                            .dwpsn  file "../Source/tasks.c",line 2808,column 1,is_stmt,address prvInitialiseTaskLists,isa
    3503                    
    3504                            .dwfde $C$DW$CIE, prvInitialiseTaskLists
    3505                    
    3506                    ;*****************************************************************************
    3507                    ;* FUNCTION NAME: prvInitialiseTaskLists                                     *
    3508                    ;*                                                                           *
    3509                    ;*   Regs Modified     : A1,A2,A3,A4,V9,SP,LR,SR,D0,D0_hi,D1,D1_hi,D2,D2_hi, *
    3510                    ;*                           D3,D3_hi,D4,D4_hi,D5,D5_hi,D6,D6_hi,D7,D7_hi,   *
    3511                    ;*                           FPEXC,FPSCR                                     *
    3512                    ;*   Regs Used         : A1,A2,A3,A4,V9,SP,LR,SR,D0,D0_hi,D1,D1_hi,D2,D2_hi, *
    3513                    ;*                           D3,D3_hi,D4,D4_hi,D5,D5_hi,D6,D6_hi,D7,D7_hi,   *
    3514                    ;*                           FPEXC,FPSCR                                     *
    3515                    ;*   Local Frame Size  : 0 Args + 4 Auto + 4 Save = 8 byte                   *
    3516                    ;*****************************************************************************
    3517 00000768           prvInitialiseTaskLists:
    3518                    ;* --------------------------------------------------------------------------*
    3519                            .dwcfi  cfa_offset, 0
    3520 00000768 B508              PUSH      {A4, LR}              ; [DPU_3_PIPE]  ; [ORIG 16-BIT INS]
    3521                            .dwcfi  cfa_offset, 8
    3522                            .dwcfi  save_reg_to_mem, 14, -4
    3523                            .dwcfi  save_reg_to_mem, 3, -8
    3524                    $C$DW$231       .dwtag  DW_TAG_variable, DW_AT_name("uxPriority")
    3525                            .dwattr $C$DW$231, DW_AT_TI_symbol_name("uxPriority")
    3526                            .dwattr $C$DW$231, DW_AT_type(*$C$DW$T$28)
    3527                            .dwattr $C$DW$231, DW_AT_location[DW_OP_breg13 0]
    3528                            .dwpsn  file "../Source/tasks.c",line 2811,column 7,is_stmt,isa 1
    3529 0000076a 2000              MOVS      A1, #0                ; [DPU_3_PIPE] |2811|  ; [ORIG 16-BIT INS]
    3530 0000076c 9000              STR       A1, [SP, #0]          ; [DPU_3_PIPE] |2811|  ; [ORIG 16-BIT INS]
    3531                            .dwpsn  file "../Source/tasks.c",line 2811,column 40,is_stmt,isa 1
    3532 0000076e 9800              LDR       A1, [SP, #0]          ; [DPU_3_PIPE] |2811|  ; [ORIG 16-BIT INS]
    3533 00000770 2804              CMP       A1, #4                ; [DPU_3_PIPE] |2811|  ; [ORIG 16-BIT INS]
    3534 00000772 D20D              BCS       ||$C$L60||            ; [DPU_3_PIPE] |2811|  ; [ORIG 16-BIT INS]
    3535                            ; BRANCHCC OCCURS {||$C$L60||}   ; [] |2811| 
    3536                    ;* --------------------------------------------------------------------------*
    3537                    ;*   BEGIN LOOP ||$C$L59||
    3538                    ;*
    3539                    ;*   Loop source line                : 2811
    3540                    ;*   Loop closing brace source line  : 2814
    3541                    ;*   Known Minimum Trip Count        : 1
    3542                    ;*   Known Maximum Trip Count        : 4294967295
    3543                    ;*   Known Max Trip Count Factor     : 1
    3544                    ;* --------------------------------------------------------------------------*
    3545 00000774           ||$C$L59||:    
    3546                            .dwpsn  file "../Source/tasks.c",line 2813,column 3,is_stmt,isa 1
    3547 00000774 9A00              LDR       A3, [SP, #0]          ; [DPU_3_PIPE] |2813|  ; [ORIG 16-BIT INS]
    3548 00000776 484C              LDR       A1, $C$CON29          ; [DPU_3_PIPE] |2813|  ; [ORIG 16-BIT INS]
    3549 00000778 0091              LSLS      A2, A3, #2            ; [DPU_3_PIPE] |2813|  ; [ORIG 16-BIT INS]
    3550 0000077a 1102EB01          ADD       A2, A2, A3, LSL #4    ; [DPU_3_PIPE] |2813|  ; [KEEP 32-BIT INS]
    3551 0000077e 1840              ADDS      A1, A1, A2            ; [DPU_3_PIPE] |2813|  ; [ORIG 16-BIT INS]
    3552                    $C$DW$232       .dwtag  DW_TAG_TI_branch
    3553                            .dwattr $C$DW$232, DW_AT_low_pc(0x00)
    3554                            .dwattr $C$DW$232, DW_AT_name("vListInitialise")
TI ARM Assembler PC v5.1.7 Tue Sep 16 08:38:42 2014

Tools Copyright (c) 1996-2014 Texas Instruments Incorporated
tasks.asm                                                            PAGE   66

    3555                            .dwattr $C$DW$232, DW_AT_TI_call
    3556 00000780 FFFEF7FF!         BL        vListInitialise       ; [DPU_3_PIPE] |2813|  ; [KEEP 32-BIT INS]
    3557                            ; CALL OCCURS {vListInitialise }  ; [] |2813| 
    3558                            .dwpsn  file "../Source/tasks.c",line 2811,column 91,is_stmt,isa 1
    3559 00000784 9800              LDR       A1, [SP, #0]          ; [DPU_3_PIPE] |2811|  ; [ORIG 16-BIT INS]
    3560 00000786 1C40              ADDS      A1, A1, #1            ; [DPU_3_PIPE] |2811|  ; [ORIG 16-BIT INS]
    3561 00000788 9000              STR       A1, [SP, #0]          ; [DPU_3_PIPE] |2811|  ; [ORIG 16-BIT INS]
    3562                            .dwpsn  file "../Source/tasks.c",line 2811,column 40,is_stmt,isa 1
    3563 0000078a 9800              LDR       A1, [SP, #0]          ; [DPU_3_PIPE] |2811|  ; [ORIG 16-BIT INS]
    3564 0000078c 2804              CMP       A1, #4                ; [DPU_3_PIPE] |2811|  ; [ORIG 16-BIT INS]
    3565 0000078e D3F1              BCC       ||$C$L59||            ; [DPU_3_PIPE] |2811|  ; [ORIG 16-BIT INS]
    3566                            ; BRANCHCC OCCURS {||$C$L59||}   ; [] |2811| 
    3567                    ;* --------------------------------------------------------------------------*
    3568 00000790           ||$C$L60||:    
    3569                            .dwpsn  file "../Source/tasks.c",line 2816,column 2,is_stmt,isa 1
    3570 00000790 4843              LDR       A1, $C$CON27          ; [DPU_3_PIPE] |2816|  ; [ORIG 16-BIT INS]
    3571                    $C$DW$233       .dwtag  DW_TAG_TI_branch
    3572                            .dwattr $C$DW$233, DW_AT_low_pc(0x00)
    3573                            .dwattr $C$DW$233, DW_AT_name("vListInitialise")
    3574                            .dwattr $C$DW$233, DW_AT_TI_call
    3575 00000792 FFFEF7FF!         BL        vListInitialise       ; [DPU_3_PIPE] |2816|  ; [KEEP 32-BIT INS]
    3576                            ; CALL OCCURS {vListInitialise }  ; [] |2816| 
    3577                            .dwpsn  file "../Source/tasks.c",line 2817,column 2,is_stmt,isa 1
    3578 00000796 4843              LDR       A1, $C$CON28          ; [DPU_3_PIPE] |2817|  ; [ORIG 16-BIT INS]
    3579                    $C$DW$234       .dwtag  DW_TAG_TI_branch
    3580                            .dwattr $C$DW$234, DW_AT_low_pc(0x00)
    3581                            .dwattr $C$DW$234, DW_AT_name("vListInitialise")
    3582                            .dwattr $C$DW$234, DW_AT_TI_call
    3583 00000798 FFFEF7FF!         BL        vListInitialise       ; [DPU_3_PIPE] |2817|  ; [KEEP 32-BIT INS]
    3584                            ; CALL OCCURS {vListInitialise }  ; [] |2817| 
    3585                            .dwpsn  file "../Source/tasks.c",line 2818,column 2,is_stmt,isa 1
    3586 0000079c 4818              LDR       A1, $C$CON24          ; [DPU_3_PIPE] |2818|  ; [ORIG 16-BIT INS]
    3587                    $C$DW$235       .dwtag  DW_TAG_TI_branch
    3588                            .dwattr $C$DW$235, DW_AT_low_pc(0x00)
    3589                            .dwattr $C$DW$235, DW_AT_name("vListInitialise")
    3590                            .dwattr $C$DW$235, DW_AT_TI_call
    3591 0000079e FFFEF7FF!         BL        vListInitialise       ; [DPU_3_PIPE] |2818|  ; [KEEP 32-BIT INS]
    3592                            ; CALL OCCURS {vListInitialise }  ; [] |2818| 
    3593                            .dwpsn  file "../Source/tasks.c",line 2834,column 2,is_stmt,isa 1
    3594 000007a2 483F              LDR       A1, $C$CON27          ; [DPU_3_PIPE] |2834|  ; [ORIG 16-BIT INS]
    3595 000007a4 4941              LDR       A2, $C$CON30          ; [DPU_3_PIPE] |2834|  ; [ORIG 16-BIT INS]
    3596 000007a6 6008              STR       A1, [A2, #0]          ; [DPU_3_PIPE] |2834|  ; [ORIG 16-BIT INS]
    3597                            .dwpsn  file "../Source/tasks.c",line 2835,column 2,is_stmt,isa 1
    3598 000007a8 483E              LDR       A1, $C$CON28          ; [DPU_3_PIPE] |2835|  ; [ORIG 16-BIT INS]
    3599 000007aa 4941              LDR       A2, $C$CON31          ; [DPU_3_PIPE] |2835|  ; [ORIG 16-BIT INS]
    3600 000007ac 6008              STR       A1, [A2, #0]          ; [DPU_3_PIPE] |2835|  ; [ORIG 16-BIT INS]
    3601                            .dwpsn  file "../Source/tasks.c",line 2836,column 1,is_stmt,isa 1
    3602                    $C$DW$236       .dwtag  DW_TAG_TI_branch
    3603                            .dwattr $C$DW$236, DW_AT_low_pc(0x00)
    3604                            .dwattr $C$DW$236, DW_AT_TI_return
    3605 000007ae BD08              POP       {A4, PC}              ; [DPU_3_PIPE]  ; [ORIG 16-BIT INS]
    3606                            .dwcfi  cfa_offset, 0
    3607                            ; BRANCH OCCURS                  ; [] 
    3608                            .dwattr $C$DW$230, DW_AT_TI_end_file("../Source/tasks.c")
    3609                            .dwattr $C$DW$230, DW_AT_TI_end_line(0xb14)
TI ARM Assembler PC v5.1.7 Tue Sep 16 08:38:42 2014

Tools Copyright (c) 1996-2014 Texas Instruments Incorporated
tasks.asm                                                            PAGE   67

    3610                            .dwattr $C$DW$230, DW_AT_TI_end_column(0x01)
    3611                            .dwendentry
    3612                            .dwendtag $C$DW$230
    3613                    
    3614 000007b0                   .sect   ".text"
    3615                            .clink
    3616                            .thumbfunc prvCheckTasksWaitingTermination
    3617 000007b0                   .thumb
    3618                    
    3619                    $C$DW$237       .dwtag  DW_TAG_subprogram, DW_AT_name("prvCheckTasksWaitingTermination")
    3620                            .dwattr $C$DW$237, DW_AT_low_pc(prvCheckTasksWaitingTermination)
    3621                            .dwattr $C$DW$237, DW_AT_high_pc(0x00)
    3622                            .dwattr $C$DW$237, DW_AT_TI_symbol_name("prvCheckTasksWaitingTermination")
    3623                            .dwattr $C$DW$237, DW_AT_TI_begin_file("../Source/tasks.c")
    3624                            .dwattr $C$DW$237, DW_AT_TI_begin_line(0xb17)
    3625                            .dwattr $C$DW$237, DW_AT_TI_begin_column(0x0d)
    3626                            .dwattr $C$DW$237, DW_AT_decl_file("../Source/tasks.c")
    3627                            .dwattr $C$DW$237, DW_AT_decl_line(0xb17)
    3628                            .dwattr $C$DW$237, DW_AT_decl_column(0x0d)
    3629                            .dwattr $C$DW$237, DW_AT_TI_max_frame_size(0x00)
    3630                            .dwpsn  file "../Source/tasks.c",line 2840,column 1,is_stmt,address prvCheckTasksWaitingTermin
    3631                    
    3632                            .dwfde $C$DW$CIE, prvCheckTasksWaitingTermination
    3633                    
    3634                    ;*****************************************************************************
    3635                    ;* FUNCTION NAME: prvCheckTasksWaitingTermination                            *
    3636                    ;*                                                                           *
    3637                    ;*   Regs Modified     :                                                     *
    3638                    ;*   Regs Used         : LR                                                  *
    3639                    ;*   Local Frame Size  : 0 Args + 0 Auto + 0 Save = 0 byte                   *
    3640                    ;*****************************************************************************
    3641 000007b0           prvCheckTasksWaitingTermination:
    3642                    ;* --------------------------------------------------------------------------*
    3643                            .dwcfi  cfa_offset, 0
    3644                            .dwpsn  file "../Source/tasks.c",line 2877,column 1,is_stmt,isa 1
    3645                    $C$DW$238       .dwtag  DW_TAG_TI_branch
    3646                            .dwattr $C$DW$238, DW_AT_low_pc(0x00)
    3647                            .dwattr $C$DW$238, DW_AT_TI_return
    3648 000007b0 4770              BX        LR                    ; [DPU_3_PIPE]  ; [ORIG 16-BIT INS]
    3649                            ; BRANCH OCCURS                  ; [] 
    3650                            .dwattr $C$DW$237, DW_AT_TI_end_file("../Source/tasks.c")
    3651                            .dwattr $C$DW$237, DW_AT_TI_end_line(0xb3d)
    3652                            .dwattr $C$DW$237, DW_AT_TI_end_column(0x01)
    3653                            .dwendentry
    3654                            .dwendtag $C$DW$237
    3655                    
    3656                    ;******************************************************************************
    3657                    ;* CONSTANT TABLE                                                             *
    3658                    ;******************************************************************************
    3659 000007b2                   .sect   ".text"
    3660                            .align  4
    3661 000007b2 000046C0! ||$C$CON23||:   .bits   uxSchedulerSuspended,32
         000007b6 00000000 
    3662 000007b8                   .sect   ".text"
    3663                            .clink
TI ARM Assembler PC v5.1.7 Tue Sep 16 08:38:42 2014

Tools Copyright (c) 1996-2014 Texas Instruments Incorporated
tasks.asm                                                            PAGE   68

    3664                            .thumbfunc prvAddCurrentTaskToDelayedList
    3665 000007b8                   .thumb
    3666                    
    3667                    $C$DW$239       .dwtag  DW_TAG_subprogram, DW_AT_name("prvAddCurrentTaskToDelayedList")
    3668                            .dwattr $C$DW$239, DW_AT_low_pc(prvAddCurrentTaskToDelayedList)
    3669                            .dwattr $C$DW$239, DW_AT_high_pc(0x00)
    3670                            .dwattr $C$DW$239, DW_AT_TI_symbol_name("prvAddCurrentTaskToDelayedList")
    3671                            .dwattr $C$DW$239, DW_AT_TI_begin_file("../Source/tasks.c")
    3672                            .dwattr $C$DW$239, DW_AT_TI_begin_line(0xb40)
    3673                            .dwattr $C$DW$239, DW_AT_TI_begin_column(0x0d)
    3674                            .dwattr $C$DW$239, DW_AT_decl_file("../Source/tasks.c")
    3675                            .dwattr $C$DW$239, DW_AT_decl_line(0xb40)
    3676                            .dwattr $C$DW$239, DW_AT_decl_column(0x0d)
    3677                            .dwattr $C$DW$239, DW_AT_TI_max_frame_size(0x08)
    3678                            .dwpsn  file "../Source/tasks.c",line 2881,column 1,is_stmt,address prvAddCurrentTaskToDelayed
    3679                    
    3680                            .dwfde $C$DW$CIE, prvAddCurrentTaskToDelayedList
    3681                    $C$DW$240       .dwtag  DW_TAG_formal_parameter, DW_AT_name("xTimeToWake")
    3682                            .dwattr $C$DW$240, DW_AT_TI_symbol_name("xTimeToWake")
    3683                            .dwattr $C$DW$240, DW_AT_type(*$C$DW$T$87)
    3684                            .dwattr $C$DW$240, DW_AT_location[DW_OP_reg0]
    3685                    
    3686                    ;*****************************************************************************
    3687                    ;* FUNCTION NAME: prvAddCurrentTaskToDelayedList                             *
    3688                    ;*                                                                           *
    3689                    ;*   Regs Modified     : A1,A2,A3,A4,V9,SP,LR,SR,D0,D0_hi,D1,D1_hi,D2,D2_hi, *
    3690                    ;*                           D3,D3_hi,D4,D4_hi,D5,D5_hi,D6,D6_hi,D7,D7_hi,   *
    3691                    ;*                           FPEXC,FPSCR                                     *
    3692                    ;*   Regs Used         : A1,A2,A3,A4,V9,SP,LR,SR,D0,D0_hi,D1,D1_hi,D2,D2_hi, *
    3693                    ;*                           D3,D3_hi,D4,D4_hi,D5,D5_hi,D6,D6_hi,D7,D7_hi,   *
    3694                    ;*                           FPEXC,FPSCR                                     *
    3695                    ;*   Local Frame Size  : 0 Args + 4 Auto + 4 Save = 8 byte                   *
    3696                    ;*****************************************************************************
    3697 000007b8           prvAddCurrentTaskToDelayedList:
    3698                    ;* --------------------------------------------------------------------------*
    3699                            .dwcfi  cfa_offset, 0
    3700 000007b8 B508              PUSH      {A4, LR}              ; [DPU_3_PIPE]  ; [ORIG 16-BIT INS]
    3701                            .dwcfi  cfa_offset, 8
    3702                            .dwcfi  save_reg_to_mem, 14, -4
    3703                            .dwcfi  save_reg_to_mem, 3, -8
    3704                    $C$DW$241       .dwtag  DW_TAG_variable, DW_AT_name("xTimeToWake")
    3705                            .dwattr $C$DW$241, DW_AT_TI_symbol_name("xTimeToWake")
    3706                            .dwattr $C$DW$241, DW_AT_type(*$C$DW$T$87)
    3707                            .dwattr $C$DW$241, DW_AT_location[DW_OP_breg13 0]
    3708 000007ba 9000              STR       A1, [SP, #0]          ; [DPU_3_PIPE] |2881|  ; [ORIG 16-BIT INS]
    3709                            .dwpsn  file "../Source/tasks.c",line 2883,column 2,is_stmt,isa 1
    3710 000007bc 493D              LDR       A2, $C$CON32          ; [DPU_3_PIPE] |2883|  ; [ORIG 16-BIT INS]
    3711 000007be 9800              LDR       A1, [SP, #0]          ; [DPU_3_PIPE] |2883|  ; [ORIG 16-BIT INS]
    3712 000007c0 6809              LDR       A2, [A2, #0]          ; [DPU_3_PIPE] |2883|  ; [ORIG 16-BIT INS]
    3713 000007c2 6048              STR       A1, [A2, #4]          ; [DPU_3_PIPE] |2883|  ; [ORIG 16-BIT INS]
    3714                            .dwpsn  file "../Source/tasks.c",line 2885,column 2,is_stmt,isa 1
    3715 000007c4 483C              LDR       A1, $C$CON33          ; [DPU_3_PIPE] |2885|  ; [ORIG 16-BIT INS]
    3716 000007c6 9900              LDR       A2, [SP, #0]          ; [DPU_3_PIPE] |2885|  ; [ORIG 16-BIT INS]
    3717 000007c8 6800              LDR       A1, [A1, #0]          ; [DPU_3_PIPE] |2885|  ; [ORIG 16-BIT INS]
    3718 000007ca 4288              CMP       A1, A2                ; [DPU_3_PIPE] |2885|  ; [ORIG 16-BIT INS]
TI ARM Assembler PC v5.1.7 Tue Sep 16 08:38:42 2014

Tools Copyright (c) 1996-2014 Texas Instruments Incorporated
tasks.asm                                                            PAGE   69

    3719 000007cc D907              BLS       ||$C$L61||            ; [DPU_3_PIPE] |2885|  ; [ORIG 16-BIT INS]
    3720                            ; BRANCHCC OCCURS {||$C$L61||}   ; [] |2885| 
    3721                    ;* --------------------------------------------------------------------------*
    3722                            .dwpsn  file "../Source/tasks.c",line 2888,column 3,is_stmt,isa 1
    3723 000007ce 4839              LDR       A1, $C$CON32          ; [DPU_3_PIPE] |2888|  ; [ORIG 16-BIT INS]
    3724 000007d0 6801              LDR       A2, [A1, #0]          ; [DPU_3_PIPE] |2888|  ; [ORIG 16-BIT INS]
    3725 000007d2 4837              LDR       A1, $C$CON31          ; [DPU_3_PIPE] |2888|  ; [ORIG 16-BIT INS]
    3726 000007d4 6800              LDR       A1, [A1, #0]          ; [DPU_3_PIPE] |2888|  ; [ORIG 16-BIT INS]
    3727 000007d6 1D09              ADDS      A2, A2, #4            ; [DPU_3_PIPE] |2888|  ; [ORIG 16-BIT INS]
    3728                    $C$DW$242       .dwtag  DW_TAG_TI_branch
    3729                            .dwattr $C$DW$242, DW_AT_low_pc(0x00)
    3730                            .dwattr $C$DW$242, DW_AT_name("vListInsert")
    3731                            .dwattr $C$DW$242, DW_AT_TI_call
    3732 000007d8 FFFEF7FF!         BL        vListInsert           ; [DPU_3_PIPE] |2888|  ; [KEEP 32-BIT INS]
    3733                            ; CALL OCCURS {vListInsert }     ; [] |2888| 
    3734                            .dwpsn  file "../Source/tasks.c",line 2889,column 2,is_stmt,isa 1
    3735 000007dc E00F              B         ||$C$L62||            ; [DPU_3_PIPE] |2889|  ; [ORIG 16-BIT INS]
    3736                            ; BRANCH OCCURS {||$C$L62||}     ; [] |2889| 
    3737                    ;* --------------------------------------------------------------------------*
    3738 000007de           ||$C$L61||:    
    3739                            .dwpsn  file "../Source/tasks.c",line 2893,column 3,is_stmt,isa 1
    3740 000007de 4835              LDR       A1, $C$CON32          ; [DPU_3_PIPE] |2893|  ; [ORIG 16-BIT INS]
    3741 000007e0 6801              LDR       A2, [A1, #0]          ; [DPU_3_PIPE] |2893|  ; [ORIG 16-BIT INS]
    3742 000007e2 4832              LDR       A1, $C$CON30          ; [DPU_3_PIPE] |2893|  ; [ORIG 16-BIT INS]
    3743 000007e4 6800              LDR       A1, [A1, #0]          ; [DPU_3_PIPE] |2893|  ; [ORIG 16-BIT INS]
    3744 000007e6 1D09              ADDS      A2, A2, #4            ; [DPU_3_PIPE] |2893|  ; [ORIG 16-BIT INS]
    3745                    $C$DW$243       .dwtag  DW_TAG_TI_branch
    3746                            .dwattr $C$DW$243, DW_AT_low_pc(0x00)
    3747                            .dwattr $C$DW$243, DW_AT_name("vListInsert")
    3748                            .dwattr $C$DW$243, DW_AT_TI_call
    3749 000007e8 FFFEF7FF!         BL        vListInsert           ; [DPU_3_PIPE] |2893|  ; [KEEP 32-BIT INS]
    3750                            ; CALL OCCURS {vListInsert }     ; [] |2893| 
    3751                            .dwpsn  file "../Source/tasks.c",line 2898,column 3,is_stmt,isa 1
    3752 000007ec 4833              LDR       A1, $C$CON34          ; [DPU_3_PIPE] |2898|  ; [ORIG 16-BIT INS]
    3753 000007ee 9900              LDR       A2, [SP, #0]          ; [DPU_3_PIPE] |2898|  ; [ORIG 16-BIT INS]
    3754 000007f0 6800              LDR       A1, [A1, #0]          ; [DPU_3_PIPE] |2898|  ; [ORIG 16-BIT INS]
    3755 000007f2 4288              CMP       A1, A2                ; [DPU_3_PIPE] |2898|  ; [ORIG 16-BIT INS]
    3756 000007f4 D903              BLS       ||$C$L62||            ; [DPU_3_PIPE] |2898|  ; [ORIG 16-BIT INS]
    3757                            ; BRANCHCC OCCURS {||$C$L62||}   ; [] |2898| 
    3758                    ;* --------------------------------------------------------------------------*
    3759                            .dwpsn  file "../Source/tasks.c",line 2900,column 4,is_stmt,isa 1
    3760 000007f6 9800              LDR       A1, [SP, #0]          ; [DPU_3_PIPE] |2900|  ; [ORIG 16-BIT INS]
    3761 000007f8 4930              LDR       A2, $C$CON34          ; [DPU_3_PIPE] |2900|  ; [ORIG 16-BIT INS]
    3762 000007fa 6008              STR       A1, [A2, #0]          ; [DPU_3_PIPE] |2900|  ; [ORIG 16-BIT INS]
    3763                            .dwpsn  file "../Source/tasks.c",line 2901,column 3,is_stmt,isa 1
    3764 000007fc E7FF              B         ||$C$L62||            ; [DPU_3_PIPE] |2901|  ; [ORIG 16-BIT INS]
    3765                            ; BRANCH OCCURS {||$C$L62||}     ; [] |2901| 
    3766                    ;* --------------------------------------------------------------------------*
    3767                    ;* --------------------------------------------------------------------------*
    3768                    ||$C$L62||:    
    3769                    $C$DW$244       .dwtag  DW_TAG_TI_branch
    3770                            .dwattr $C$DW$244, DW_AT_low_pc(0x00)
    3771                            .dwattr $C$DW$244, DW_AT_TI_return
    3772 000007fe BD08              POP       {A4, PC}              ; [DPU_3_PIPE]  ; [ORIG 16-BIT INS]
    3773                            .dwcfi  cfa_offset, 0
TI ARM Assembler PC v5.1.7 Tue Sep 16 08:38:42 2014

Tools Copyright (c) 1996-2014 Texas Instruments Incorporated
tasks.asm                                                            PAGE   70

    3774                            ; BRANCH OCCURS                  ; [] 
    3775                            .dwattr $C$DW$239, DW_AT_TI_end_file("../Source/tasks.c")
    3776                            .dwattr $C$DW$239, DW_AT_TI_end_line(0xb5b)
    3777                            .dwattr $C$DW$239, DW_AT_TI_end_column(0x01)
    3778                            .dwendentry
    3779                            .dwendtag $C$DW$239
    3780                    
    3781                    ;******************************************************************************
    3782                    ;* CONSTANT TABLE                                                             *
    3783                    ;******************************************************************************
    3784 00000800                   .sect   ".text"
    3785                            .align  4
    3786 00000800 00000000! ||$C$CON24||:   .bits   xPendingReadyList,32
    3787 00000804                   .sect   ".text"
    3788                            .clink
    3789                            .thumbfunc prvAllocateTCBAndStack
    3790 00000804                   .thumb
    3791                    
    3792                    $C$DW$245       .dwtag  DW_TAG_subprogram, DW_AT_name("prvAllocateTCBAndStack")
    3793                            .dwattr $C$DW$245, DW_AT_low_pc(prvAllocateTCBAndStack)
    3794                            .dwattr $C$DW$245, DW_AT_high_pc(0x00)
    3795                            .dwattr $C$DW$245, DW_AT_TI_symbol_name("prvAllocateTCBAndStack")
    3796                            .dwattr $C$DW$245, DW_AT_type(*$C$DW$T$100)
    3797                            .dwattr $C$DW$245, DW_AT_TI_begin_file("../Source/tasks.c")
    3798                            .dwattr $C$DW$245, DW_AT_TI_begin_line(0xb5e)
    3799                            .dwattr $C$DW$245, DW_AT_TI_begin_column(0x0f)
    3800                            .dwattr $C$DW$245, DW_AT_decl_file("../Source/tasks.c")
    3801                            .dwattr $C$DW$245, DW_AT_decl_line(0xb5e)
    3802                            .dwattr $C$DW$245, DW_AT_decl_column(0x0f)
    3803                            .dwattr $C$DW$245, DW_AT_TI_max_frame_size(0x10)
    3804                            .dwpsn  file "../Source/tasks.c",line 2911,column 1,is_stmt,address prvAllocateTCBAndStack,isa
    3805                    
    3806                            .dwfde $C$DW$CIE, prvAllocateTCBAndStack
    3807                    $C$DW$246       .dwtag  DW_TAG_formal_parameter, DW_AT_name("usStackDepth")
    3808                            .dwattr $C$DW$246, DW_AT_TI_symbol_name("usStackDepth")
    3809                            .dwattr $C$DW$246, DW_AT_type(*$C$DW$T$105)
    3810                            .dwattr $C$DW$246, DW_AT_location[DW_OP_reg0]
    3811                    $C$DW$247       .dwtag  DW_TAG_formal_parameter, DW_AT_name("puxStackBuffer")
    3812                            .dwattr $C$DW$247, DW_AT_TI_symbol_name("puxStackBuffer")
    3813                            .dwattr $C$DW$247, DW_AT_type(*$C$DW$T$135)
    3814                            .dwattr $C$DW$247, DW_AT_location[DW_OP_reg1]
    3815                    
    3816                    ;*****************************************************************************
    3817                    ;* FUNCTION NAME: prvAllocateTCBAndStack                                     *
    3818                    ;*                                                                           *
    3819                    ;*   Regs Modified     : A1,A2,A3,A4,V9,SP,LR,SR,D0,D0_hi,D1,D1_hi,D2,D2_hi, *
    3820                    ;*                           D3,D3_hi,D4,D4_hi,D5,D5_hi,D6,D6_hi,D7,D7_hi,   *
    3821                    ;*                           FPEXC,FPSCR                                     *
    3822                    ;*   Regs Used         : A1,A2,A3,A4,V9,SP,LR,SR,D0,D0_hi,D1,D1_hi,D2,D2_hi, *
    3823                    ;*                           D3,D3_hi,D4,D4_hi,D5,D5_hi,D6,D6_hi,D7,D7_hi,   *
    3824                    ;*                           FPEXC,FPSCR                                     *
    3825                    ;*   Local Frame Size  : 0 Args + 12 Auto + 4 Save = 16 byte                 *
    3826                    ;*****************************************************************************
    3827 00000804           prvAllocateTCBAndStack:
    3828                    ;* --------------------------------------------------------------------------*
TI ARM Assembler PC v5.1.7 Tue Sep 16 08:38:42 2014

Tools Copyright (c) 1996-2014 Texas Instruments Incorporated
tasks.asm                                                            PAGE   71

    3829                            .dwcfi  cfa_offset, 0
    3830 00000804 B50E              PUSH      {A2, A3, A4, LR}      ; [DPU_3_PIPE]  ; [ORIG 16-BIT INS]
    3831                            .dwcfi  cfa_offset, 16
    3832                            .dwcfi  save_reg_to_mem, 14, -4
    3833                            .dwcfi  save_reg_to_mem, 3, -8
    3834                            .dwcfi  save_reg_to_mem, 2, -12
    3835                            .dwcfi  save_reg_to_mem, 1, -16
    3836                    $C$DW$248       .dwtag  DW_TAG_variable, DW_AT_name("usStackDepth")
    3837                            .dwattr $C$DW$248, DW_AT_TI_symbol_name("usStackDepth")
    3838                            .dwattr $C$DW$248, DW_AT_type(*$C$DW$T$105)
    3839                            .dwattr $C$DW$248, DW_AT_location[DW_OP_breg13 0]
    3840                    $C$DW$249       .dwtag  DW_TAG_variable, DW_AT_name("puxStackBuffer")
    3841                            .dwattr $C$DW$249, DW_AT_TI_symbol_name("puxStackBuffer")
    3842                            .dwattr $C$DW$249, DW_AT_type(*$C$DW$T$135)
    3843                            .dwattr $C$DW$249, DW_AT_location[DW_OP_breg13 4]
    3844                    $C$DW$250       .dwtag  DW_TAG_variable, DW_AT_name("pxNewTCB")
    3845                            .dwattr $C$DW$250, DW_AT_TI_symbol_name("pxNewTCB")
    3846                            .dwattr $C$DW$250, DW_AT_type(*$C$DW$T$100)
    3847                            .dwattr $C$DW$250, DW_AT_location[DW_OP_breg13 8]
    3848 00000806 9101              STR       A2, [SP, #4]          ; [DPU_3_PIPE] |2911|  ; [ORIG 16-BIT INS]
    3849 00000808 0000F8AD          STRH      A1, [SP, #0]          ; [DPU_3_PIPE] |2911|  ; [KEEP 32-BIT INS]
    3850                            .dwpsn  file "../Source/tasks.c",line 2916,column 2,is_stmt,isa 1
    3851 0000080c 2044              MOVS      A1, #68               ; [DPU_3_PIPE] |2916|  ; [ORIG 16-BIT INS]
    3852                    $C$DW$251       .dwtag  DW_TAG_TI_branch
    3853                            .dwattr $C$DW$251, DW_AT_low_pc(0x00)
    3854                            .dwattr $C$DW$251, DW_AT_name("pvPortMalloc")
    3855                            .dwattr $C$DW$251, DW_AT_TI_call
    3856 0000080e FFFEF7FF!         BL        pvPortMalloc          ; [DPU_3_PIPE] |2916|  ; [KEEP 32-BIT INS]
    3857                            ; CALL OCCURS {pvPortMalloc }    ; [] |2916| 
    3858 00000812 9002              STR       A1, [SP, #8]          ; [DPU_3_PIPE] |2916|  ; [ORIG 16-BIT INS]
    3859                            .dwpsn  file "../Source/tasks.c",line 2918,column 2,is_stmt,isa 1
    3860 00000814 9802              LDR       A1, [SP, #8]          ; [DPU_3_PIPE] |2918|  ; [ORIG 16-BIT INS]
    3861 00000816 B190              CBZ       A1, ||$C$L65||        ; []  ; [ORIG 16-BIT INS]
    3862                            ; BRANCHCC OCCURS {||$C$L65||}   ; [] |2918| 
    3863                    ;* --------------------------------------------------------------------------*
    3864                            .dwpsn  file "../Source/tasks.c",line 2923,column 3,is_stmt,isa 1
    3865 00000818 9801              LDR       A1, [SP, #4]          ; [DPU_3_PIPE] |2923|  ; [ORIG 16-BIT INS]
    3866 0000081a B928              CBNZ      A1, ||$C$L63||        ; []  ; [ORIG 16-BIT INS]
    3867                            ; BRANCHCC OCCURS {||$C$L63||}   ; [] |2923| 
    3868                    ;* --------------------------------------------------------------------------*
    3869 0000081c 0000F8BD          LDRH      A1, [SP, #0]          ; [DPU_3_PIPE] |2923|  ; [KEEP 32-BIT INS]
    3870 00000820 0080              LSLS      A1, A1, #2            ; [DPU_3_PIPE] |2923|  ; [ORIG 16-BIT INS]
    3871                    $C$DW$252       .dwtag  DW_TAG_TI_branch
    3872                            .dwattr $C$DW$252, DW_AT_low_pc(0x00)
    3873                            .dwattr $C$DW$252, DW_AT_name("pvPortMalloc")
    3874                            .dwattr $C$DW$252, DW_AT_TI_call
    3875 00000822 FFFEF7FF!         BL        pvPortMalloc          ; [DPU_3_PIPE] |2923|  ; [KEEP 32-BIT INS]
    3876                            ; CALL OCCURS {pvPortMalloc }    ; [] |2923| 
    3877 00000826 E000              B         ||$C$L64||            ; [DPU_3_PIPE] |2923|  ; [ORIG 16-BIT INS]
    3878                            ; BRANCH OCCURS {||$C$L64||}     ; [] |2923| 
    3879                    ;* --------------------------------------------------------------------------*
    3880 00000828           ||$C$L63||:    
    3881 00000828 9801              LDR       A1, [SP, #4]          ; [DPU_3_PIPE] |2923|  ; [ORIG 16-BIT INS]
    3882                    ;* --------------------------------------------------------------------------*
    3883 0000082a           ||$C$L64||:    
TI ARM Assembler PC v5.1.7 Tue Sep 16 08:38:42 2014

Tools Copyright (c) 1996-2014 Texas Instruments Incorporated
tasks.asm                                                            PAGE   72

    3884 0000082a 9902              LDR       A2, [SP, #8]          ; [DPU_3_PIPE] |2923|  ; [ORIG 16-BIT INS]
    3885 0000082c 6308              STR       A1, [A2, #48]         ; [DPU_3_PIPE] |2923|  ; [ORIG 16-BIT INS]
    3886                            .dwpsn  file "../Source/tasks.c",line 2925,column 3,is_stmt,isa 1
    3887 0000082e 9802              LDR       A1, [SP, #8]          ; [DPU_3_PIPE] |2925|  ; [ORIG 16-BIT INS]
    3888 00000830 6B00              LDR       A1, [A1, #48]         ; [DPU_3_PIPE] |2925|  ; [ORIG 16-BIT INS]
    3889 00000832 B920              CBNZ      A1, ||$C$L65||        ; []  ; [ORIG 16-BIT INS]
    3890                            ; BRANCHCC OCCURS {||$C$L65||}   ; [] |2925| 
    3891                    ;* --------------------------------------------------------------------------*
    3892                            .dwpsn  file "../Source/tasks.c",line 2928,column 4,is_stmt,isa 1
    3893 00000834 9802              LDR       A1, [SP, #8]          ; [DPU_3_PIPE] |2928|  ; [ORIG 16-BIT INS]
    3894                    $C$DW$253       .dwtag  DW_TAG_TI_branch
    3895                            .dwattr $C$DW$253, DW_AT_low_pc(0x00)
    3896                            .dwattr $C$DW$253, DW_AT_name("vPortFree")
    3897                            .dwattr $C$DW$253, DW_AT_TI_call
    3898 00000836 FFFEF7FF!         BL        vPortFree             ; [DPU_3_PIPE] |2928|  ; [KEEP 32-BIT INS]
    3899                            ; CALL OCCURS {vPortFree }       ; [] |2928| 
    3900                            .dwpsn  file "../Source/tasks.c",line 2929,column 4,is_stmt,isa 1
    3901 0000083a 2000              MOVS      A1, #0                ; [DPU_3_PIPE] |2929|  ; [ORIG 16-BIT INS]
    3902 0000083c 9002              STR       A1, [SP, #8]          ; [DPU_3_PIPE] |2929|  ; [ORIG 16-BIT INS]
    3903                            .dwpsn  file "../Source/tasks.c",line 2930,column 3,is_stmt,isa 1
    3904                    ;* --------------------------------------------------------------------------*
    3905 0000083e           ||$C$L65||:    
    3906                            .dwpsn  file "../Source/tasks.c",line 2943,column 2,is_stmt,isa 1
    3907 0000083e 9802              LDR       A1, [SP, #8]          ; [DPU_3_PIPE] |2943|  ; [ORIG 16-BIT INS]
    3908                            .dwpsn  file "../Source/tasks.c",line 2944,column 1,is_stmt,isa 1
    3909                    $C$DW$254       .dwtag  DW_TAG_TI_branch
    3910                            .dwattr $C$DW$254, DW_AT_low_pc(0x00)
    3911                            .dwattr $C$DW$254, DW_AT_TI_return
    3912 00000840 BD0E              POP       {A2, A3, A4, PC}      ; [DPU_3_PIPE]  ; [ORIG 16-BIT INS]
    3913                            .dwcfi  cfa_offset, 0
    3914                            ; BRANCH OCCURS                  ; [] 
    3915                            .dwattr $C$DW$245, DW_AT_TI_end_file("../Source/tasks.c")
    3916                            .dwattr $C$DW$245, DW_AT_TI_end_line(0xb80)
    3917                            .dwattr $C$DW$245, DW_AT_TI_end_column(0x01)
    3918                            .dwendentry
    3919                            .dwendtag $C$DW$245
    3920                    
    3921                    ;******************************************************************************
    3922                    ;* CONSTANT TABLE                                                             *
    3923                    ;******************************************************************************
    3924 00000842                   .sect   ".text"
    3925                            .align  4
    3926 00000842 000046C0! ||$C$CON25||:   .bits   xYieldPending,32
         00000846 00000000 
    3927 00000848                   .sect   ".text"
    3928                            .clink
    3929                            .thumbfunc prvResetNextTaskUnblockTime
    3930 00000848                   .thumb
    3931                    
    3932                    $C$DW$255       .dwtag  DW_TAG_subprogram, DW_AT_name("prvResetNextTaskUnblockTime")
    3933                            .dwattr $C$DW$255, DW_AT_low_pc(prvResetNextTaskUnblockTime)
    3934                            .dwattr $C$DW$255, DW_AT_high_pc(0x00)
    3935                            .dwattr $C$DW$255, DW_AT_TI_symbol_name("prvResetNextTaskUnblockTime")
    3936                            .dwattr $C$DW$255, DW_AT_TI_begin_file("../Source/tasks.c")
    3937                            .dwattr $C$DW$255, DW_AT_TI_begin_line(0xc1f)
TI ARM Assembler PC v5.1.7 Tue Sep 16 08:38:42 2014

Tools Copyright (c) 1996-2014 Texas Instruments Incorporated
tasks.asm                                                            PAGE   73

    3938                            .dwattr $C$DW$255, DW_AT_TI_begin_column(0x0d)
    3939                            .dwattr $C$DW$255, DW_AT_decl_file("../Source/tasks.c")
    3940                            .dwattr $C$DW$255, DW_AT_decl_line(0xc1f)
    3941                            .dwattr $C$DW$255, DW_AT_decl_column(0x0d)
    3942                            .dwattr $C$DW$255, DW_AT_TI_max_frame_size(0x08)
    3943                            .dwpsn  file "../Source/tasks.c",line 3104,column 1,is_stmt,address prvResetNextTaskUnblockTim
    3944                    
    3945                            .dwfde $C$DW$CIE, prvResetNextTaskUnblockTime
    3946                    
    3947                    ;*****************************************************************************
    3948                    ;* FUNCTION NAME: prvResetNextTaskUnblockTime                                *
    3949                    ;*                                                                           *
    3950                    ;*   Regs Modified     : A1,A2,SP,SR                                         *
    3951                    ;*   Regs Used         : A1,A2,SP,LR,SR                                      *
    3952                    ;*   Local Frame Size  : 0 Args + 4 Auto + 0 Save = 4 byte                   *
    3953                    ;*****************************************************************************
    3954 00000848           prvResetNextTaskUnblockTime:
    3955                    ;* --------------------------------------------------------------------------*
    3956                            .dwcfi  cfa_offset, 0
    3957 00000848 0D08F1AD          SUB       SP, SP, #8            ; [DPU_3_PIPE]  ; [KEEP 32-BIT INS]
    3958                            .dwcfi  cfa_offset, 8
    3959                    $C$DW$256       .dwtag  DW_TAG_variable, DW_AT_name("pxTCB")
    3960                            .dwattr $C$DW$256, DW_AT_TI_symbol_name("pxTCB")
    3961                            .dwattr $C$DW$256, DW_AT_type(*$C$DW$T$100)
    3962                            .dwattr $C$DW$256, DW_AT_location[DW_OP_breg13 0]
    3963                            .dwpsn  file "../Source/tasks.c",line 3107,column 2,is_stmt,isa 1
    3964 0000084c 4817              LDR       A1, $C$CON30          ; [DPU_3_PIPE] |3107|  ; [ORIG 16-BIT INS]
    3965 0000084e 6800              LDR       A1, [A1, #0]          ; [DPU_3_PIPE] |3107|  ; [ORIG 16-BIT INS]
    3966 00000850 6801              LDR       A2, [A1, #0]          ; [DPU_3_PIPE] |3107|  ; [ORIG 16-BIT INS]
    3967 00000852 2000              MOVS      A1, #0                ; [DPU_3_PIPE] |3107|  ; [ORIG 16-BIT INS]
    3968 00000854 B901              CBNZ      A2, ||$C$L66||        ; []  ; [ORIG 16-BIT INS]
    3969                            ; BRANCHCC OCCURS {||$C$L66||}   ; [] |3107| 
    3970                    ;* --------------------------------------------------------------------------*
    3971 00000856 2001              MOVS      A1, #1                ; [DPU_3_PIPE] |3107|  ; [ORIG 16-BIT INS]
    3972                    ;* --------------------------------------------------------------------------*
    3973 00000858           ||$C$L66||:    
    3974 00000858 B120              CBZ       A1, ||$C$L67||        ; []  ; [ORIG 16-BIT INS]
    3975                            ; BRANCHCC OCCURS {||$C$L67||}   ; [] |3107| 
    3976                    ;* --------------------------------------------------------------------------*
    3977                            .dwpsn  file "../Source/tasks.c",line 3114,column 3,is_stmt,isa 1
    3978 0000085a 4918              LDR       A2, $C$CON34          ; [DPU_3_PIPE] |3114|  ; [ORIG 16-BIT INS]
    3979 0000085c 30FFF04F          MOV       A1, #-1               ; [DPU_3_PIPE] |3114|  ; [KEEP 32-BIT INS]
    3980 00000860 6008              STR       A1, [A2, #0]          ; [DPU_3_PIPE] |3114|  ; [ORIG 16-BIT INS]
    3981                            .dwpsn  file "../Source/tasks.c",line 3115,column 2,is_stmt,isa 1
    3982 00000862 E008              B         ||$C$L68||            ; [DPU_3_PIPE] |3115|  ; [ORIG 16-BIT INS]
    3983                            ; BRANCH OCCURS {||$C$L68||}     ; [] |3115| 
    3984                    ;* --------------------------------------------------------------------------*
    3985 00000864           ||$C$L67||:    
    3986                            .dwpsn  file "../Source/tasks.c",line 3122,column 3,is_stmt,isa 1
    3987 00000864 4811              LDR       A1, $C$CON30          ; [DPU_3_PIPE] |3122|  ; [ORIG 16-BIT INS]
    3988 00000866 6800              LDR       A1, [A1, #0]          ; [DPU_3_PIPE] |3122|  ; [ORIG 16-BIT INS]
    3989 00000868 68C0              LDR       A1, [A1, #12]         ; [DPU_3_PIPE] |3122|  ; [ORIG 16-BIT INS]
    3990 0000086a 68C0              LDR       A1, [A1, #12]         ; [DPU_3_PIPE] |3122|  ; [ORIG 16-BIT INS]
    3991 0000086c 9000              STR       A1, [SP, #0]          ; [DPU_3_PIPE] |3122|  ; [ORIG 16-BIT INS]
    3992                            .dwpsn  file "../Source/tasks.c",line 3123,column 3,is_stmt,isa 1
TI ARM Assembler PC v5.1.7 Tue Sep 16 08:38:42 2014

Tools Copyright (c) 1996-2014 Texas Instruments Incorporated
tasks.asm                                                            PAGE   74

    3993 0000086e 4913              LDR       A2, $C$CON34          ; [DPU_3_PIPE] |3123|  ; [ORIG 16-BIT INS]
    3994 00000870 9800              LDR       A1, [SP, #0]          ; [DPU_3_PIPE] |3123|  ; [ORIG 16-BIT INS]
    3995 00000872 6840              LDR       A1, [A1, #4]          ; [DPU_3_PIPE] |3123|  ; [ORIG 16-BIT INS]
    3996 00000874 6008              STR       A1, [A2, #0]          ; [DPU_3_PIPE] |3123|  ; [ORIG 16-BIT INS]
    3997                            .dwpsn  file "../Source/tasks.c",line 3125,column 1,is_stmt,isa 1
    3998                    ;* --------------------------------------------------------------------------*
    3999 00000876           ||$C$L68||:    
    4000 00000876 B002              ADD       SP, SP, #8            ; [DPU_3_PIPE]  ; [ORIG 16-BIT INS]
    4001                            .dwcfi  cfa_offset, 0
    4002                    $C$DW$257       .dwtag  DW_TAG_TI_branch
    4003                            .dwattr $C$DW$257, DW_AT_low_pc(0x00)
    4004                            .dwattr $C$DW$257, DW_AT_TI_return
    4005 00000878 4770              BX        LR                    ; [DPU_3_PIPE]  ; [ORIG 16-BIT INS]
    4006                            ; BRANCH OCCURS                  ; [] 
    4007                            .dwattr $C$DW$255, DW_AT_TI_end_file("../Source/tasks.c")
    4008                            .dwattr $C$DW$255, DW_AT_TI_end_line(0xc35)
    4009                            .dwattr $C$DW$255, DW_AT_TI_end_column(0x01)
    4010                            .dwendentry
    4011                            .dwendtag $C$DW$255
    4012                    
    4013 0000087a                   .sect   ".text"
    4014                            .clink
    4015                            .thumbfunc uxTaskResetEventItemValue
    4016 0000087a                   .thumb
    4017                            .global uxTaskResetEventItemValue
    4018                    
    4019                    $C$DW$258       .dwtag  DW_TAG_subprogram, DW_AT_name("uxTaskResetEventItemValue")
    4020                            .dwattr $C$DW$258, DW_AT_low_pc(uxTaskResetEventItemValue)
    4021                            .dwattr $C$DW$258, DW_AT_high_pc(0x00)
    4022                            .dwattr $C$DW$258, DW_AT_TI_symbol_name("uxTaskResetEventItemValue")
    4023                            .dwattr $C$DW$258, DW_AT_external
    4024                            .dwattr $C$DW$258, DW_AT_type(*$C$DW$T$36)
    4025                            .dwattr $C$DW$258, DW_AT_TI_begin_file("../Source/tasks.c")
    4026                            .dwattr $C$DW$258, DW_AT_TI_begin_line(0xdda)
    4027                            .dwattr $C$DW$258, DW_AT_TI_begin_column(0x0c)
    4028                            .dwattr $C$DW$258, DW_AT_decl_file("../Source/tasks.c")
    4029                            .dwattr $C$DW$258, DW_AT_decl_line(0xdda)
    4030                            .dwattr $C$DW$258, DW_AT_decl_column(0x0c)
    4031                            .dwattr $C$DW$258, DW_AT_TI_max_frame_size(0x08)
    4032                            .dwpsn  file "../Source/tasks.c",line 3547,column 1,is_stmt,address uxTaskResetEventItemValue,
    4033                    
    4034                            .dwfde $C$DW$CIE, uxTaskResetEventItemValue
    4035                    
    4036                    ;*****************************************************************************
    4037                    ;* FUNCTION NAME: uxTaskResetEventItemValue                                  *
    4038                    ;*                                                                           *
    4039                    ;*   Regs Modified     : A1,A2,SP                                            *
    4040                    ;*   Regs Used         : A1,A2,SP,LR                                         *
    4041                    ;*   Local Frame Size  : 0 Args + 4 Auto + 0 Save = 4 byte                   *
    4042                    ;*****************************************************************************
    4043 0000087a           uxTaskResetEventItemValue:
    4044                    ;* --------------------------------------------------------------------------*
    4045                            .dwcfi  cfa_offset, 0
    4046 0000087a 0D08F1AD          SUB       SP, SP, #8            ; [DPU_3_PIPE]  ; [KEEP 32-BIT INS]
    4047                            .dwcfi  cfa_offset, 8
TI ARM Assembler PC v5.1.7 Tue Sep 16 08:38:42 2014

Tools Copyright (c) 1996-2014 Texas Instruments Incorporated
tasks.asm                                                            PAGE   75

    4048                    $C$DW$259       .dwtag  DW_TAG_variable, DW_AT_name("uxReturn")
    4049                            .dwattr $C$DW$259, DW_AT_TI_symbol_name("uxReturn")
    4050                            .dwattr $C$DW$259, DW_AT_type(*$C$DW$T$36)
    4051                            .dwattr $C$DW$259, DW_AT_location[DW_OP_breg13 0]
    4052                            .dwpsn  file "../Source/tasks.c",line 3550,column 2,is_stmt,isa 1
    4053 0000087e 480D              LDR       A1, $C$CON32          ; [DPU_3_PIPE] |3550|  ; [ORIG 16-BIT INS]
    4054 00000880 6800              LDR       A1, [A1, #0]          ; [DPU_3_PIPE] |3550|  ; [ORIG 16-BIT INS]
    4055 00000882 6980              LDR       A1, [A1, #24]         ; [DPU_3_PIPE] |3550|  ; [ORIG 16-BIT INS]
    4056 00000884 9000              STR       A1, [SP, #0]          ; [DPU_3_PIPE] |3550|  ; [ORIG 16-BIT INS]
    4057                            .dwpsn  file "../Source/tasks.c",line 3554,column 2,is_stmt,isa 1
    4058 00000886 480B              LDR       A1, $C$CON32          ; [DPU_3_PIPE] |3554|  ; [ORIG 16-BIT INS]
    4059 00000888 490A              LDR       A2, $C$CON32          ; [DPU_3_PIPE] |3554|  ; [ORIG 16-BIT INS]
    4060 0000088a 6800              LDR       A1, [A1, #0]          ; [DPU_3_PIPE] |3554|  ; [ORIG 16-BIT INS]
    4061 0000088c 6AC0              LDR       A1, [A1, #44]         ; [DPU_3_PIPE] |3554|  ; [ORIG 16-BIT INS]
    4062 0000088e 6809              LDR       A2, [A2, #0]          ; [DPU_3_PIPE] |3554|  ; [ORIG 16-BIT INS]
    4063 00000890 0004F1C0          RSB       A1, A1, #4            ; [DPU_3_PIPE] |3554|  ; [KEEP 32-BIT INS]
    4064 00000894 6188              STR       A1, [A2, #24]         ; [DPU_3_PIPE] |3554|  ; [ORIG 16-BIT INS]
    4065                            .dwpsn  file "../Source/tasks.c",line 3556,column 2,is_stmt,isa 1
    4066 00000896 9800              LDR       A1, [SP, #0]          ; [DPU_3_PIPE] |3556|  ; [ORIG 16-BIT INS]
    4067                            .dwpsn  file "../Source/tasks.c",line 3557,column 1,is_stmt,isa 1
    4068 00000898 B002              ADD       SP, SP, #8            ; [DPU_3_PIPE]  ; [ORIG 16-BIT INS]
    4069                            .dwcfi  cfa_offset, 0
    4070                    $C$DW$260       .dwtag  DW_TAG_TI_branch
    4071                            .dwattr $C$DW$260, DW_AT_low_pc(0x00)
    4072                            .dwattr $C$DW$260, DW_AT_TI_return
    4073 0000089a 4770              BX        LR                    ; [DPU_3_PIPE]  ; [ORIG 16-BIT INS]
    4074                            ; BRANCH OCCURS                  ; [] 
    4075                            .dwattr $C$DW$258, DW_AT_TI_end_file("../Source/tasks.c")
    4076                            .dwattr $C$DW$258, DW_AT_TI_end_line(0xde5)
    4077                            .dwattr $C$DW$258, DW_AT_TI_end_column(0x01)
    4078                            .dwendentry
    4079                            .dwendtag $C$DW$258
    4080                    
    4081                    ;******************************************************************************
    4082                    ;* CONSTANT TABLE                                                             *
    4083                    ;******************************************************************************
    4084 0000089c                   .sect   ".text"
    4085                            .align  4
    4086 0000089c 00000000! ||$C$CON26||:   .bits   xNumOfOverflows,32
    4087                            .align  4
    4088 000008a0 00000000! ||$C$CON27||:   .bits   xDelayedTaskList1,32
    4089                            .align  4
    4090 000008a4 00000000! ||$C$CON28||:   .bits   xDelayedTaskList2,32
    4091                            .align  4
    4092 000008a8 00000000! ||$C$CON29||:   .bits   pxReadyTasksLists,32
    4093                            .align  4
    4094 000008ac 00000000! ||$C$CON30||:   .bits   pxDelayedTaskList,32
    4095                            .align  4
    4096 000008b0 00000000! ||$C$CON31||:   .bits   pxOverflowDelayedTaskList,32
    4097                            .align  4
    4098 000008b4 00000000! ||$C$CON32||:   .bits   pxCurrentTCB,32
    4099                            .align  4
    4100 000008b8 00000000! ||$C$CON33||:   .bits   xTickCount,32
    4101                            .align  4
    4102 000008bc 00000000! ||$C$CON34||:   .bits   xNextTaskUnblockTime,32
TI ARM Assembler PC v5.1.7 Tue Sep 16 08:38:42 2014

Tools Copyright (c) 1996-2014 Texas Instruments Incorporated
tasks.asm                                                            PAGE   76

    4103                    ;*****************************************************************************
    4104                    ;* UNDEFINED EXTERNAL REFERENCES                                             *
    4105                    ;*****************************************************************************
    4106                            .global vPortYieldFromISR
    4107                            .global vPortEnterCritical
    4108                            .global vPortExitCritical
    4109                            .global ulPortSetInterruptMask
    4110                            .global vPortClearInterruptMask
    4111                            .global pxPortInitialiseStack
    4112                            .global pvPortMalloc
    4113                            .global vPortFree
    4114                            .global xPortStartScheduler
    4115                            .global vPortEndScheduler
    4116                            .global vListInitialise
    4117                            .global vListInitialiseItem
    4118                            .global vListInsert
    4119                            .global vListInsertEnd
    4120                            .global uxListRemove
    4121                    
    4122                    ;******************************************************************************
    4123                    ;* BUILD ATTRIBUTES                                                           *
    4124                    ;******************************************************************************
    4125                            .battr "aeabi", Tag_File, 1, Tag_ABI_PCS_wchar_t(2)
    4126                            .battr "aeabi", Tag_File, 1, Tag_ABI_FP_rounding(0)
    4127                            .battr "aeabi", Tag_File, 1, Tag_ABI_FP_denormal(0)
    4128                            .battr "aeabi", Tag_File, 1, Tag_ABI_FP_exceptions(0)
    4129                            .battr "aeabi", Tag_File, 1, Tag_ABI_FP_number_model(1)
    4130                            .battr "aeabi", Tag_File, 1, Tag_ABI_enum_size(1)
    4131                            .battr "aeabi", Tag_File, 1, Tag_ABI_optimization_goals(5)
    4132                            .battr "aeabi", Tag_File, 1, Tag_ABI_FP_optimization_goals(0)
    4133                            .battr "TI", Tag_File, 1, Tag_Bitfield_layout(2)
    4134                            .battr "TI", Tag_File, 1, Tag_FP_interface(1)
    4135                    
    4136                    ;******************************************************************************
    4137                    ;* TYPE INFORMATION                                                           *
    4138                    ;******************************************************************************
    4139                    
    4140                    $C$DW$T$52      .dwtag  DW_TAG_enumeration_type
    4141                            .dwattr $C$DW$T$52, DW_AT_byte_size(0x01)
    4142                    $C$DW$261       .dwtag  DW_TAG_enumerator, DW_AT_name("eRunning"), DW_AT_const_value(0x00)
    4143                            .dwattr $C$DW$261, DW_AT_decl_file("H:/class/690 Adv. Emb. Sys/FreeRTOS8_EECS_TM4C1294_SensorH
    4144                            .dwattr $C$DW$261, DW_AT_decl_line(0x6e)
    4145                            .dwattr $C$DW$261, DW_AT_decl_column(0x02)
    4146                    $C$DW$262       .dwtag  DW_TAG_enumerator, DW_AT_name("eReady"), DW_AT_const_value(0x01)
    4147                            .dwattr $C$DW$262, DW_AT_decl_file("H:/class/690 Adv. Emb. Sys/FreeRTOS8_EECS_TM4C1294_SensorH
    4148                            .dwattr $C$DW$262, DW_AT_decl_line(0x6f)
    4149                            .dwattr $C$DW$262, DW_AT_decl_column(0x02)
    4150                    $C$DW$263       .dwtag  DW_TAG_enumerator, DW_AT_name("eBlocked"), DW_AT_const_value(0x02)
    4151                            .dwattr $C$DW$263, DW_AT_decl_file("H:/class/690 Adv. Emb. Sys/FreeRTOS8_EECS_TM4C1294_SensorH
    4152                            .dwattr $C$DW$263, DW_AT_decl_line(0x70)
    4153                            .dwattr $C$DW$263, DW_AT_decl_column(0x02)
    4154                    $C$DW$264       .dwtag  DW_TAG_enumerator, DW_AT_name("eSuspended"), DW_AT_const_value(0x03)
    4155                            .dwattr $C$DW$264, DW_AT_decl_file("H:/class/690 Adv. Emb. Sys/FreeRTOS8_EECS_TM4C1294_SensorH
    4156                            .dwattr $C$DW$264, DW_AT_decl_line(0x71)
    4157                            .dwattr $C$DW$264, DW_AT_decl_column(0x02)
TI ARM Assembler PC v5.1.7 Tue Sep 16 08:38:42 2014

Tools Copyright (c) 1996-2014 Texas Instruments Incorporated
tasks.asm                                                            PAGE   77

    4158                    $C$DW$265       .dwtag  DW_TAG_enumerator, DW_AT_name("eDeleted"), DW_AT_const_value(0x04)
    4159                            .dwattr $C$DW$265, DW_AT_decl_file("H:/class/690 Adv. Emb. Sys/FreeRTOS8_EECS_TM4C1294_SensorH
    4160                            .dwattr $C$DW$265, DW_AT_decl_line(0x72)
    4161                            .dwattr $C$DW$265, DW_AT_decl_column(0x02)
    4162                            .dwendtag $C$DW$T$52
    4163                    
    4164                            .dwattr $C$DW$T$52, DW_AT_decl_file("H:/class/690 Adv. Emb. Sys/FreeRTOS8_EECS_TM4C1294_Sensor
    4165                            .dwattr $C$DW$T$52, DW_AT_decl_line(0x6d)
    4166                            .dwattr $C$DW$T$52, DW_AT_decl_column(0x01)
    4167                    $C$DW$T$53      .dwtag  DW_TAG_typedef, DW_AT_name("eTaskState")
    4168                            .dwattr $C$DW$T$53, DW_AT_type(*$C$DW$T$52)
    4169                            .dwattr $C$DW$T$53, DW_AT_language(DW_LANG_C)
    4170                            .dwattr $C$DW$T$53, DW_AT_decl_file("H:/class/690 Adv. Emb. Sys/FreeRTOS8_EECS_TM4C1294_Sensor
    4171                            .dwattr $C$DW$T$53, DW_AT_decl_line(0x73)
    4172                            .dwattr $C$DW$T$53, DW_AT_decl_column(0x03)
    4173                    
    4174                    $C$DW$T$58      .dwtag  DW_TAG_enumeration_type
    4175                            .dwattr $C$DW$T$58, DW_AT_byte_size(0x01)
    4176                    $C$DW$266       .dwtag  DW_TAG_enumerator, DW_AT_name("eAbortSleep"), DW_AT_const_value(0x00)
    4177                            .dwattr $C$DW$266, DW_AT_decl_file("H:/class/690 Adv. Emb. Sys/FreeRTOS8_EECS_TM4C1294_SensorH
    4178                            .dwattr $C$DW$266, DW_AT_decl_line(0xa7)
    4179                            .dwattr $C$DW$266, DW_AT_decl_column(0x02)
    4180                    $C$DW$267       .dwtag  DW_TAG_enumerator, DW_AT_name("eStandardSleep"), DW_AT_const_value(0x01)
    4181                            .dwattr $C$DW$267, DW_AT_decl_file("H:/class/690 Adv. Emb. Sys/FreeRTOS8_EECS_TM4C1294_SensorH
    4182                            .dwattr $C$DW$267, DW_AT_decl_line(0xa8)
    4183                            .dwattr $C$DW$267, DW_AT_decl_column(0x02)
    4184                    $C$DW$268       .dwtag  DW_TAG_enumerator, DW_AT_name("eNoTasksWaitingTimeout"), DW_AT_const_value(0x0
    4185                            .dwattr $C$DW$268, DW_AT_decl_file("H:/class/690 Adv. Emb. Sys/FreeRTOS8_EECS_TM4C1294_SensorH
    4186                            .dwattr $C$DW$268, DW_AT_decl_line(0xa9)
    4187                            .dwattr $C$DW$268, DW_AT_decl_column(0x02)
    4188                            .dwendtag $C$DW$T$58
    4189                    
    4190                            .dwattr $C$DW$T$58, DW_AT_decl_file("H:/class/690 Adv. Emb. Sys/FreeRTOS8_EECS_TM4C1294_Sensor
    4191                            .dwattr $C$DW$T$58, DW_AT_decl_line(0xa6)
    4192                            .dwattr $C$DW$T$58, DW_AT_decl_column(0x01)
    4193                    $C$DW$T$59      .dwtag  DW_TAG_typedef, DW_AT_name("eSleepModeStatus")
    4194                            .dwattr $C$DW$T$59, DW_AT_type(*$C$DW$T$58)
    4195                            .dwattr $C$DW$T$59, DW_AT_language(DW_LANG_C)
    4196                            .dwattr $C$DW$T$59, DW_AT_decl_file("H:/class/690 Adv. Emb. Sys/FreeRTOS8_EECS_TM4C1294_Sensor
    4197                            .dwattr $C$DW$T$59, DW_AT_decl_line(0xaa)
    4198                            .dwattr $C$DW$T$59, DW_AT_decl_column(0x03)
    4199                    
    4200                    $C$DW$T$19      .dwtag  DW_TAG_structure_type
    4201                            .dwattr $C$DW$T$19, DW_AT_byte_size(0x08)
    4202                    $C$DW$269       .dwtag  DW_TAG_member
    4203                            .dwattr $C$DW$269, DW_AT_type(*$C$DW$T$10)
    4204                            .dwattr $C$DW$269, DW_AT_name("quot")
    4205                            .dwattr $C$DW$269, DW_AT_TI_symbol_name("quot")
    4206                            .dwattr $C$DW$269, DW_AT_data_member_location[DW_OP_plus_uconst 0x0]
    4207                            .dwattr $C$DW$269, DW_AT_accessibility(DW_ACCESS_public)
    4208                            .dwattr $C$DW$269, DW_AT_decl_file("C:/TI_CodeComposer/ccsv6/tools/compiler/arm_5.1.7/include/
    4209                            .dwattr $C$DW$269, DW_AT_decl_line(0x50)
    4210                            .dwattr $C$DW$269, DW_AT_decl_column(0x16)
    4211                    $C$DW$270       .dwtag  DW_TAG_member
    4212                            .dwattr $C$DW$270, DW_AT_type(*$C$DW$T$10)
TI ARM Assembler PC v5.1.7 Tue Sep 16 08:38:42 2014

Tools Copyright (c) 1996-2014 Texas Instruments Incorporated
tasks.asm                                                            PAGE   78

    4213                            .dwattr $C$DW$270, DW_AT_name("rem")
    4214                            .dwattr $C$DW$270, DW_AT_TI_symbol_name("rem")
    4215                            .dwattr $C$DW$270, DW_AT_data_member_location[DW_OP_plus_uconst 0x4]
    4216                            .dwattr $C$DW$270, DW_AT_accessibility(DW_ACCESS_public)
    4217                            .dwattr $C$DW$270, DW_AT_decl_file("C:/TI_CodeComposer/ccsv6/tools/compiler/arm_5.1.7/include/
    4218                            .dwattr $C$DW$270, DW_AT_decl_line(0x50)
    4219                            .dwattr $C$DW$270, DW_AT_decl_column(0x1c)
    4220                            .dwendtag $C$DW$T$19
    4221                    
    4222                            .dwattr $C$DW$T$19, DW_AT_decl_file("C:/TI_CodeComposer/ccsv6/tools/compiler/arm_5.1.7/include
    4223                            .dwattr $C$DW$T$19, DW_AT_decl_line(0x50)
    4224                            .dwattr $C$DW$T$19, DW_AT_decl_column(0x10)
    4225                    $C$DW$T$60      .dwtag  DW_TAG_typedef, DW_AT_name("div_t")
    4226                            .dwattr $C$DW$T$60, DW_AT_type(*$C$DW$T$19)
    4227                            .dwattr $C$DW$T$60, DW_AT_language(DW_LANG_C)
    4228                            .dwattr $C$DW$T$60, DW_AT_decl_file("C:/TI_CodeComposer/ccsv6/tools/compiler/arm_5.1.7/include
    4229                            .dwattr $C$DW$T$60, DW_AT_decl_line(0x50)
    4230                            .dwattr $C$DW$T$60, DW_AT_decl_column(0x23)
    4231                    
    4232                    $C$DW$T$20      .dwtag  DW_TAG_structure_type
    4233                            .dwattr $C$DW$T$20, DW_AT_byte_size(0x08)
    4234                    $C$DW$271       .dwtag  DW_TAG_member
    4235                            .dwattr $C$DW$271, DW_AT_type(*$C$DW$T$10)
    4236                            .dwattr $C$DW$271, DW_AT_name("quot")
    4237                            .dwattr $C$DW$271, DW_AT_TI_symbol_name("quot")
    4238                            .dwattr $C$DW$271, DW_AT_data_member_location[DW_OP_plus_uconst 0x0]
    4239                            .dwattr $C$DW$271, DW_AT_accessibility(DW_ACCESS_public)
    4240                            .dwattr $C$DW$271, DW_AT_decl_file("C:/TI_CodeComposer/ccsv6/tools/compiler/arm_5.1.7/include/
    4241                            .dwattr $C$DW$271, DW_AT_decl_line(0x52)
    4242                            .dwattr $C$DW$271, DW_AT_decl_column(0x16)
    4243                    $C$DW$272       .dwtag  DW_TAG_member
    4244                            .dwattr $C$DW$272, DW_AT_type(*$C$DW$T$10)
    4245                            .dwattr $C$DW$272, DW_AT_name("rem")
    4246                            .dwattr $C$DW$272, DW_AT_TI_symbol_name("rem")
    4247                            .dwattr $C$DW$272, DW_AT_data_member_location[DW_OP_plus_uconst 0x4]
    4248                            .dwattr $C$DW$272, DW_AT_accessibility(DW_ACCESS_public)
    4249                            .dwattr $C$DW$272, DW_AT_decl_file("C:/TI_CodeComposer/ccsv6/tools/compiler/arm_5.1.7/include/
    4250                            .dwattr $C$DW$272, DW_AT_decl_line(0x52)
    4251                            .dwattr $C$DW$272, DW_AT_decl_column(0x1c)
    4252                            .dwendtag $C$DW$T$20
    4253                    
    4254                            .dwattr $C$DW$T$20, DW_AT_decl_file("C:/TI_CodeComposer/ccsv6/tools/compiler/arm_5.1.7/include
    4255                            .dwattr $C$DW$T$20, DW_AT_decl_line(0x52)
    4256                            .dwattr $C$DW$T$20, DW_AT_decl_column(0x10)
    4257                    $C$DW$T$61      .dwtag  DW_TAG_typedef, DW_AT_name("ldiv_t")
    4258                            .dwattr $C$DW$T$61, DW_AT_type(*$C$DW$T$20)
    4259                            .dwattr $C$DW$T$61, DW_AT_language(DW_LANG_C)
    4260                            .dwattr $C$DW$T$61, DW_AT_decl_file("C:/TI_CodeComposer/ccsv6/tools/compiler/arm_5.1.7/include
    4261                            .dwattr $C$DW$T$61, DW_AT_decl_line(0x52)
    4262                            .dwattr $C$DW$T$61, DW_AT_decl_column(0x23)
    4263                    
    4264                    $C$DW$T$21      .dwtag  DW_TAG_structure_type
    4265                            .dwattr $C$DW$T$21, DW_AT_byte_size(0x10)
    4266                    $C$DW$273       .dwtag  DW_TAG_member
    4267                            .dwattr $C$DW$273, DW_AT_type(*$C$DW$T$14)
TI ARM Assembler PC v5.1.7 Tue Sep 16 08:38:42 2014

Tools Copyright (c) 1996-2014 Texas Instruments Incorporated
tasks.asm                                                            PAGE   79

    4268                            .dwattr $C$DW$273, DW_AT_name("quot")
    4269                            .dwattr $C$DW$273, DW_AT_TI_symbol_name("quot")
    4270                            .dwattr $C$DW$273, DW_AT_data_member_location[DW_OP_plus_uconst 0x0]
    4271                            .dwattr $C$DW$273, DW_AT_accessibility(DW_ACCESS_public)
    4272                            .dwattr $C$DW$273, DW_AT_decl_file("C:/TI_CodeComposer/ccsv6/tools/compiler/arm_5.1.7/include/
    4273                            .dwattr $C$DW$273, DW_AT_decl_line(0x55)
    4274                            .dwattr $C$DW$273, DW_AT_decl_column(0x1c)
    4275                    $C$DW$274       .dwtag  DW_TAG_member
    4276                            .dwattr $C$DW$274, DW_AT_type(*$C$DW$T$14)
    4277                            .dwattr $C$DW$274, DW_AT_name("rem")
    4278                            .dwattr $C$DW$274, DW_AT_TI_symbol_name("rem")
    4279                            .dwattr $C$DW$274, DW_AT_data_member_location[DW_OP_plus_uconst 0x8]
    4280                            .dwattr $C$DW$274, DW_AT_accessibility(DW_ACCESS_public)
    4281                            .dwattr $C$DW$274, DW_AT_decl_file("C:/TI_CodeComposer/ccsv6/tools/compiler/arm_5.1.7/include/
    4282                            .dwattr $C$DW$274, DW_AT_decl_line(0x55)
    4283                            .dwattr $C$DW$274, DW_AT_decl_column(0x22)
    4284                            .dwendtag $C$DW$T$21
    4285                    
    4286                            .dwattr $C$DW$T$21, DW_AT_decl_file("C:/TI_CodeComposer/ccsv6/tools/compiler/arm_5.1.7/include
    4287                            .dwattr $C$DW$T$21, DW_AT_decl_line(0x55)
    4288                            .dwattr $C$DW$T$21, DW_AT_decl_column(0x10)
    4289                    $C$DW$T$62      .dwtag  DW_TAG_typedef, DW_AT_name("lldiv_t")
    4290                            .dwattr $C$DW$T$62, DW_AT_type(*$C$DW$T$21)
    4291                            .dwattr $C$DW$T$62, DW_AT_language(DW_LANG_C)
    4292                            .dwattr $C$DW$T$62, DW_AT_decl_file("C:/TI_CodeComposer/ccsv6/tools/compiler/arm_5.1.7/include
    4293                            .dwattr $C$DW$T$62, DW_AT_decl_line(0x55)
    4294                            .dwattr $C$DW$T$62, DW_AT_decl_column(0x29)
    4295                    $C$DW$T$2       .dwtag  DW_TAG_unspecified_type
    4296                            .dwattr $C$DW$T$2, DW_AT_name("void")
    4297                    $C$DW$T$3       .dwtag  DW_TAG_pointer_type
    4298                            .dwattr $C$DW$T$3, DW_AT_type(*$C$DW$T$2)
    4299                            .dwattr $C$DW$T$3, DW_AT_address_class(0x20)
    4300                    $C$DW$T$51      .dwtag  DW_TAG_typedef, DW_AT_name("TaskHandle_t")
    4301                            .dwattr $C$DW$T$51, DW_AT_type(*$C$DW$T$3)
    4302                            .dwattr $C$DW$T$51, DW_AT_language(DW_LANG_C)
    4303                            .dwattr $C$DW$T$51, DW_AT_decl_file("H:/class/690 Adv. Emb. Sys/FreeRTOS8_EECS_TM4C1294_Sensor
    4304                            .dwattr $C$DW$T$51, DW_AT_decl_line(0x63)
    4305                            .dwattr $C$DW$T$51, DW_AT_decl_column(0x10)
    4306                    $C$DW$T$63      .dwtag  DW_TAG_pointer_type
    4307                            .dwattr $C$DW$T$63, DW_AT_type(*$C$DW$T$51)
    4308                            .dwattr $C$DW$T$63, DW_AT_address_class(0x20)
    4309                    $C$DW$T$64      .dwtag  DW_TAG_const_type
    4310                            .dwattr $C$DW$T$64, DW_AT_type(*$C$DW$T$63)
    4311                    $C$DW$T$65      .dwtag  DW_TAG_typedef, DW_AT_name("TimerHandle_t")
    4312                            .dwattr $C$DW$T$65, DW_AT_type(*$C$DW$T$3)
    4313                            .dwattr $C$DW$T$65, DW_AT_language(DW_LANG_C)
    4314                            .dwattr $C$DW$T$65, DW_AT_decl_file("H:/class/690 Adv. Emb. Sys/FreeRTOS8_EECS_TM4C1294_Sensor
    4315                            .dwattr $C$DW$T$65, DW_AT_decl_line(0x72)
    4316                            .dwattr $C$DW$T$65, DW_AT_decl_column(0x10)
    4317                    $C$DW$T$69      .dwtag  DW_TAG_const_type
    4318                            .dwattr $C$DW$T$69, DW_AT_type(*$C$DW$T$3)
    4319                    
    4320                    $C$DW$T$41      .dwtag  DW_TAG_subroutine_type
    4321                            .dwattr $C$DW$T$41, DW_AT_language(DW_LANG_C)
    4322                    $C$DW$275       .dwtag  DW_TAG_formal_parameter
TI ARM Assembler PC v5.1.7 Tue Sep 16 08:38:42 2014

Tools Copyright (c) 1996-2014 Texas Instruments Incorporated
tasks.asm                                                            PAGE   80

    4323                            .dwattr $C$DW$275, DW_AT_type(*$C$DW$T$3)
    4324                            .dwendtag $C$DW$T$41
    4325                    
    4326                    $C$DW$T$42      .dwtag  DW_TAG_pointer_type
    4327                            .dwattr $C$DW$T$42, DW_AT_type(*$C$DW$T$41)
    4328                            .dwattr $C$DW$T$42, DW_AT_address_class(0x20)
    4329                    $C$DW$T$43      .dwtag  DW_TAG_typedef, DW_AT_name("TaskFunction_t")
    4330                            .dwattr $C$DW$T$43, DW_AT_type(*$C$DW$T$42)
    4331                            .dwattr $C$DW$T$43, DW_AT_language(DW_LANG_C)
    4332                            .dwattr $C$DW$T$43, DW_AT_decl_file("H:\class\690 Adv. Emb. Sys\FreeRTOS8_EECS_TM4C1294_Sensor
    4333                            .dwattr $C$DW$T$43, DW_AT_decl_line(0x49)
    4334                            .dwattr $C$DW$T$43, DW_AT_decl_column(0x10)
    4335                    
    4336                    $C$DW$T$70      .dwtag  DW_TAG_subroutine_type
    4337                            .dwattr $C$DW$T$70, DW_AT_language(DW_LANG_C)
    4338                    $C$DW$T$71      .dwtag  DW_TAG_pointer_type
    4339                            .dwattr $C$DW$T$71, DW_AT_type(*$C$DW$T$70)
    4340                            .dwattr $C$DW$T$71, DW_AT_address_class(0x20)
    4341                    $C$DW$T$72      .dwtag  DW_TAG_typedef, DW_AT_name("__TI_atexit_fn")
    4342                            .dwattr $C$DW$T$72, DW_AT_type(*$C$DW$T$71)
    4343                            .dwattr $C$DW$T$72, DW_AT_language(DW_LANG_C)
    4344                            .dwattr $C$DW$T$72, DW_AT_decl_file("C:/TI_CodeComposer/ccsv6/tools/compiler/arm_5.1.7/include
    4345                            .dwattr $C$DW$T$72, DW_AT_decl_line(0xa3)
    4346                            .dwattr $C$DW$T$72, DW_AT_decl_column(0x14)
    4347                    $C$DW$T$108     .dwtag  DW_TAG_const_type
    4348                            .dwattr $C$DW$T$108, DW_AT_type(*$C$DW$T$2)
    4349                    $C$DW$T$109     .dwtag  DW_TAG_pointer_type
    4350                            .dwattr $C$DW$T$109, DW_AT_type(*$C$DW$T$108)
    4351                            .dwattr $C$DW$T$109, DW_AT_address_class(0x20)
    4352                    
    4353                    $C$DW$T$110     .dwtag  DW_TAG_subroutine_type
    4354                            .dwattr $C$DW$T$110, DW_AT_language(DW_LANG_C)
    4355                    $C$DW$276       .dwtag  DW_TAG_formal_parameter
    4356                            .dwattr $C$DW$276, DW_AT_type(*$C$DW$T$65)
    4357                            .dwendtag $C$DW$T$110
    4358                    
    4359                    $C$DW$T$111     .dwtag  DW_TAG_pointer_type
    4360                            .dwattr $C$DW$T$111, DW_AT_type(*$C$DW$T$110)
    4361                            .dwattr $C$DW$T$111, DW_AT_address_class(0x20)
    4362                    $C$DW$T$112     .dwtag  DW_TAG_typedef, DW_AT_name("TimerCallbackFunction_t")
    4363                            .dwattr $C$DW$T$112, DW_AT_type(*$C$DW$T$111)
    4364                            .dwattr $C$DW$T$112, DW_AT_language(DW_LANG_C)
    4365                            .dwattr $C$DW$T$112, DW_AT_decl_file("H:/class/690 Adv. Emb. Sys/FreeRTOS8_EECS_TM4C1294_Senso
    4366                            .dwattr $C$DW$T$112, DW_AT_decl_line(0x77)
    4367                            .dwattr $C$DW$T$112, DW_AT_decl_column(0x10)
    4368                    
    4369                    $C$DW$T$113     .dwtag  DW_TAG_subroutine_type
    4370                            .dwattr $C$DW$T$113, DW_AT_language(DW_LANG_C)
    4371                    $C$DW$277       .dwtag  DW_TAG_formal_parameter
    4372                            .dwattr $C$DW$277, DW_AT_type(*$C$DW$T$3)
    4373                    $C$DW$278       .dwtag  DW_TAG_formal_parameter
    4374                            .dwattr $C$DW$278, DW_AT_type(*$C$DW$T$23)
    4375                            .dwendtag $C$DW$T$113
    4376                    
    4377                    $C$DW$T$114     .dwtag  DW_TAG_pointer_type
TI ARM Assembler PC v5.1.7 Tue Sep 16 08:38:42 2014

Tools Copyright (c) 1996-2014 Texas Instruments Incorporated
tasks.asm                                                            PAGE   81

    4378                            .dwattr $C$DW$T$114, DW_AT_type(*$C$DW$T$113)
    4379                            .dwattr $C$DW$T$114, DW_AT_address_class(0x20)
    4380                    $C$DW$T$115     .dwtag  DW_TAG_typedef, DW_AT_name("PendedFunction_t")
    4381                            .dwattr $C$DW$T$115, DW_AT_type(*$C$DW$T$114)
    4382                            .dwattr $C$DW$T$115, DW_AT_language(DW_LANG_C)
    4383                            .dwattr $C$DW$T$115, DW_AT_decl_file("H:/class/690 Adv. Emb. Sys/FreeRTOS8_EECS_TM4C1294_Senso
    4384                            .dwattr $C$DW$T$115, DW_AT_decl_line(0x7d)
    4385                            .dwattr $C$DW$T$115, DW_AT_decl_column(0x10)
    4386                    $C$DW$T$4       .dwtag  DW_TAG_base_type
    4387                            .dwattr $C$DW$T$4, DW_AT_encoding(DW_ATE_boolean)
    4388                            .dwattr $C$DW$T$4, DW_AT_name("bool")
    4389                            .dwattr $C$DW$T$4, DW_AT_byte_size(0x01)
    4390                    $C$DW$T$5       .dwtag  DW_TAG_base_type
    4391                            .dwattr $C$DW$T$5, DW_AT_encoding(DW_ATE_signed_char)
    4392                            .dwattr $C$DW$T$5, DW_AT_name("signed char")
    4393                            .dwattr $C$DW$T$5, DW_AT_byte_size(0x01)
    4394                    $C$DW$T$116     .dwtag  DW_TAG_typedef, DW_AT_name("int8_t")
    4395                            .dwattr $C$DW$T$116, DW_AT_type(*$C$DW$T$5)
    4396                            .dwattr $C$DW$T$116, DW_AT_language(DW_LANG_C)
    4397                            .dwattr $C$DW$T$116, DW_AT_decl_file("C:/TI_CodeComposer/ccsv6/tools/compiler/arm_5.1.7/includ
    4398                            .dwattr $C$DW$T$116, DW_AT_decl_line(0x2a)
    4399                            .dwattr $C$DW$T$116, DW_AT_decl_column(0x1d)
    4400                    $C$DW$T$117     .dwtag  DW_TAG_typedef, DW_AT_name("int_least8_t")
    4401                            .dwattr $C$DW$T$117, DW_AT_type(*$C$DW$T$116)
    4402                            .dwattr $C$DW$T$117, DW_AT_language(DW_LANG_C)
    4403                            .dwattr $C$DW$T$117, DW_AT_decl_file("C:/TI_CodeComposer/ccsv6/tools/compiler/arm_5.1.7/includ
    4404                            .dwattr $C$DW$T$117, DW_AT_decl_line(0x37)
    4405                            .dwattr $C$DW$T$117, DW_AT_decl_column(0x17)
    4406                    $C$DW$T$6       .dwtag  DW_TAG_base_type
    4407                            .dwattr $C$DW$T$6, DW_AT_encoding(DW_ATE_unsigned_char)
    4408                            .dwattr $C$DW$T$6, DW_AT_name("unsigned char")
    4409                            .dwattr $C$DW$T$6, DW_AT_byte_size(0x01)
    4410                    $C$DW$T$118     .dwtag  DW_TAG_typedef, DW_AT_name("uint8_t")
    4411                            .dwattr $C$DW$T$118, DW_AT_type(*$C$DW$T$6)
    4412                            .dwattr $C$DW$T$118, DW_AT_language(DW_LANG_C)
    4413                            .dwattr $C$DW$T$118, DW_AT_decl_file("C:/TI_CodeComposer/ccsv6/tools/compiler/arm_5.1.7/includ
    4414                            .dwattr $C$DW$T$118, DW_AT_decl_line(0x2b)
    4415                            .dwattr $C$DW$T$118, DW_AT_decl_column(0x1c)
    4416                    $C$DW$T$119     .dwtag  DW_TAG_typedef, DW_AT_name("portCHAR")
    4417                            .dwattr $C$DW$T$119, DW_AT_type(*$C$DW$T$118)
    4418                            .dwattr $C$DW$T$119, DW_AT_language(DW_LANG_C)
    4419                            .dwattr $C$DW$T$119, DW_AT_decl_file("H:\class\690 Adv. Emb. Sys\FreeRTOS8_EECS_TM4C1294_Senso
    4420                            .dwattr $C$DW$T$119, DW_AT_decl_line(0x61)
    4421                            .dwattr $C$DW$T$119, DW_AT_decl_column(0x12)
    4422                    $C$DW$T$120     .dwtag  DW_TAG_typedef, DW_AT_name("uint_least8_t")
    4423                            .dwattr $C$DW$T$120, DW_AT_type(*$C$DW$T$118)
    4424                            .dwattr $C$DW$T$120, DW_AT_language(DW_LANG_C)
    4425                            .dwattr $C$DW$T$120, DW_AT_decl_file("C:/TI_CodeComposer/ccsv6/tools/compiler/arm_5.1.7/includ
    4426                            .dwattr $C$DW$T$120, DW_AT_decl_line(0x38)
    4427                            .dwattr $C$DW$T$120, DW_AT_decl_column(0x16)
    4428                    $C$DW$T$7       .dwtag  DW_TAG_base_type
    4429                            .dwattr $C$DW$T$7, DW_AT_encoding(DW_ATE_signed_char)
    4430                            .dwattr $C$DW$T$7, DW_AT_name("wchar_t")
    4431                            .dwattr $C$DW$T$7, DW_AT_byte_size(0x02)
    4432                    $C$DW$T$8       .dwtag  DW_TAG_base_type
TI ARM Assembler PC v5.1.7 Tue Sep 16 08:38:42 2014

Tools Copyright (c) 1996-2014 Texas Instruments Incorporated
tasks.asm                                                            PAGE   82

    4433                            .dwattr $C$DW$T$8, DW_AT_encoding(DW_ATE_signed)
    4434                            .dwattr $C$DW$T$8, DW_AT_name("short")
    4435                            .dwattr $C$DW$T$8, DW_AT_byte_size(0x02)
    4436                    $C$DW$T$121     .dwtag  DW_TAG_typedef, DW_AT_name("int16_t")
    4437                            .dwattr $C$DW$T$121, DW_AT_type(*$C$DW$T$8)
    4438                            .dwattr $C$DW$T$121, DW_AT_language(DW_LANG_C)
    4439                            .dwattr $C$DW$T$121, DW_AT_decl_file("C:/TI_CodeComposer/ccsv6/tools/compiler/arm_5.1.7/includ
    4440                            .dwattr $C$DW$T$121, DW_AT_decl_line(0x2c)
    4441                            .dwattr $C$DW$T$121, DW_AT_decl_column(0x1d)
    4442                    $C$DW$T$122     .dwtag  DW_TAG_typedef, DW_AT_name("int_least16_t")
    4443                            .dwattr $C$DW$T$122, DW_AT_type(*$C$DW$T$121)
    4444                            .dwattr $C$DW$T$122, DW_AT_language(DW_LANG_C)
    4445                            .dwattr $C$DW$T$122, DW_AT_decl_file("C:/TI_CodeComposer/ccsv6/tools/compiler/arm_5.1.7/includ
    4446                            .dwattr $C$DW$T$122, DW_AT_decl_line(0x3a)
    4447                            .dwattr $C$DW$T$122, DW_AT_decl_column(0x17)
    4448                    $C$DW$T$123     .dwtag  DW_TAG_typedef, DW_AT_name("portSHORT")
    4449                            .dwattr $C$DW$T$123, DW_AT_type(*$C$DW$T$121)
    4450                            .dwattr $C$DW$T$123, DW_AT_language(DW_LANG_C)
    4451                            .dwattr $C$DW$T$123, DW_AT_decl_file("H:\class\690 Adv. Emb. Sys\FreeRTOS8_EECS_TM4C1294_Senso
    4452                            .dwattr $C$DW$T$123, DW_AT_decl_line(0x65)
    4453                            .dwattr $C$DW$T$123, DW_AT_decl_column(0x12)
    4454                    $C$DW$T$9       .dwtag  DW_TAG_base_type
    4455                            .dwattr $C$DW$T$9, DW_AT_encoding(DW_ATE_unsigned)
    4456                            .dwattr $C$DW$T$9, DW_AT_name("unsigned short")
    4457                            .dwattr $C$DW$T$9, DW_AT_byte_size(0x02)
    4458                    $C$DW$T$124     .dwtag  DW_TAG_typedef, DW_AT_name("_Wchart")
    4459                            .dwattr $C$DW$T$124, DW_AT_type(*$C$DW$T$9)
    4460                            .dwattr $C$DW$T$124, DW_AT_language(DW_LANG_C)
    4461                            .dwattr $C$DW$T$124, DW_AT_decl_file("C:/TI_CodeComposer/ccsv6/tools/compiler/arm_5.1.7/includ
    4462                            .dwattr $C$DW$T$124, DW_AT_decl_line(0x1fe)
    4463                            .dwattr $C$DW$T$124, DW_AT_decl_column(0x21)
    4464                    $C$DW$T$125     .dwtag  DW_TAG_typedef, DW_AT_name("_Wintt")
    4465                            .dwattr $C$DW$T$125, DW_AT_type(*$C$DW$T$9)
    4466                            .dwattr $C$DW$T$125, DW_AT_language(DW_LANG_C)
    4467                            .dwattr $C$DW$T$125, DW_AT_decl_file("C:/TI_CodeComposer/ccsv6/tools/compiler/arm_5.1.7/includ
    4468                            .dwattr $C$DW$T$125, DW_AT_decl_line(0x1ff)
    4469                            .dwattr $C$DW$T$125, DW_AT_decl_column(0x21)
    4470                    $C$DW$T$47      .dwtag  DW_TAG_typedef, DW_AT_name("uint16_t")
    4471                            .dwattr $C$DW$T$47, DW_AT_type(*$C$DW$T$9)
    4472                            .dwattr $C$DW$T$47, DW_AT_language(DW_LANG_C)
    4473                            .dwattr $C$DW$T$47, DW_AT_decl_file("C:/TI_CodeComposer/ccsv6/tools/compiler/arm_5.1.7/include
    4474                            .dwattr $C$DW$T$47, DW_AT_decl_line(0x2d)
    4475                            .dwattr $C$DW$T$47, DW_AT_decl_column(0x1c)
    4476                    $C$DW$T$105     .dwtag  DW_TAG_const_type
    4477                            .dwattr $C$DW$T$105, DW_AT_type(*$C$DW$T$47)
    4478                    $C$DW$T$126     .dwtag  DW_TAG_typedef, DW_AT_name("uint_least16_t")
    4479                            .dwattr $C$DW$T$126, DW_AT_type(*$C$DW$T$47)
    4480                            .dwattr $C$DW$T$126, DW_AT_language(DW_LANG_C)
    4481                            .dwattr $C$DW$T$126, DW_AT_decl_file("C:/TI_CodeComposer/ccsv6/tools/compiler/arm_5.1.7/includ
    4482                            .dwattr $C$DW$T$126, DW_AT_decl_line(0x3b)
    4483                            .dwattr $C$DW$T$126, DW_AT_decl_column(0x16)
    4484                    $C$DW$T$127     .dwtag  DW_TAG_typedef, DW_AT_name("wchar_t")
    4485                            .dwattr $C$DW$T$127, DW_AT_type(*$C$DW$T$9)
    4486                            .dwattr $C$DW$T$127, DW_AT_language(DW_LANG_C)
    4487                            .dwattr $C$DW$T$127, DW_AT_decl_file("C:/TI_CodeComposer/ccsv6/tools/compiler/arm_5.1.7/includ
TI ARM Assembler PC v5.1.7 Tue Sep 16 08:38:42 2014

Tools Copyright (c) 1996-2014 Texas Instruments Incorporated
tasks.asm                                                            PAGE   83

    4488                            .dwattr $C$DW$T$127, DW_AT_decl_line(0x6a)
    4489                            .dwattr $C$DW$T$127, DW_AT_decl_column(0x1a)
    4490                    $C$DW$T$10      .dwtag  DW_TAG_base_type
    4491                            .dwattr $C$DW$T$10, DW_AT_encoding(DW_ATE_signed)
    4492                            .dwattr $C$DW$T$10, DW_AT_name("int")
    4493                            .dwattr $C$DW$T$10, DW_AT_byte_size(0x04)
    4494                    $C$DW$T$128     .dwtag  DW_TAG_typedef, DW_AT_name("_Ptrdifft")
    4495                            .dwattr $C$DW$T$128, DW_AT_type(*$C$DW$T$10)
    4496                            .dwattr $C$DW$T$128, DW_AT_language(DW_LANG_C)
    4497                            .dwattr $C$DW$T$128, DW_AT_decl_file("C:/TI_CodeComposer/ccsv6/tools/compiler/arm_5.1.7/includ
    4498                            .dwattr $C$DW$T$128, DW_AT_decl_line(0xa6)
    4499                            .dwattr $C$DW$T$128, DW_AT_decl_column(0x1e)
    4500                    
    4501                    $C$DW$T$129     .dwtag  DW_TAG_subroutine_type
    4502                            .dwattr $C$DW$T$129, DW_AT_type(*$C$DW$T$10)
    4503                            .dwattr $C$DW$T$129, DW_AT_language(DW_LANG_C)
    4504                    $C$DW$279       .dwtag  DW_TAG_formal_parameter
    4505                            .dwattr $C$DW$279, DW_AT_type(*$C$DW$T$109)
    4506                    $C$DW$280       .dwtag  DW_TAG_formal_parameter
    4507                            .dwattr $C$DW$280, DW_AT_type(*$C$DW$T$109)
    4508                            .dwendtag $C$DW$T$129
    4509                    
    4510                    $C$DW$T$130     .dwtag  DW_TAG_pointer_type
    4511                            .dwattr $C$DW$T$130, DW_AT_type(*$C$DW$T$129)
    4512                            .dwattr $C$DW$T$130, DW_AT_address_class(0x20)
    4513                    $C$DW$T$131     .dwtag  DW_TAG_typedef, DW_AT_name("__TI_compar_fn")
    4514                            .dwattr $C$DW$T$131, DW_AT_type(*$C$DW$T$130)
    4515                            .dwattr $C$DW$T$131, DW_AT_language(DW_LANG_C)
    4516                            .dwattr $C$DW$T$131, DW_AT_decl_file("C:/TI_CodeComposer/ccsv6/tools/compiler/arm_5.1.7/includ
    4517                            .dwattr $C$DW$T$131, DW_AT_decl_line(0xa6)
    4518                            .dwattr $C$DW$T$131, DW_AT_decl_column(0x13)
    4519                    $C$DW$T$55      .dwtag  DW_TAG_typedef, DW_AT_name("int32_t")
    4520                            .dwattr $C$DW$T$55, DW_AT_type(*$C$DW$T$10)
    4521                            .dwattr $C$DW$T$55, DW_AT_language(DW_LANG_C)
    4522                            .dwattr $C$DW$T$55, DW_AT_decl_file("C:/TI_CodeComposer/ccsv6/tools/compiler/arm_5.1.7/include
    4523                            .dwattr $C$DW$T$55, DW_AT_decl_line(0x2e)
    4524                            .dwattr $C$DW$T$55, DW_AT_decl_column(0x1d)
    4525                    $C$DW$T$56      .dwtag  DW_TAG_typedef, DW_AT_name("BaseType_t")
    4526                            .dwattr $C$DW$T$56, DW_AT_type(*$C$DW$T$55)
    4527                            .dwattr $C$DW$T$56, DW_AT_language(DW_LANG_C)
    4528                            .dwattr $C$DW$T$56, DW_AT_decl_file("H:\class\690 Adv. Emb. Sys\FreeRTOS8_EECS_TM4C1294_Sensor
    4529                            .dwattr $C$DW$T$56, DW_AT_decl_line(0x6a)
    4530                            .dwattr $C$DW$T$56, DW_AT_decl_column(0x12)
    4531                    $C$DW$T$132     .dwtag  DW_TAG_volatile_type
    4532                            .dwattr $C$DW$T$132, DW_AT_type(*$C$DW$T$56)
    4533                    
    4534                    $C$DW$T$144     .dwtag  DW_TAG_subroutine_type
    4535                            .dwattr $C$DW$T$144, DW_AT_type(*$C$DW$T$56)
    4536                            .dwattr $C$DW$T$144, DW_AT_language(DW_LANG_C)
    4537                    $C$DW$281       .dwtag  DW_TAG_formal_parameter
    4538                            .dwattr $C$DW$281, DW_AT_type(*$C$DW$T$3)
    4539                            .dwendtag $C$DW$T$144
    4540                    
    4541                    $C$DW$T$145     .dwtag  DW_TAG_pointer_type
    4542                            .dwattr $C$DW$T$145, DW_AT_type(*$C$DW$T$144)
TI ARM Assembler PC v5.1.7 Tue Sep 16 08:38:42 2014

Tools Copyright (c) 1996-2014 Texas Instruments Incorporated
tasks.asm                                                            PAGE   84

    4543                            .dwattr $C$DW$T$145, DW_AT_address_class(0x20)
    4544                    $C$DW$T$146     .dwtag  DW_TAG_typedef, DW_AT_name("TaskHookFunction_t")
    4545                            .dwattr $C$DW$T$146, DW_AT_type(*$C$DW$T$145)
    4546                            .dwattr $C$DW$T$146, DW_AT_language(DW_LANG_C)
    4547                            .dwattr $C$DW$T$146, DW_AT_decl_file("H:/class/690 Adv. Emb. Sys/FreeRTOS8_EECS_TM4C1294_Senso
    4548                            .dwattr $C$DW$T$146, DW_AT_decl_line(0x69)
    4549                            .dwattr $C$DW$T$146, DW_AT_decl_column(0x16)
    4550                    $C$DW$T$147     .dwtag  DW_TAG_typedef, DW_AT_name("int_fast16_t")
    4551                            .dwattr $C$DW$T$147, DW_AT_type(*$C$DW$T$55)
    4552                            .dwattr $C$DW$T$147, DW_AT_language(DW_LANG_C)
    4553                            .dwattr $C$DW$T$147, DW_AT_decl_file("C:/TI_CodeComposer/ccsv6/tools/compiler/arm_5.1.7/includ
    4554                            .dwattr $C$DW$T$147, DW_AT_decl_line(0x47)
    4555                            .dwattr $C$DW$T$147, DW_AT_decl_column(0x17)
    4556                    $C$DW$T$148     .dwtag  DW_TAG_typedef, DW_AT_name("int_fast32_t")
    4557                            .dwattr $C$DW$T$148, DW_AT_type(*$C$DW$T$55)
    4558                            .dwattr $C$DW$T$148, DW_AT_language(DW_LANG_C)
    4559                            .dwattr $C$DW$T$148, DW_AT_decl_file("C:/TI_CodeComposer/ccsv6/tools/compiler/arm_5.1.7/includ
    4560                            .dwattr $C$DW$T$148, DW_AT_decl_line(0x4a)
    4561                            .dwattr $C$DW$T$148, DW_AT_decl_column(0x17)
    4562                    $C$DW$T$149     .dwtag  DW_TAG_typedef, DW_AT_name("int_fast8_t")
    4563                            .dwattr $C$DW$T$149, DW_AT_type(*$C$DW$T$55)
    4564                            .dwattr $C$DW$T$149, DW_AT_language(DW_LANG_C)
    4565                            .dwattr $C$DW$T$149, DW_AT_decl_file("C:/TI_CodeComposer/ccsv6/tools/compiler/arm_5.1.7/includ
    4566                            .dwattr $C$DW$T$149, DW_AT_decl_line(0x45)
    4567                            .dwattr $C$DW$T$149, DW_AT_decl_column(0x17)
    4568                    $C$DW$T$150     .dwtag  DW_TAG_typedef, DW_AT_name("int_least32_t")
    4569                            .dwattr $C$DW$T$150, DW_AT_type(*$C$DW$T$55)
    4570                            .dwattr $C$DW$T$150, DW_AT_language(DW_LANG_C)
    4571                            .dwattr $C$DW$T$150, DW_AT_decl_file("C:/TI_CodeComposer/ccsv6/tools/compiler/arm_5.1.7/includ
    4572                            .dwattr $C$DW$T$150, DW_AT_decl_line(0x3c)
    4573                            .dwattr $C$DW$T$150, DW_AT_decl_column(0x17)
    4574                    $C$DW$T$151     .dwtag  DW_TAG_typedef, DW_AT_name("portBASE_TYPE")
    4575                            .dwattr $C$DW$T$151, DW_AT_type(*$C$DW$T$55)
    4576                            .dwattr $C$DW$T$151, DW_AT_language(DW_LANG_C)
    4577                            .dwattr $C$DW$T$151, DW_AT_decl_file("H:\class\690 Adv. Emb. Sys\FreeRTOS8_EECS_TM4C1294_Senso
    4578                            .dwattr $C$DW$T$151, DW_AT_decl_line(0x67)
    4579                            .dwattr $C$DW$T$151, DW_AT_decl_column(0x12)
    4580                    $C$DW$T$152     .dwtag  DW_TAG_typedef, DW_AT_name("portLONG")
    4581                            .dwattr $C$DW$T$152, DW_AT_type(*$C$DW$T$55)
    4582                            .dwattr $C$DW$T$152, DW_AT_language(DW_LANG_C)
    4583                            .dwattr $C$DW$T$152, DW_AT_decl_file("H:\class\690 Adv. Emb. Sys\FreeRTOS8_EECS_TM4C1294_Senso
    4584                            .dwattr $C$DW$T$152, DW_AT_decl_line(0x64)
    4585                            .dwattr $C$DW$T$152, DW_AT_decl_column(0x12)
    4586                    $C$DW$T$153     .dwtag  DW_TAG_typedef, DW_AT_name("intptr_t")
    4587                            .dwattr $C$DW$T$153, DW_AT_type(*$C$DW$T$10)
    4588                            .dwattr $C$DW$T$153, DW_AT_language(DW_LANG_C)
    4589                            .dwattr $C$DW$T$153, DW_AT_decl_file("C:/TI_CodeComposer/ccsv6/tools/compiler/arm_5.1.7/includ
    4590                            .dwattr $C$DW$T$153, DW_AT_decl_line(0x52)
    4591                            .dwattr $C$DW$T$153, DW_AT_decl_column(0x1a)
    4592                    $C$DW$T$154     .dwtag  DW_TAG_typedef, DW_AT_name("ptrdiff_t")
    4593                            .dwattr $C$DW$T$154, DW_AT_type(*$C$DW$T$10)
    4594                            .dwattr $C$DW$T$154, DW_AT_language(DW_LANG_C)
    4595                            .dwattr $C$DW$T$154, DW_AT_decl_file("C:/TI_CodeComposer/ccsv6/tools/compiler/arm_5.1.7/includ
    4596                            .dwattr $C$DW$T$154, DW_AT_decl_line(0x31)
    4597                            .dwattr $C$DW$T$154, DW_AT_decl_column(0x1c)
TI ARM Assembler PC v5.1.7 Tue Sep 16 08:38:42 2014

Tools Copyright (c) 1996-2014 Texas Instruments Incorporated
tasks.asm                                                            PAGE   85

    4598                    $C$DW$T$11      .dwtag  DW_TAG_base_type
    4599                            .dwattr $C$DW$T$11, DW_AT_encoding(DW_ATE_unsigned)
    4600                            .dwattr $C$DW$T$11, DW_AT_name("unsigned int")
    4601                            .dwattr $C$DW$T$11, DW_AT_byte_size(0x04)
    4602                    $C$DW$T$155     .dwtag  DW_TAG_typedef, DW_AT_name("_Sizet")
    4603                            .dwattr $C$DW$T$155, DW_AT_type(*$C$DW$T$11)
    4604                            .dwattr $C$DW$T$155, DW_AT_language(DW_LANG_C)
    4605                            .dwattr $C$DW$T$155, DW_AT_decl_file("C:/TI_CodeComposer/ccsv6/tools/compiler/arm_5.1.7/includ
    4606                            .dwattr $C$DW$T$155, DW_AT_decl_line(0xac)
    4607                            .dwattr $C$DW$T$155, DW_AT_decl_column(0x1a)
    4608                    $C$DW$T$66      .dwtag  DW_TAG_typedef, DW_AT_name("size_t")
    4609                            .dwattr $C$DW$T$66, DW_AT_type(*$C$DW$T$11)
    4610                            .dwattr $C$DW$T$66, DW_AT_language(DW_LANG_C)
    4611                            .dwattr $C$DW$T$66, DW_AT_decl_file("C:/TI_CodeComposer/ccsv6/tools/compiler/arm_5.1.7/include
    4612                            .dwattr $C$DW$T$66, DW_AT_decl_line(0x64)
    4613                            .dwattr $C$DW$T$66, DW_AT_decl_column(0x19)
    4614                    $C$DW$T$23      .dwtag  DW_TAG_typedef, DW_AT_name("uint32_t")
    4615                            .dwattr $C$DW$T$23, DW_AT_type(*$C$DW$T$11)
    4616                            .dwattr $C$DW$T$23, DW_AT_language(DW_LANG_C)
    4617                            .dwattr $C$DW$T$23, DW_AT_decl_file("C:/TI_CodeComposer/ccsv6/tools/compiler/arm_5.1.7/include
    4618                            .dwattr $C$DW$T$23, DW_AT_decl_line(0x2f)
    4619                            .dwattr $C$DW$T$23, DW_AT_decl_column(0x1c)
    4620                    $C$DW$T$24      .dwtag  DW_TAG_typedef, DW_AT_name("StackType_t")
    4621                            .dwattr $C$DW$T$24, DW_AT_type(*$C$DW$T$23)
    4622                            .dwattr $C$DW$T$24, DW_AT_language(DW_LANG_C)
    4623                            .dwattr $C$DW$T$24, DW_AT_decl_file("H:\class\690 Adv. Emb. Sys\FreeRTOS8_EECS_TM4C1294_Sensor
    4624                            .dwattr $C$DW$T$24, DW_AT_decl_line(0x69)
    4625                            .dwattr $C$DW$T$24, DW_AT_decl_column(0x12)
    4626                    $C$DW$T$25      .dwtag  DW_TAG_volatile_type
    4627                            .dwattr $C$DW$T$25, DW_AT_type(*$C$DW$T$24)
    4628                    $C$DW$T$26      .dwtag  DW_TAG_pointer_type
    4629                            .dwattr $C$DW$T$26, DW_AT_type(*$C$DW$T$25)
    4630                            .dwattr $C$DW$T$26, DW_AT_address_class(0x20)
    4631                    $C$DW$T$29      .dwtag  DW_TAG_pointer_type
    4632                            .dwattr $C$DW$T$29, DW_AT_type(*$C$DW$T$24)
    4633                            .dwattr $C$DW$T$29, DW_AT_address_class(0x20)
    4634                    $C$DW$T$135     .dwtag  DW_TAG_const_type
    4635                            .dwattr $C$DW$T$135, DW_AT_type(*$C$DW$T$29)
    4636                    $C$DW$T$36      .dwtag  DW_TAG_typedef, DW_AT_name("TickType_t")
    4637                            .dwattr $C$DW$T$36, DW_AT_type(*$C$DW$T$23)
    4638                            .dwattr $C$DW$T$36, DW_AT_language(DW_LANG_C)
    4639                            .dwattr $C$DW$T$36, DW_AT_decl_file("H:\class\690 Adv. Emb. Sys\FreeRTOS8_EECS_TM4C1294_Sensor
    4640                            .dwattr $C$DW$T$36, DW_AT_decl_line(0x71)
    4641                            .dwattr $C$DW$T$36, DW_AT_decl_column(0x16)
    4642                    $C$DW$T$87      .dwtag  DW_TAG_const_type
    4643                            .dwattr $C$DW$T$87, DW_AT_type(*$C$DW$T$36)
    4644                    $C$DW$T$158     .dwtag  DW_TAG_volatile_type
    4645                            .dwattr $C$DW$T$158, DW_AT_type(*$C$DW$T$36)
    4646                    $C$DW$T$85      .dwtag  DW_TAG_pointer_type
    4647                            .dwattr $C$DW$T$85, DW_AT_type(*$C$DW$T$36)
    4648                            .dwattr $C$DW$T$85, DW_AT_address_class(0x20)
    4649                    $C$DW$T$86      .dwtag  DW_TAG_const_type
    4650                            .dwattr $C$DW$T$86, DW_AT_type(*$C$DW$T$85)
    4651                    $C$DW$T$28      .dwtag  DW_TAG_typedef, DW_AT_name("UBaseType_t")
    4652                            .dwattr $C$DW$T$28, DW_AT_type(*$C$DW$T$23)
TI ARM Assembler PC v5.1.7 Tue Sep 16 08:38:42 2014

Tools Copyright (c) 1996-2014 Texas Instruments Incorporated
tasks.asm                                                            PAGE   86

    4653                            .dwattr $C$DW$T$28, DW_AT_language(DW_LANG_C)
    4654                            .dwattr $C$DW$T$28, DW_AT_decl_file("H:\class\690 Adv. Emb. Sys\FreeRTOS8_EECS_TM4C1294_Sensor
    4655                            .dwattr $C$DW$T$28, DW_AT_decl_line(0x6b)
    4656                            .dwattr $C$DW$T$28, DW_AT_decl_column(0x12)
    4657                    $C$DW$T$160     .dwtag  DW_TAG_volatile_type
    4658                            .dwattr $C$DW$T$160, DW_AT_type(*$C$DW$T$28)
    4659                    $C$DW$T$164     .dwtag  DW_TAG_typedef, DW_AT_name("portSTACK_TYPE")
    4660                            .dwattr $C$DW$T$164, DW_AT_type(*$C$DW$T$23)
    4661                            .dwattr $C$DW$T$164, DW_AT_language(DW_LANG_C)
    4662                            .dwattr $C$DW$T$164, DW_AT_decl_file("H:\class\690 Adv. Emb. Sys\FreeRTOS8_EECS_TM4C1294_Senso
    4663                            .dwattr $C$DW$T$164, DW_AT_decl_line(0x66)
    4664                            .dwattr $C$DW$T$164, DW_AT_decl_column(0x12)
    4665                    $C$DW$T$165     .dwtag  DW_TAG_typedef, DW_AT_name("uint_fast16_t")
    4666                            .dwattr $C$DW$T$165, DW_AT_type(*$C$DW$T$23)
    4667                            .dwattr $C$DW$T$165, DW_AT_language(DW_LANG_C)
    4668                            .dwattr $C$DW$T$165, DW_AT_decl_file("C:/TI_CodeComposer/ccsv6/tools/compiler/arm_5.1.7/includ
    4669                            .dwattr $C$DW$T$165, DW_AT_decl_line(0x48)
    4670                            .dwattr $C$DW$T$165, DW_AT_decl_column(0x16)
    4671                    $C$DW$T$166     .dwtag  DW_TAG_typedef, DW_AT_name("uint_fast32_t")
    4672                            .dwattr $C$DW$T$166, DW_AT_type(*$C$DW$T$23)
    4673                            .dwattr $C$DW$T$166, DW_AT_language(DW_LANG_C)
    4674                            .dwattr $C$DW$T$166, DW_AT_decl_file("C:/TI_CodeComposer/ccsv6/tools/compiler/arm_5.1.7/includ
    4675                            .dwattr $C$DW$T$166, DW_AT_decl_line(0x4b)
    4676                            .dwattr $C$DW$T$166, DW_AT_decl_column(0x16)
    4677                    $C$DW$T$167     .dwtag  DW_TAG_typedef, DW_AT_name("uint_fast8_t")
    4678                            .dwattr $C$DW$T$167, DW_AT_type(*$C$DW$T$23)
    4679                            .dwattr $C$DW$T$167, DW_AT_language(DW_LANG_C)
    4680                            .dwattr $C$DW$T$167, DW_AT_decl_file("C:/TI_CodeComposer/ccsv6/tools/compiler/arm_5.1.7/includ
    4681                            .dwattr $C$DW$T$167, DW_AT_decl_line(0x46)
    4682                            .dwattr $C$DW$T$167, DW_AT_decl_column(0x16)
    4683                    $C$DW$T$168     .dwtag  DW_TAG_typedef, DW_AT_name("uint_least32_t")
    4684                            .dwattr $C$DW$T$168, DW_AT_type(*$C$DW$T$23)
    4685                            .dwattr $C$DW$T$168, DW_AT_language(DW_LANG_C)
    4686                            .dwattr $C$DW$T$168, DW_AT_decl_file("C:/TI_CodeComposer/ccsv6/tools/compiler/arm_5.1.7/includ
    4687                            .dwattr $C$DW$T$168, DW_AT_decl_line(0x3d)
    4688                            .dwattr $C$DW$T$168, DW_AT_decl_column(0x16)
    4689                    $C$DW$T$169     .dwtag  DW_TAG_typedef, DW_AT_name("uintptr_t")
    4690                            .dwattr $C$DW$T$169, DW_AT_type(*$C$DW$T$11)
    4691                            .dwattr $C$DW$T$169, DW_AT_language(DW_LANG_C)
    4692                            .dwattr $C$DW$T$169, DW_AT_decl_file("C:/TI_CodeComposer/ccsv6/tools/compiler/arm_5.1.7/includ
    4693                            .dwattr $C$DW$T$169, DW_AT_decl_line(0x53)
    4694                            .dwattr $C$DW$T$169, DW_AT_decl_column(0x1a)
    4695                    $C$DW$T$12      .dwtag  DW_TAG_base_type
    4696                            .dwattr $C$DW$T$12, DW_AT_encoding(DW_ATE_signed)
    4697                            .dwattr $C$DW$T$12, DW_AT_name("long")
    4698                            .dwattr $C$DW$T$12, DW_AT_byte_size(0x04)
    4699                    $C$DW$T$170     .dwtag  DW_TAG_typedef, DW_AT_name("_Int32t")
    4700                            .dwattr $C$DW$T$170, DW_AT_type(*$C$DW$T$12)
    4701                            .dwattr $C$DW$T$170, DW_AT_language(DW_LANG_C)
    4702                            .dwattr $C$DW$T$170, DW_AT_decl_file("C:/TI_CodeComposer/ccsv6/tools/compiler/arm_5.1.7/includ
    4703                            .dwattr $C$DW$T$170, DW_AT_decl_line(0xa2)
    4704                            .dwattr $C$DW$T$170, DW_AT_decl_column(0x0e)
    4705                    $C$DW$T$13      .dwtag  DW_TAG_base_type
    4706                            .dwattr $C$DW$T$13, DW_AT_encoding(DW_ATE_unsigned)
    4707                            .dwattr $C$DW$T$13, DW_AT_name("unsigned long")
TI ARM Assembler PC v5.1.7 Tue Sep 16 08:38:42 2014

Tools Copyright (c) 1996-2014 Texas Instruments Incorporated
tasks.asm                                                            PAGE   87

    4708                            .dwattr $C$DW$T$13, DW_AT_byte_size(0x04)
    4709                    $C$DW$T$171     .dwtag  DW_TAG_typedef, DW_AT_name("_Uint32t")
    4710                            .dwattr $C$DW$T$171, DW_AT_type(*$C$DW$T$13)
    4711                            .dwattr $C$DW$T$171, DW_AT_language(DW_LANG_C)
    4712                            .dwattr $C$DW$T$171, DW_AT_decl_file("C:/TI_CodeComposer/ccsv6/tools/compiler/arm_5.1.7/includ
    4713                            .dwattr $C$DW$T$171, DW_AT_decl_line(0xa3)
    4714                            .dwattr $C$DW$T$171, DW_AT_decl_column(0x17)
    4715                    $C$DW$T$14      .dwtag  DW_TAG_base_type
    4716                            .dwattr $C$DW$T$14, DW_AT_encoding(DW_ATE_signed)
    4717                            .dwattr $C$DW$T$14, DW_AT_name("long long")
    4718                            .dwattr $C$DW$T$14, DW_AT_byte_size(0x08)
    4719                    $C$DW$T$174     .dwtag  DW_TAG_typedef, DW_AT_name("_Longlong")
    4720                            .dwattr $C$DW$T$174, DW_AT_type(*$C$DW$T$14)
    4721                            .dwattr $C$DW$T$174, DW_AT_language(DW_LANG_C)
    4722                            .dwattr $C$DW$T$174, DW_AT_decl_file("C:/TI_CodeComposer/ccsv6/tools/compiler/arm_5.1.7/includ
    4723                            .dwattr $C$DW$T$174, DW_AT_decl_line(0x1ce)
    4724                            .dwattr $C$DW$T$174, DW_AT_decl_column(0x13)
    4725                    $C$DW$T$175     .dwtag  DW_TAG_typedef, DW_AT_name("int64_t")
    4726                            .dwattr $C$DW$T$175, DW_AT_type(*$C$DW$T$14)
    4727                            .dwattr $C$DW$T$175, DW_AT_language(DW_LANG_C)
    4728                            .dwattr $C$DW$T$175, DW_AT_decl_file("C:/TI_CodeComposer/ccsv6/tools/compiler/arm_5.1.7/includ
    4729                            .dwattr $C$DW$T$175, DW_AT_decl_line(0x32)
    4730                            .dwattr $C$DW$T$175, DW_AT_decl_column(0x21)
    4731                    $C$DW$T$176     .dwtag  DW_TAG_typedef, DW_AT_name("int_fast64_t")
    4732                            .dwattr $C$DW$T$176, DW_AT_type(*$C$DW$T$175)
    4733                            .dwattr $C$DW$T$176, DW_AT_language(DW_LANG_C)
    4734                            .dwattr $C$DW$T$176, DW_AT_decl_file("C:/TI_CodeComposer/ccsv6/tools/compiler/arm_5.1.7/includ
    4735                            .dwattr $C$DW$T$176, DW_AT_decl_line(0x4e)
    4736                            .dwattr $C$DW$T$176, DW_AT_decl_column(0x17)
    4737                    $C$DW$T$177     .dwtag  DW_TAG_typedef, DW_AT_name("int_least64_t")
    4738                            .dwattr $C$DW$T$177, DW_AT_type(*$C$DW$T$175)
    4739                            .dwattr $C$DW$T$177, DW_AT_language(DW_LANG_C)
    4740                            .dwattr $C$DW$T$177, DW_AT_decl_file("C:/TI_CodeComposer/ccsv6/tools/compiler/arm_5.1.7/includ
    4741                            .dwattr $C$DW$T$177, DW_AT_decl_line(0x40)
    4742                            .dwattr $C$DW$T$177, DW_AT_decl_column(0x17)
    4743                    $C$DW$T$178     .dwtag  DW_TAG_typedef, DW_AT_name("portDOUBLE")
    4744                            .dwattr $C$DW$T$178, DW_AT_type(*$C$DW$T$175)
    4745                            .dwattr $C$DW$T$178, DW_AT_language(DW_LANG_C)
    4746                            .dwattr $C$DW$T$178, DW_AT_decl_file("H:\class\690 Adv. Emb. Sys\FreeRTOS8_EECS_TM4C1294_Senso
    4747                            .dwattr $C$DW$T$178, DW_AT_decl_line(0x63)
    4748                            .dwattr $C$DW$T$178, DW_AT_decl_column(0x12)
    4749                    $C$DW$T$179     .dwtag  DW_TAG_typedef, DW_AT_name("intmax_t")
    4750                            .dwattr $C$DW$T$179, DW_AT_type(*$C$DW$T$14)
    4751                            .dwattr $C$DW$T$179, DW_AT_language(DW_LANG_C)
    4752                            .dwattr $C$DW$T$179, DW_AT_decl_file("C:/TI_CodeComposer/ccsv6/tools/compiler/arm_5.1.7/includ
    4753                            .dwattr $C$DW$T$179, DW_AT_decl_line(0x56)
    4754                            .dwattr $C$DW$T$179, DW_AT_decl_column(0x20)
    4755                    $C$DW$T$15      .dwtag  DW_TAG_base_type
    4756                            .dwattr $C$DW$T$15, DW_AT_encoding(DW_ATE_unsigned)
    4757                            .dwattr $C$DW$T$15, DW_AT_name("unsigned long long")
    4758                            .dwattr $C$DW$T$15, DW_AT_byte_size(0x08)
    4759                    $C$DW$T$180     .dwtag  DW_TAG_typedef, DW_AT_name("_ULonglong")
    4760                            .dwattr $C$DW$T$180, DW_AT_type(*$C$DW$T$15)
    4761                            .dwattr $C$DW$T$180, DW_AT_language(DW_LANG_C)
    4762                            .dwattr $C$DW$T$180, DW_AT_decl_file("C:/TI_CodeComposer/ccsv6/tools/compiler/arm_5.1.7/includ
TI ARM Assembler PC v5.1.7 Tue Sep 16 08:38:42 2014

Tools Copyright (c) 1996-2014 Texas Instruments Incorporated
tasks.asm                                                            PAGE   88

    4763                            .dwattr $C$DW$T$180, DW_AT_decl_line(0x1cf)
    4764                            .dwattr $C$DW$T$180, DW_AT_decl_column(0x14)
    4765                    $C$DW$T$181     .dwtag  DW_TAG_typedef, DW_AT_name("uint64_t")
    4766                            .dwattr $C$DW$T$181, DW_AT_type(*$C$DW$T$15)
    4767                            .dwattr $C$DW$T$181, DW_AT_language(DW_LANG_C)
    4768                            .dwattr $C$DW$T$181, DW_AT_decl_file("C:/TI_CodeComposer/ccsv6/tools/compiler/arm_5.1.7/includ
    4769                            .dwattr $C$DW$T$181, DW_AT_decl_line(0x33)
    4770                            .dwattr $C$DW$T$181, DW_AT_decl_column(0x20)
    4771                    $C$DW$T$182     .dwtag  DW_TAG_typedef, DW_AT_name("uint_fast64_t")
    4772                            .dwattr $C$DW$T$182, DW_AT_type(*$C$DW$T$181)
    4773                            .dwattr $C$DW$T$182, DW_AT_language(DW_LANG_C)
    4774                            .dwattr $C$DW$T$182, DW_AT_decl_file("C:/TI_CodeComposer/ccsv6/tools/compiler/arm_5.1.7/includ
    4775                            .dwattr $C$DW$T$182, DW_AT_decl_line(0x4f)
    4776                            .dwattr $C$DW$T$182, DW_AT_decl_column(0x16)
    4777                    $C$DW$T$183     .dwtag  DW_TAG_typedef, DW_AT_name("uint_least64_t")
    4778                            .dwattr $C$DW$T$183, DW_AT_type(*$C$DW$T$181)
    4779                            .dwattr $C$DW$T$183, DW_AT_language(DW_LANG_C)
    4780                            .dwattr $C$DW$T$183, DW_AT_decl_file("C:/TI_CodeComposer/ccsv6/tools/compiler/arm_5.1.7/includ
    4781                            .dwattr $C$DW$T$183, DW_AT_decl_line(0x41)
    4782                            .dwattr $C$DW$T$183, DW_AT_decl_column(0x16)
    4783                    $C$DW$T$184     .dwtag  DW_TAG_typedef, DW_AT_name("uintmax_t")
    4784                            .dwattr $C$DW$T$184, DW_AT_type(*$C$DW$T$15)
    4785                            .dwattr $C$DW$T$184, DW_AT_language(DW_LANG_C)
    4786                            .dwattr $C$DW$T$184, DW_AT_decl_file("C:/TI_CodeComposer/ccsv6/tools/compiler/arm_5.1.7/includ
    4787                            .dwattr $C$DW$T$184, DW_AT_decl_line(0x57)
    4788                            .dwattr $C$DW$T$184, DW_AT_decl_column(0x20)
    4789                    $C$DW$T$16      .dwtag  DW_TAG_base_type
    4790                            .dwattr $C$DW$T$16, DW_AT_encoding(DW_ATE_float)
    4791                            .dwattr $C$DW$T$16, DW_AT_name("float")
    4792                            .dwattr $C$DW$T$16, DW_AT_byte_size(0x04)
    4793                    $C$DW$T$185     .dwtag  DW_TAG_typedef, DW_AT_name("portFLOAT")
    4794                            .dwattr $C$DW$T$185, DW_AT_type(*$C$DW$T$16)
    4795                            .dwattr $C$DW$T$185, DW_AT_language(DW_LANG_C)
    4796                            .dwattr $C$DW$T$185, DW_AT_decl_file("H:\class\690 Adv. Emb. Sys\FreeRTOS8_EECS_TM4C1294_Senso
    4797                            .dwattr $C$DW$T$185, DW_AT_decl_line(0x62)
    4798                            .dwattr $C$DW$T$185, DW_AT_decl_column(0x10)
    4799                    $C$DW$T$17      .dwtag  DW_TAG_base_type
    4800                            .dwattr $C$DW$T$17, DW_AT_encoding(DW_ATE_float)
    4801                            .dwattr $C$DW$T$17, DW_AT_name("double")
    4802                            .dwattr $C$DW$T$17, DW_AT_byte_size(0x08)
    4803                    $C$DW$T$18      .dwtag  DW_TAG_base_type
    4804                            .dwattr $C$DW$T$18, DW_AT_encoding(DW_ATE_float)
    4805                            .dwattr $C$DW$T$18, DW_AT_name("long double")
    4806                            .dwattr $C$DW$T$18, DW_AT_byte_size(0x08)
    4807                    $C$DW$T$186     .dwtag  DW_TAG_typedef, DW_AT_name("_Sysch_t")
    4808                            .dwattr $C$DW$T$186, DW_AT_type(*$C$DW$T$6)
    4809                            .dwattr $C$DW$T$186, DW_AT_language(DW_LANG_C)
    4810                            .dwattr $C$DW$T$186, DW_AT_decl_file("C:/TI_CodeComposer/ccsv6/tools/compiler/arm_5.1.7/includ
    4811                            .dwattr $C$DW$T$186, DW_AT_decl_line(0x23a)
    4812                            .dwattr $C$DW$T$186, DW_AT_decl_column(0x0e)
    4813                    
    4814                    $C$DW$T$31      .dwtag  DW_TAG_array_type
    4815                            .dwattr $C$DW$T$31, DW_AT_type(*$C$DW$T$6)
    4816                            .dwattr $C$DW$T$31, DW_AT_language(DW_LANG_C)
    4817                            .dwattr $C$DW$T$31, DW_AT_byte_size(0x10)
TI ARM Assembler PC v5.1.7 Tue Sep 16 08:38:42 2014

Tools Copyright (c) 1996-2014 Texas Instruments Incorporated
tasks.asm                                                            PAGE   89

    4818                    $C$DW$282       .dwtag  DW_TAG_subrange_type
    4819                            .dwattr $C$DW$282, DW_AT_upper_bound(0x0f)
    4820                            .dwendtag $C$DW$T$31
    4821                    
    4822                    $C$DW$T$44      .dwtag  DW_TAG_const_type
    4823                            .dwattr $C$DW$T$44, DW_AT_type(*$C$DW$T$6)
    4824                    $C$DW$T$45      .dwtag  DW_TAG_pointer_type
    4825                            .dwattr $C$DW$T$45, DW_AT_type(*$C$DW$T$44)
    4826                            .dwattr $C$DW$T$45, DW_AT_address_class(0x20)
    4827                    $C$DW$T$46      .dwtag  DW_TAG_const_type
    4828                            .dwattr $C$DW$T$46, DW_AT_type(*$C$DW$T$45)
    4829                    $C$DW$T$187     .dwtag  DW_TAG_pointer_type
    4830                            .dwattr $C$DW$T$187, DW_AT_type(*$C$DW$T$6)
    4831                            .dwattr $C$DW$T$187, DW_AT_address_class(0x20)
    4832                    $C$DW$T$188     .dwtag  DW_TAG_typedef, DW_AT_name("__builtin_va_list")
    4833                            .dwattr $C$DW$T$188, DW_AT_type(*$C$DW$T$187)
    4834                            .dwattr $C$DW$T$188, DW_AT_language(DW_LANG_C)
    4835                            .dwattr $C$DW$T$188, DW_AT_decl_file("../Source/tasks.c")
    4836                            .dwattr $C$DW$T$188, DW_AT_decl_line(0xde5)
    4837                            .dwattr $C$DW$T$188, DW_AT_decl_column(0x01)
    4838                    
    4839                    $C$DW$T$22      .dwtag  DW_TAG_structure_type
    4840                            .dwattr $C$DW$T$22, DW_AT_name("__va_list")
    4841                            .dwattr $C$DW$T$22, DW_AT_byte_size(0x04)
    4842                    $C$DW$283       .dwtag  DW_TAG_member
    4843                            .dwattr $C$DW$283, DW_AT_type(*$C$DW$T$3)
    4844                            .dwattr $C$DW$283, DW_AT_name("__ap")
    4845                            .dwattr $C$DW$283, DW_AT_TI_symbol_name("__ap")
    4846                            .dwattr $C$DW$283, DW_AT_data_member_location[DW_OP_plus_uconst 0x0]
    4847                            .dwattr $C$DW$283, DW_AT_accessibility(DW_ACCESS_public)
    4848                            .dwattr $C$DW$283, DW_AT_decl_file("C:/TI_CodeComposer/ccsv6/tools/compiler/arm_5.1.7/include/
    4849                            .dwattr $C$DW$283, DW_AT_decl_line(0x32)
    4850                            .dwattr $C$DW$283, DW_AT_decl_column(0x0c)
    4851                            .dwendtag $C$DW$T$22
    4852                    
    4853                            .dwattr $C$DW$T$22, DW_AT_decl_file("C:/TI_CodeComposer/ccsv6/tools/compiler/arm_5.1.7/include
    4854                            .dwattr $C$DW$T$22, DW_AT_decl_line(0x31)
    4855                            .dwattr $C$DW$T$22, DW_AT_decl_column(0x10)
    4856                    $C$DW$T$189     .dwtag  DW_TAG_typedef, DW_AT_name("va_list")
    4857                            .dwattr $C$DW$T$189, DW_AT_type(*$C$DW$T$22)
    4858                            .dwattr $C$DW$T$189, DW_AT_language(DW_LANG_C)
    4859                            .dwattr $C$DW$T$189, DW_AT_decl_file("C:/TI_CodeComposer/ccsv6/tools/compiler/arm_5.1.7/includ
    4860                            .dwattr $C$DW$T$189, DW_AT_decl_line(0x33)
    4861                            .dwattr $C$DW$T$189, DW_AT_decl_column(0x03)
    4862                    $C$DW$T$190     .dwtag  DW_TAG_typedef, DW_AT_name("_Va_list")
    4863                            .dwattr $C$DW$T$190, DW_AT_type(*$C$DW$T$189)
    4864                            .dwattr $C$DW$T$190, DW_AT_language(DW_LANG_C)
    4865                            .dwattr $C$DW$T$190, DW_AT_decl_file("C:/TI_CodeComposer/ccsv6/tools/compiler/arm_5.1.7/includ
    4866                            .dwattr $C$DW$T$190, DW_AT_decl_line(0x218)
    4867                            .dwattr $C$DW$T$190, DW_AT_decl_column(0x17)
    4868                    
    4869                    $C$DW$T$32      .dwtag  DW_TAG_structure_type
    4870                            .dwattr $C$DW$T$32, DW_AT_name("tskTaskControlBlock")
    4871                            .dwattr $C$DW$T$32, DW_AT_byte_size(0x44)
    4872                    $C$DW$284       .dwtag  DW_TAG_member
TI ARM Assembler PC v5.1.7 Tue Sep 16 08:38:42 2014

Tools Copyright (c) 1996-2014 Texas Instruments Incorporated
tasks.asm                                                            PAGE   90

    4873                            .dwattr $C$DW$284, DW_AT_type(*$C$DW$T$26)
    4874                            .dwattr $C$DW$284, DW_AT_name("pxTopOfStack")
    4875                            .dwattr $C$DW$284, DW_AT_TI_symbol_name("pxTopOfStack")
    4876                            .dwattr $C$DW$284, DW_AT_data_member_location[DW_OP_plus_uconst 0x0]
    4877                            .dwattr $C$DW$284, DW_AT_accessibility(DW_ACCESS_public)
    4878                            .dwattr $C$DW$284, DW_AT_decl_file("../Source/tasks.c")
    4879                            .dwattr $C$DW$284, DW_AT_decl_line(0x7a)
    4880                            .dwattr $C$DW$284, DW_AT_decl_column(0x18)
    4881                    $C$DW$285       .dwtag  DW_TAG_member
    4882                            .dwattr $C$DW$285, DW_AT_type(*$C$DW$T$27)
    4883                            .dwattr $C$DW$285, DW_AT_name("xGenericListItem")
    4884                            .dwattr $C$DW$285, DW_AT_TI_symbol_name("xGenericListItem")
    4885                            .dwattr $C$DW$285, DW_AT_data_member_location[DW_OP_plus_uconst 0x4]
    4886                            .dwattr $C$DW$285, DW_AT_accessibility(DW_ACCESS_public)
    4887                            .dwattr $C$DW$285, DW_AT_decl_file("../Source/tasks.c")
    4888                            .dwattr $C$DW$285, DW_AT_decl_line(0x80)
    4889                            .dwattr $C$DW$285, DW_AT_decl_column(0x0f)
    4890                    $C$DW$286       .dwtag  DW_TAG_member
    4891                            .dwattr $C$DW$286, DW_AT_type(*$C$DW$T$27)
    4892                            .dwattr $C$DW$286, DW_AT_name("xEventListItem")
    4893                            .dwattr $C$DW$286, DW_AT_TI_symbol_name("xEventListItem")
    4894                            .dwattr $C$DW$286, DW_AT_data_member_location[DW_OP_plus_uconst 0x18]
    4895                            .dwattr $C$DW$286, DW_AT_accessibility(DW_ACCESS_public)
    4896                            .dwattr $C$DW$286, DW_AT_decl_file("../Source/tasks.c")
    4897                            .dwattr $C$DW$286, DW_AT_decl_line(0x81)
    4898                            .dwattr $C$DW$286, DW_AT_decl_column(0x0f)
    4899                    $C$DW$287       .dwtag  DW_TAG_member
    4900                            .dwattr $C$DW$287, DW_AT_type(*$C$DW$T$28)
    4901                            .dwattr $C$DW$287, DW_AT_name("uxPriority")
    4902                            .dwattr $C$DW$287, DW_AT_TI_symbol_name("uxPriority")
    4903                            .dwattr $C$DW$287, DW_AT_data_member_location[DW_OP_plus_uconst 0x2c]
    4904                            .dwattr $C$DW$287, DW_AT_accessibility(DW_ACCESS_public)
    4905                            .dwattr $C$DW$287, DW_AT_decl_file("../Source/tasks.c")
    4906                            .dwattr $C$DW$287, DW_AT_decl_line(0x82)
    4907                            .dwattr $C$DW$287, DW_AT_decl_column(0x10)
    4908                    $C$DW$288       .dwtag  DW_TAG_member
    4909                            .dwattr $C$DW$288, DW_AT_type(*$C$DW$T$29)
    4910                            .dwattr $C$DW$288, DW_AT_name("pxStack")
    4911                            .dwattr $C$DW$288, DW_AT_TI_symbol_name("pxStack")
    4912                            .dwattr $C$DW$288, DW_AT_data_member_location[DW_OP_plus_uconst 0x30]
    4913                            .dwattr $C$DW$288, DW_AT_accessibility(DW_ACCESS_public)
    4914                            .dwattr $C$DW$288, DW_AT_decl_file("../Source/tasks.c")
    4915                            .dwattr $C$DW$288, DW_AT_decl_line(0x83)
    4916                            .dwattr $C$DW$288, DW_AT_decl_column(0x11)
    4917                    $C$DW$289       .dwtag  DW_TAG_member
    4918                            .dwattr $C$DW$289, DW_AT_type(*$C$DW$T$31)
    4919                            .dwattr $C$DW$289, DW_AT_name("pcTaskName")
    4920                            .dwattr $C$DW$289, DW_AT_TI_symbol_name("pcTaskName")
    4921                            .dwattr $C$DW$289, DW_AT_data_member_location[DW_OP_plus_uconst 0x34]
    4922                            .dwattr $C$DW$289, DW_AT_accessibility(DW_ACCESS_public)
    4923                            .dwattr $C$DW$289, DW_AT_decl_file("../Source/tasks.c")
    4924                            .dwattr $C$DW$289, DW_AT_decl_line(0x84)
    4925                            .dwattr $C$DW$289, DW_AT_decl_column(0x0a)
    4926                            .dwendtag $C$DW$T$32
    4927                    
TI ARM Assembler PC v5.1.7 Tue Sep 16 08:38:42 2014

Tools Copyright (c) 1996-2014 Texas Instruments Incorporated
tasks.asm                                                            PAGE   91

    4928                            .dwattr $C$DW$T$32, DW_AT_decl_file("../Source/tasks.c")
    4929                            .dwattr $C$DW$T$32, DW_AT_decl_line(0x78)
    4930                            .dwattr $C$DW$T$32, DW_AT_decl_column(0x10)
    4931                    $C$DW$T$98      .dwtag  DW_TAG_typedef, DW_AT_name("tskTCB")
    4932                            .dwattr $C$DW$T$98, DW_AT_type(*$C$DW$T$32)
    4933                            .dwattr $C$DW$T$98, DW_AT_language(DW_LANG_C)
    4934                            .dwattr $C$DW$T$98, DW_AT_decl_file("../Source/tasks.c")
    4935                            .dwattr $C$DW$T$98, DW_AT_decl_line(0xaa)
    4936                            .dwattr $C$DW$T$98, DW_AT_decl_column(0x03)
    4937                    $C$DW$T$99      .dwtag  DW_TAG_typedef, DW_AT_name("TCB_t")
    4938                            .dwattr $C$DW$T$99, DW_AT_type(*$C$DW$T$98)
    4939                            .dwattr $C$DW$T$99, DW_AT_language(DW_LANG_C)
    4940                            .dwattr $C$DW$T$99, DW_AT_decl_file("../Source/tasks.c")
    4941                            .dwattr $C$DW$T$99, DW_AT_decl_line(0xae)
    4942                            .dwattr $C$DW$T$99, DW_AT_decl_column(0x10)
    4943                    $C$DW$T$100     .dwtag  DW_TAG_pointer_type
    4944                            .dwattr $C$DW$T$100, DW_AT_type(*$C$DW$T$99)
    4945                            .dwattr $C$DW$T$100, DW_AT_address_class(0x20)
    4946                    $C$DW$T$101     .dwtag  DW_TAG_const_type
    4947                            .dwattr $C$DW$T$101, DW_AT_type(*$C$DW$T$100)
    4948                    $C$DW$T$193     .dwtag  DW_TAG_volatile_type
    4949                            .dwattr $C$DW$T$193, DW_AT_type(*$C$DW$T$100)
    4950                    
    4951                    $C$DW$T$35      .dwtag  DW_TAG_structure_type
    4952                            .dwattr $C$DW$T$35, DW_AT_name("xLIST")
    4953                            .dwattr $C$DW$T$35, DW_AT_byte_size(0x14)
    4954                    $C$DW$290       .dwtag  DW_TAG_member
    4955                            .dwattr $C$DW$290, DW_AT_type(*$C$DW$T$28)
    4956                            .dwattr $C$DW$290, DW_AT_name("uxNumberOfItems")
    4957                            .dwattr $C$DW$290, DW_AT_TI_symbol_name("uxNumberOfItems")
    4958                            .dwattr $C$DW$290, DW_AT_data_member_location[DW_OP_plus_uconst 0x0]
    4959                            .dwattr $C$DW$290, DW_AT_accessibility(DW_ACCESS_public)
    4960                            .dwattr $C$DW$290, DW_AT_decl_file("H:\class\690 Adv. Emb. Sys\FreeRTOS8_EECS_TM4C1294_SensorH
    4961                            .dwattr $C$DW$290, DW_AT_decl_line(0x9f)
    4962                            .dwattr $C$DW$290, DW_AT_decl_column(0x22)
    4963                    $C$DW$291       .dwtag  DW_TAG_member
    4964                            .dwattr $C$DW$291, DW_AT_type(*$C$DW$T$33)
    4965                            .dwattr $C$DW$291, DW_AT_name("pxIndex")
    4966                            .dwattr $C$DW$291, DW_AT_TI_symbol_name("pxIndex")
    4967                            .dwattr $C$DW$291, DW_AT_data_member_location[DW_OP_plus_uconst 0x4]
    4968                            .dwattr $C$DW$291, DW_AT_accessibility(DW_ACCESS_public)
    4969                            .dwattr $C$DW$291, DW_AT_decl_file("H:\class\690 Adv. Emb. Sys\FreeRTOS8_EECS_TM4C1294_SensorH
    4970                            .dwattr $C$DW$291, DW_AT_decl_line(0xa0)
    4971                            .dwattr $C$DW$291, DW_AT_decl_column(0x23)
    4972                    $C$DW$292       .dwtag  DW_TAG_member
    4973                            .dwattr $C$DW$292, DW_AT_type(*$C$DW$T$34)
    4974                            .dwattr $C$DW$292, DW_AT_name("xListEnd")
    4975                            .dwattr $C$DW$292, DW_AT_TI_symbol_name("xListEnd")
    4976                            .dwattr $C$DW$292, DW_AT_data_member_location[DW_OP_plus_uconst 0x8]
    4977                            .dwattr $C$DW$292, DW_AT_accessibility(DW_ACCESS_public)
    4978                            .dwattr $C$DW$292, DW_AT_decl_file("H:\class\690 Adv. Emb. Sys\FreeRTOS8_EECS_TM4C1294_SensorH
    4979                            .dwattr $C$DW$292, DW_AT_decl_line(0xa1)
    4980                            .dwattr $C$DW$292, DW_AT_decl_column(0x11)
    4981                            .dwendtag $C$DW$T$35
    4982                    
TI ARM Assembler PC v5.1.7 Tue Sep 16 08:38:42 2014

Tools Copyright (c) 1996-2014 Texas Instruments Incorporated
tasks.asm                                                            PAGE   92

    4983                            .dwattr $C$DW$T$35, DW_AT_decl_file("H:\class\690 Adv. Emb. Sys\FreeRTOS8_EECS_TM4C1294_Sensor
    4984                            .dwattr $C$DW$T$35, DW_AT_decl_line(0x9d)
    4985                            .dwattr $C$DW$T$35, DW_AT_decl_column(0x10)
    4986                    $C$DW$T$75      .dwtag  DW_TAG_typedef, DW_AT_name("List_t")
    4987                            .dwattr $C$DW$T$75, DW_AT_type(*$C$DW$T$35)
    4988                            .dwattr $C$DW$T$75, DW_AT_language(DW_LANG_C)
    4989                            .dwattr $C$DW$T$75, DW_AT_decl_file("H:\class\690 Adv. Emb. Sys\FreeRTOS8_EECS_TM4C1294_Sensor
    4990                            .dwattr $C$DW$T$75, DW_AT_decl_line(0xa2)
    4991                            .dwattr $C$DW$T$75, DW_AT_decl_column(0x03)
    4992                    $C$DW$T$138     .dwtag  DW_TAG_const_type
    4993                            .dwattr $C$DW$T$138, DW_AT_type(*$C$DW$T$75)
    4994                    $C$DW$T$139     .dwtag  DW_TAG_pointer_type
    4995                            .dwattr $C$DW$T$139, DW_AT_type(*$C$DW$T$138)
    4996                            .dwattr $C$DW$T$139, DW_AT_address_class(0x20)
    4997                    $C$DW$T$140     .dwtag  DW_TAG_const_type
    4998                            .dwattr $C$DW$T$140, DW_AT_type(*$C$DW$T$139)
    4999                    $C$DW$T$76      .dwtag  DW_TAG_pointer_type
    5000                            .dwattr $C$DW$T$76, DW_AT_type(*$C$DW$T$75)
    5001                            .dwattr $C$DW$T$76, DW_AT_address_class(0x20)
    5002                    $C$DW$T$77      .dwtag  DW_TAG_const_type
    5003                            .dwattr $C$DW$T$77, DW_AT_type(*$C$DW$T$76)
    5004                    $C$DW$T$194     .dwtag  DW_TAG_volatile_type
    5005                            .dwattr $C$DW$T$194, DW_AT_type(*$C$DW$T$76)
    5006                    
    5007                    $C$DW$T$195     .dwtag  DW_TAG_array_type
    5008                            .dwattr $C$DW$T$195, DW_AT_type(*$C$DW$T$75)
    5009                            .dwattr $C$DW$T$195, DW_AT_language(DW_LANG_C)
    5010                            .dwattr $C$DW$T$195, DW_AT_byte_size(0x50)
    5011                    $C$DW$293       .dwtag  DW_TAG_subrange_type
    5012                            .dwattr $C$DW$293, DW_AT_upper_bound(0x03)
    5013                            .dwendtag $C$DW$T$195
    5014                    
    5015                    
    5016                    $C$DW$T$38      .dwtag  DW_TAG_structure_type
    5017                            .dwattr $C$DW$T$38, DW_AT_name("xLIST_ITEM")
    5018                            .dwattr $C$DW$T$38, DW_AT_byte_size(0x14)
    5019                    $C$DW$294       .dwtag  DW_TAG_member
    5020                            .dwattr $C$DW$294, DW_AT_type(*$C$DW$T$36)
    5021                            .dwattr $C$DW$294, DW_AT_name("xItemValue")
    5022                            .dwattr $C$DW$294, DW_AT_TI_symbol_name("xItemValue")
    5023                            .dwattr $C$DW$294, DW_AT_data_member_location[DW_OP_plus_uconst 0x0]
    5024                            .dwattr $C$DW$294, DW_AT_accessibility(DW_ACCESS_public)
    5025                            .dwattr $C$DW$294, DW_AT_decl_file("H:\class\690 Adv. Emb. Sys\FreeRTOS8_EECS_TM4C1294_SensorH
    5026                            .dwattr $C$DW$294, DW_AT_decl_line(0x8a)
    5027                            .dwattr $C$DW$294, DW_AT_decl_column(0x21)
    5028                    $C$DW$295       .dwtag  DW_TAG_member
    5029                            .dwattr $C$DW$295, DW_AT_type(*$C$DW$T$37)
    5030                            .dwattr $C$DW$295, DW_AT_name("pxNext")
    5031                            .dwattr $C$DW$295, DW_AT_TI_symbol_name("pxNext")
    5032                            .dwattr $C$DW$295, DW_AT_data_member_location[DW_OP_plus_uconst 0x4]
    5033                            .dwattr $C$DW$295, DW_AT_accessibility(DW_ACCESS_public)
    5034                            .dwattr $C$DW$295, DW_AT_decl_file("H:\class\690 Adv. Emb. Sys\FreeRTOS8_EECS_TM4C1294_SensorH
    5035                            .dwattr $C$DW$295, DW_AT_decl_line(0x8b)
    5036                            .dwattr $C$DW$295, DW_AT_decl_column(0x2a)
    5037                    $C$DW$296       .dwtag  DW_TAG_member
TI ARM Assembler PC v5.1.7 Tue Sep 16 08:38:42 2014

Tools Copyright (c) 1996-2014 Texas Instruments Incorporated
tasks.asm                                                            PAGE   93

    5038                            .dwattr $C$DW$296, DW_AT_type(*$C$DW$T$37)
    5039                            .dwattr $C$DW$296, DW_AT_name("pxPrevious")
    5040                            .dwattr $C$DW$296, DW_AT_TI_symbol_name("pxPrevious")
    5041                            .dwattr $C$DW$296, DW_AT_data_member_location[DW_OP_plus_uconst 0x8]
    5042                            .dwattr $C$DW$296, DW_AT_accessibility(DW_ACCESS_public)
    5043                            .dwattr $C$DW$296, DW_AT_decl_file("H:\class\690 Adv. Emb. Sys\FreeRTOS8_EECS_TM4C1294_SensorH
    5044                            .dwattr $C$DW$296, DW_AT_decl_line(0x8c)
    5045                            .dwattr $C$DW$296, DW_AT_decl_column(0x2a)
    5046                    $C$DW$297       .dwtag  DW_TAG_member
    5047                            .dwattr $C$DW$297, DW_AT_type(*$C$DW$T$3)
    5048                            .dwattr $C$DW$297, DW_AT_name("pvOwner")
    5049                            .dwattr $C$DW$297, DW_AT_TI_symbol_name("pvOwner")
    5050                            .dwattr $C$DW$297, DW_AT_data_member_location[DW_OP_plus_uconst 0xc]
    5051                            .dwattr $C$DW$297, DW_AT_accessibility(DW_ACCESS_public)
    5052                            .dwattr $C$DW$297, DW_AT_decl_file("H:\class\690 Adv. Emb. Sys\FreeRTOS8_EECS_TM4C1294_SensorH
    5053                            .dwattr $C$DW$297, DW_AT_decl_line(0x8d)
    5054                            .dwattr $C$DW$297, DW_AT_decl_column(0x09)
    5055                    $C$DW$298       .dwtag  DW_TAG_member
    5056                            .dwattr $C$DW$298, DW_AT_type(*$C$DW$T$3)
    5057                            .dwattr $C$DW$298, DW_AT_name("pvContainer")
    5058                            .dwattr $C$DW$298, DW_AT_TI_symbol_name("pvContainer")
    5059                            .dwattr $C$DW$298, DW_AT_data_member_location[DW_OP_plus_uconst 0x10]
    5060                            .dwattr $C$DW$298, DW_AT_accessibility(DW_ACCESS_public)
    5061                            .dwattr $C$DW$298, DW_AT_decl_file("H:\class\690 Adv. Emb. Sys\FreeRTOS8_EECS_TM4C1294_SensorH
    5062                            .dwattr $C$DW$298, DW_AT_decl_line(0x8e)
    5063                            .dwattr $C$DW$298, DW_AT_decl_column(0x1d)
    5064                            .dwendtag $C$DW$T$38
    5065                    
    5066                            .dwattr $C$DW$T$38, DW_AT_decl_file("H:\class\690 Adv. Emb. Sys\FreeRTOS8_EECS_TM4C1294_Sensor
    5067                            .dwattr $C$DW$T$38, DW_AT_decl_line(0x88)
    5068                            .dwattr $C$DW$T$38, DW_AT_decl_column(0x08)
    5069                    $C$DW$T$27      .dwtag  DW_TAG_typedef, DW_AT_name("ListItem_t")
    5070                            .dwattr $C$DW$T$27, DW_AT_type(*$C$DW$T$38)
    5071                            .dwattr $C$DW$T$27, DW_AT_language(DW_LANG_C)
    5072                            .dwattr $C$DW$T$27, DW_AT_decl_file("H:\class\690 Adv. Emb. Sys\FreeRTOS8_EECS_TM4C1294_Sensor
    5073                            .dwattr $C$DW$T$27, DW_AT_decl_line(0x90)
    5074                            .dwattr $C$DW$T$27, DW_AT_decl_column(0x1b)
    5075                    $C$DW$T$33      .dwtag  DW_TAG_pointer_type
    5076                            .dwattr $C$DW$T$33, DW_AT_type(*$C$DW$T$27)
    5077                            .dwattr $C$DW$T$33, DW_AT_address_class(0x20)
    5078                    $C$DW$T$80      .dwtag  DW_TAG_const_type
    5079                            .dwattr $C$DW$T$80, DW_AT_type(*$C$DW$T$33)
    5080                    $C$DW$T$37      .dwtag  DW_TAG_pointer_type
    5081                            .dwattr $C$DW$T$37, DW_AT_type(*$C$DW$T$38)
    5082                            .dwattr $C$DW$T$37, DW_AT_address_class(0x20)
    5083                    
    5084                    $C$DW$T$39      .dwtag  DW_TAG_structure_type
    5085                            .dwattr $C$DW$T$39, DW_AT_name("xMEMORY_REGION")
    5086                            .dwattr $C$DW$T$39, DW_AT_byte_size(0x0c)
    5087                    $C$DW$299       .dwtag  DW_TAG_member
    5088                            .dwattr $C$DW$299, DW_AT_type(*$C$DW$T$3)
    5089                            .dwattr $C$DW$299, DW_AT_name("pvBaseAddress")
    5090                            .dwattr $C$DW$299, DW_AT_TI_symbol_name("pvBaseAddress")
    5091                            .dwattr $C$DW$299, DW_AT_data_member_location[DW_OP_plus_uconst 0x0]
    5092                            .dwattr $C$DW$299, DW_AT_accessibility(DW_ACCESS_public)
TI ARM Assembler PC v5.1.7 Tue Sep 16 08:38:42 2014

Tools Copyright (c) 1996-2014 Texas Instruments Incorporated
tasks.asm                                                            PAGE   94

    5093                            .dwattr $C$DW$299, DW_AT_decl_file("H:/class/690 Adv. Emb. Sys/FreeRTOS8_EECS_TM4C1294_SensorH
    5094                            .dwattr $C$DW$299, DW_AT_decl_line(0x83)
    5095                            .dwattr $C$DW$299, DW_AT_decl_column(0x08)
    5096                    $C$DW$300       .dwtag  DW_TAG_member
    5097                            .dwattr $C$DW$300, DW_AT_type(*$C$DW$T$23)
    5098                            .dwattr $C$DW$300, DW_AT_name("ulLengthInBytes")
    5099                            .dwattr $C$DW$300, DW_AT_TI_symbol_name("ulLengthInBytes")
    5100                            .dwattr $C$DW$300, DW_AT_data_member_location[DW_OP_plus_uconst 0x4]
    5101                            .dwattr $C$DW$300, DW_AT_accessibility(DW_ACCESS_public)
    5102                            .dwattr $C$DW$300, DW_AT_decl_file("H:/class/690 Adv. Emb. Sys/FreeRTOS8_EECS_TM4C1294_SensorH
    5103                            .dwattr $C$DW$300, DW_AT_decl_line(0x84)
    5104                            .dwattr $C$DW$300, DW_AT_decl_column(0x0b)
    5105                    $C$DW$301       .dwtag  DW_TAG_member
    5106                            .dwattr $C$DW$301, DW_AT_type(*$C$DW$T$23)
    5107                            .dwattr $C$DW$301, DW_AT_name("ulParameters")
    5108                            .dwattr $C$DW$301, DW_AT_TI_symbol_name("ulParameters")
    5109                            .dwattr $C$DW$301, DW_AT_data_member_location[DW_OP_plus_uconst 0x8]
    5110                            .dwattr $C$DW$301, DW_AT_accessibility(DW_ACCESS_public)
    5111                            .dwattr $C$DW$301, DW_AT_decl_file("H:/class/690 Adv. Emb. Sys/FreeRTOS8_EECS_TM4C1294_SensorH
    5112                            .dwattr $C$DW$301, DW_AT_decl_line(0x85)
    5113                            .dwattr $C$DW$301, DW_AT_decl_column(0x0b)
    5114                            .dwendtag $C$DW$T$39
    5115                    
    5116                            .dwattr $C$DW$T$39, DW_AT_decl_file("H:/class/690 Adv. Emb. Sys/FreeRTOS8_EECS_TM4C1294_Sensor
    5117                            .dwattr $C$DW$T$39, DW_AT_decl_line(0x81)
    5118                            .dwattr $C$DW$T$39, DW_AT_decl_column(0x10)
    5119                    $C$DW$T$48      .dwtag  DW_TAG_typedef, DW_AT_name("MemoryRegion_t")
    5120                            .dwattr $C$DW$T$48, DW_AT_type(*$C$DW$T$39)
    5121                            .dwattr $C$DW$T$48, DW_AT_language(DW_LANG_C)
    5122                            .dwattr $C$DW$T$48, DW_AT_decl_file("H:/class/690 Adv. Emb. Sys/FreeRTOS8_EECS_TM4C1294_Sensor
    5123                            .dwattr $C$DW$T$48, DW_AT_decl_line(0x86)
    5124                            .dwattr $C$DW$T$48, DW_AT_decl_column(0x03)
    5125                    $C$DW$T$102     .dwtag  DW_TAG_const_type
    5126                            .dwattr $C$DW$T$102, DW_AT_type(*$C$DW$T$48)
    5127                    $C$DW$T$103     .dwtag  DW_TAG_pointer_type
    5128                            .dwattr $C$DW$T$103, DW_AT_type(*$C$DW$T$102)
    5129                            .dwattr $C$DW$T$103, DW_AT_address_class(0x20)
    5130                    $C$DW$T$104     .dwtag  DW_TAG_const_type
    5131                            .dwattr $C$DW$T$104, DW_AT_type(*$C$DW$T$103)
    5132                    
    5133                    $C$DW$T$49      .dwtag  DW_TAG_array_type
    5134                            .dwattr $C$DW$T$49, DW_AT_type(*$C$DW$T$48)
    5135                            .dwattr $C$DW$T$49, DW_AT_language(DW_LANG_C)
    5136                            .dwattr $C$DW$T$49, DW_AT_byte_size(0x0c)
    5137                    $C$DW$302       .dwtag  DW_TAG_subrange_type
    5138                            .dwattr $C$DW$302, DW_AT_upper_bound(0x00)
    5139                            .dwendtag $C$DW$T$49
    5140                    
    5141                    
    5142                    $C$DW$T$40      .dwtag  DW_TAG_structure_type
    5143                            .dwattr $C$DW$T$40, DW_AT_name("xMINI_LIST_ITEM")
    5144                            .dwattr $C$DW$T$40, DW_AT_byte_size(0x0c)
    5145                    $C$DW$303       .dwtag  DW_TAG_member
    5146                            .dwattr $C$DW$303, DW_AT_type(*$C$DW$T$36)
    5147                            .dwattr $C$DW$303, DW_AT_name("xItemValue")
TI ARM Assembler PC v5.1.7 Tue Sep 16 08:38:42 2014

Tools Copyright (c) 1996-2014 Texas Instruments Incorporated
tasks.asm                                                            PAGE   95

    5148                            .dwattr $C$DW$303, DW_AT_TI_symbol_name("xItemValue")
    5149                            .dwattr $C$DW$303, DW_AT_data_member_location[DW_OP_plus_uconst 0x0]
    5150                            .dwattr $C$DW$303, DW_AT_accessibility(DW_ACCESS_public)
    5151                            .dwattr $C$DW$303, DW_AT_decl_file("H:\class\690 Adv. Emb. Sys\FreeRTOS8_EECS_TM4C1294_SensorH
    5152                            .dwattr $C$DW$303, DW_AT_decl_line(0x94)
    5153                            .dwattr $C$DW$303, DW_AT_decl_column(0x21)
    5154                    $C$DW$304       .dwtag  DW_TAG_member
    5155                            .dwattr $C$DW$304, DW_AT_type(*$C$DW$T$37)
    5156                            .dwattr $C$DW$304, DW_AT_name("pxNext")
    5157                            .dwattr $C$DW$304, DW_AT_TI_symbol_name("pxNext")
    5158                            .dwattr $C$DW$304, DW_AT_data_member_location[DW_OP_plus_uconst 0x4]
    5159                            .dwattr $C$DW$304, DW_AT_accessibility(DW_ACCESS_public)
    5160                            .dwattr $C$DW$304, DW_AT_decl_file("H:\class\690 Adv. Emb. Sys\FreeRTOS8_EECS_TM4C1294_SensorH
    5161                            .dwattr $C$DW$304, DW_AT_decl_line(0x95)
    5162                            .dwattr $C$DW$304, DW_AT_decl_column(0x2a)
    5163                    $C$DW$305       .dwtag  DW_TAG_member
    5164                            .dwattr $C$DW$305, DW_AT_type(*$C$DW$T$37)
    5165                            .dwattr $C$DW$305, DW_AT_name("pxPrevious")
    5166                            .dwattr $C$DW$305, DW_AT_TI_symbol_name("pxPrevious")
    5167                            .dwattr $C$DW$305, DW_AT_data_member_location[DW_OP_plus_uconst 0x8]
    5168                            .dwattr $C$DW$305, DW_AT_accessibility(DW_ACCESS_public)
    5169                            .dwattr $C$DW$305, DW_AT_decl_file("H:\class\690 Adv. Emb. Sys\FreeRTOS8_EECS_TM4C1294_SensorH
    5170                            .dwattr $C$DW$305, DW_AT_decl_line(0x96)
    5171                            .dwattr $C$DW$305, DW_AT_decl_column(0x2a)
    5172                            .dwendtag $C$DW$T$40
    5173                    
    5174                            .dwattr $C$DW$T$40, DW_AT_decl_file("H:\class\690 Adv. Emb. Sys\FreeRTOS8_EECS_TM4C1294_Sensor
    5175                            .dwattr $C$DW$T$40, DW_AT_decl_line(0x92)
    5176                            .dwattr $C$DW$T$40, DW_AT_decl_column(0x08)
    5177                    $C$DW$T$34      .dwtag  DW_TAG_typedef, DW_AT_name("MiniListItem_t")
    5178                            .dwattr $C$DW$T$34, DW_AT_type(*$C$DW$T$40)
    5179                            .dwattr $C$DW$T$34, DW_AT_language(DW_LANG_C)
    5180                            .dwattr $C$DW$T$34, DW_AT_decl_file("H:\class\690 Adv. Emb. Sys\FreeRTOS8_EECS_TM4C1294_Sensor
    5181                            .dwattr $C$DW$T$34, DW_AT_decl_line(0x98)
    5182                            .dwattr $C$DW$T$34, DW_AT_decl_column(0x20)
    5183                    
    5184                    $C$DW$T$50      .dwtag  DW_TAG_structure_type
    5185                            .dwattr $C$DW$T$50, DW_AT_name("xTASK_PARAMETERS")
    5186                            .dwattr $C$DW$T$50, DW_AT_byte_size(0x24)
    5187                    $C$DW$306       .dwtag  DW_TAG_member
    5188                            .dwattr $C$DW$306, DW_AT_type(*$C$DW$T$43)
    5189                            .dwattr $C$DW$306, DW_AT_name("pvTaskCode")
    5190                            .dwattr $C$DW$306, DW_AT_TI_symbol_name("pvTaskCode")
    5191                            .dwattr $C$DW$306, DW_AT_data_member_location[DW_OP_plus_uconst 0x0]
    5192                            .dwattr $C$DW$306, DW_AT_accessibility(DW_ACCESS_public)
    5193                            .dwattr $C$DW$306, DW_AT_decl_file("H:/class/690 Adv. Emb. Sys/FreeRTOS8_EECS_TM4C1294_SensorH
    5194                            .dwattr $C$DW$306, DW_AT_decl_line(0x8d)
    5195                            .dwattr $C$DW$306, DW_AT_decl_column(0x11)
    5196                    $C$DW$307       .dwtag  DW_TAG_member
    5197                            .dwattr $C$DW$307, DW_AT_type(*$C$DW$T$46)
    5198                            .dwattr $C$DW$307, DW_AT_name("pcName")
    5199                            .dwattr $C$DW$307, DW_AT_TI_symbol_name("pcName")
    5200                            .dwattr $C$DW$307, DW_AT_data_member_location[DW_OP_plus_uconst 0x4]
    5201                            .dwattr $C$DW$307, DW_AT_accessibility(DW_ACCESS_public)
    5202                            .dwattr $C$DW$307, DW_AT_decl_file("H:/class/690 Adv. Emb. Sys/FreeRTOS8_EECS_TM4C1294_SensorH
TI ARM Assembler PC v5.1.7 Tue Sep 16 08:38:42 2014

Tools Copyright (c) 1996-2014 Texas Instruments Incorporated
tasks.asm                                                            PAGE   96

    5203                            .dwattr $C$DW$307, DW_AT_decl_line(0x8e)
    5204                            .dwattr $C$DW$307, DW_AT_decl_column(0x15)
    5205                    $C$DW$308       .dwtag  DW_TAG_member
    5206                            .dwattr $C$DW$308, DW_AT_type(*$C$DW$T$47)
    5207                            .dwattr $C$DW$308, DW_AT_name("usStackDepth")
    5208                            .dwattr $C$DW$308, DW_AT_TI_symbol_name("usStackDepth")
    5209                            .dwattr $C$DW$308, DW_AT_data_member_location[DW_OP_plus_uconst 0x8]
    5210                            .dwattr $C$DW$308, DW_AT_accessibility(DW_ACCESS_public)
    5211                            .dwattr $C$DW$308, DW_AT_decl_file("H:/class/690 Adv. Emb. Sys/FreeRTOS8_EECS_TM4C1294_SensorH
    5212                            .dwattr $C$DW$308, DW_AT_decl_line(0x8f)
    5213                            .dwattr $C$DW$308, DW_AT_decl_column(0x0b)
    5214                    $C$DW$309       .dwtag  DW_TAG_member
    5215                            .dwattr $C$DW$309, DW_AT_type(*$C$DW$T$3)
    5216                            .dwattr $C$DW$309, DW_AT_name("pvParameters")
    5217                            .dwattr $C$DW$309, DW_AT_TI_symbol_name("pvParameters")
    5218                            .dwattr $C$DW$309, DW_AT_data_member_location[DW_OP_plus_uconst 0xc]
    5219                            .dwattr $C$DW$309, DW_AT_accessibility(DW_ACCESS_public)
    5220                            .dwattr $C$DW$309, DW_AT_decl_file("H:/class/690 Adv. Emb. Sys/FreeRTOS8_EECS_TM4C1294_SensorH
    5221                            .dwattr $C$DW$309, DW_AT_decl_line(0x90)
    5222                            .dwattr $C$DW$309, DW_AT_decl_column(0x08)
    5223                    $C$DW$310       .dwtag  DW_TAG_member
    5224                            .dwattr $C$DW$310, DW_AT_type(*$C$DW$T$28)
    5225                            .dwattr $C$DW$310, DW_AT_name("uxPriority")
    5226                            .dwattr $C$DW$310, DW_AT_TI_symbol_name("uxPriority")
    5227                            .dwattr $C$DW$310, DW_AT_data_member_location[DW_OP_plus_uconst 0x10]
    5228                            .dwattr $C$DW$310, DW_AT_accessibility(DW_ACCESS_public)
    5229                            .dwattr $C$DW$310, DW_AT_decl_file("H:/class/690 Adv. Emb. Sys/FreeRTOS8_EECS_TM4C1294_SensorH
    5230                            .dwattr $C$DW$310, DW_AT_decl_line(0x91)
    5231                            .dwattr $C$DW$310, DW_AT_decl_column(0x0e)
    5232                    $C$DW$311       .dwtag  DW_TAG_member
    5233                            .dwattr $C$DW$311, DW_AT_type(*$C$DW$T$29)
    5234                            .dwattr $C$DW$311, DW_AT_name("puxStackBuffer")
    5235                            .dwattr $C$DW$311, DW_AT_TI_symbol_name("puxStackBuffer")
    5236                            .dwattr $C$DW$311, DW_AT_data_member_location[DW_OP_plus_uconst 0x14]
    5237                            .dwattr $C$DW$311, DW_AT_accessibility(DW_ACCESS_public)
    5238                            .dwattr $C$DW$311, DW_AT_decl_file("H:/class/690 Adv. Emb. Sys/FreeRTOS8_EECS_TM4C1294_SensorH
    5239                            .dwattr $C$DW$311, DW_AT_decl_line(0x92)
    5240                            .dwattr $C$DW$311, DW_AT_decl_column(0x0f)
    5241                    $C$DW$312       .dwtag  DW_TAG_member
    5242                            .dwattr $C$DW$312, DW_AT_type(*$C$DW$T$49)
    5243                            .dwattr $C$DW$312, DW_AT_name("xRegions")
    5244                            .dwattr $C$DW$312, DW_AT_TI_symbol_name("xRegions")
    5245                            .dwattr $C$DW$312, DW_AT_data_member_location[DW_OP_plus_uconst 0x18]
    5246                            .dwattr $C$DW$312, DW_AT_accessibility(DW_ACCESS_public)
    5247                            .dwattr $C$DW$312, DW_AT_decl_file("H:/class/690 Adv. Emb. Sys/FreeRTOS8_EECS_TM4C1294_SensorH
    5248                            .dwattr $C$DW$312, DW_AT_decl_line(0x93)
    5249                            .dwattr $C$DW$312, DW_AT_decl_column(0x11)
    5250                            .dwendtag $C$DW$T$50
    5251                    
    5252                            .dwattr $C$DW$T$50, DW_AT_decl_file("H:/class/690 Adv. Emb. Sys/FreeRTOS8_EECS_TM4C1294_Sensor
    5253                            .dwattr $C$DW$T$50, DW_AT_decl_line(0x8b)
    5254                            .dwattr $C$DW$T$50, DW_AT_decl_column(0x10)
    5255                    $C$DW$T$199     .dwtag  DW_TAG_typedef, DW_AT_name("TaskParameters_t")
    5256                            .dwattr $C$DW$T$199, DW_AT_type(*$C$DW$T$50)
    5257                            .dwattr $C$DW$T$199, DW_AT_language(DW_LANG_C)
TI ARM Assembler PC v5.1.7 Tue Sep 16 08:38:42 2014

Tools Copyright (c) 1996-2014 Texas Instruments Incorporated
tasks.asm                                                            PAGE   97

    5258                            .dwattr $C$DW$T$199, DW_AT_decl_file("H:/class/690 Adv. Emb. Sys/FreeRTOS8_EECS_TM4C1294_Senso
    5259                            .dwattr $C$DW$T$199, DW_AT_decl_line(0x94)
    5260                            .dwattr $C$DW$T$199, DW_AT_decl_column(0x03)
    5261                    
    5262                    $C$DW$T$54      .dwtag  DW_TAG_structure_type
    5263                            .dwattr $C$DW$T$54, DW_AT_name("xTASK_STATUS")
    5264                            .dwattr $C$DW$T$54, DW_AT_byte_size(0x20)
    5265                    $C$DW$313       .dwtag  DW_TAG_member
    5266                            .dwattr $C$DW$313, DW_AT_type(*$C$DW$T$51)
    5267                            .dwattr $C$DW$313, DW_AT_name("xHandle")
    5268                            .dwattr $C$DW$313, DW_AT_TI_symbol_name("xHandle")
    5269                            .dwattr $C$DW$313, DW_AT_data_member_location[DW_OP_plus_uconst 0x0]
    5270                            .dwattr $C$DW$313, DW_AT_accessibility(DW_ACCESS_public)
    5271                            .dwattr $C$DW$313, DW_AT_decl_file("H:/class/690 Adv. Emb. Sys/FreeRTOS8_EECS_TM4C1294_SensorH
    5272                            .dwattr $C$DW$313, DW_AT_decl_line(0x9a)
    5273                            .dwattr $C$DW$313, DW_AT_decl_column(0x0f)
    5274                    $C$DW$314       .dwtag  DW_TAG_member
    5275                            .dwattr $C$DW$314, DW_AT_type(*$C$DW$T$45)
    5276                            .dwattr $C$DW$314, DW_AT_name("pcTaskName")
    5277                            .dwattr $C$DW$314, DW_AT_TI_symbol_name("pcTaskName")
    5278                            .dwattr $C$DW$314, DW_AT_data_member_location[DW_OP_plus_uconst 0x4]
    5279                            .dwattr $C$DW$314, DW_AT_accessibility(DW_ACCESS_public)
    5280                            .dwattr $C$DW$314, DW_AT_decl_file("H:/class/690 Adv. Emb. Sys/FreeRTOS8_EECS_TM4C1294_SensorH
    5281                            .dwattr $C$DW$314, DW_AT_decl_line(0x9b)
    5282                            .dwattr $C$DW$314, DW_AT_decl_column(0x0e)
    5283                    $C$DW$315       .dwtag  DW_TAG_member
    5284                            .dwattr $C$DW$315, DW_AT_type(*$C$DW$T$28)
    5285                            .dwattr $C$DW$315, DW_AT_name("xTaskNumber")
    5286                            .dwattr $C$DW$315, DW_AT_TI_symbol_name("xTaskNumber")
    5287                            .dwattr $C$DW$315, DW_AT_data_member_location[DW_OP_plus_uconst 0x8]
    5288                            .dwattr $C$DW$315, DW_AT_accessibility(DW_ACCESS_public)
    5289                            .dwattr $C$DW$315, DW_AT_decl_file("H:/class/690 Adv. Emb. Sys/FreeRTOS8_EECS_TM4C1294_SensorH
    5290                            .dwattr $C$DW$315, DW_AT_decl_line(0x9c)
    5291                            .dwattr $C$DW$315, DW_AT_decl_column(0x0e)
    5292                    $C$DW$316       .dwtag  DW_TAG_member
    5293                            .dwattr $C$DW$316, DW_AT_type(*$C$DW$T$53)
    5294                            .dwattr $C$DW$316, DW_AT_name("eCurrentState")
    5295                            .dwattr $C$DW$316, DW_AT_TI_symbol_name("eCurrentState")
    5296                            .dwattr $C$DW$316, DW_AT_data_member_location[DW_OP_plus_uconst 0xc]
    5297                            .dwattr $C$DW$316, DW_AT_accessibility(DW_ACCESS_public)
    5298                            .dwattr $C$DW$316, DW_AT_decl_file("H:/class/690 Adv. Emb. Sys/FreeRTOS8_EECS_TM4C1294_SensorH
    5299                            .dwattr $C$DW$316, DW_AT_decl_line(0x9d)
    5300                            .dwattr $C$DW$316, DW_AT_decl_column(0x0d)
    5301                    $C$DW$317       .dwtag  DW_TAG_member
    5302                            .dwattr $C$DW$317, DW_AT_type(*$C$DW$T$28)
    5303                            .dwattr $C$DW$317, DW_AT_name("uxCurrentPriority")
    5304                            .dwattr $C$DW$317, DW_AT_TI_symbol_name("uxCurrentPriority")
    5305                            .dwattr $C$DW$317, DW_AT_data_member_location[DW_OP_plus_uconst 0x10]
    5306                            .dwattr $C$DW$317, DW_AT_accessibility(DW_ACCESS_public)
    5307                            .dwattr $C$DW$317, DW_AT_decl_file("H:/class/690 Adv. Emb. Sys/FreeRTOS8_EECS_TM4C1294_SensorH
    5308                            .dwattr $C$DW$317, DW_AT_decl_line(0x9e)
    5309                            .dwattr $C$DW$317, DW_AT_decl_column(0x0e)
    5310                    $C$DW$318       .dwtag  DW_TAG_member
    5311                            .dwattr $C$DW$318, DW_AT_type(*$C$DW$T$28)
    5312                            .dwattr $C$DW$318, DW_AT_name("uxBasePriority")
TI ARM Assembler PC v5.1.7 Tue Sep 16 08:38:42 2014

Tools Copyright (c) 1996-2014 Texas Instruments Incorporated
tasks.asm                                                            PAGE   98

    5313                            .dwattr $C$DW$318, DW_AT_TI_symbol_name("uxBasePriority")
    5314                            .dwattr $C$DW$318, DW_AT_data_member_location[DW_OP_plus_uconst 0x14]
    5315                            .dwattr $C$DW$318, DW_AT_accessibility(DW_ACCESS_public)
    5316                            .dwattr $C$DW$318, DW_AT_decl_file("H:/class/690 Adv. Emb. Sys/FreeRTOS8_EECS_TM4C1294_SensorH
    5317                            .dwattr $C$DW$318, DW_AT_decl_line(0x9f)
    5318                            .dwattr $C$DW$318, DW_AT_decl_column(0x0e)
    5319                    $C$DW$319       .dwtag  DW_TAG_member
    5320                            .dwattr $C$DW$319, DW_AT_type(*$C$DW$T$23)
    5321                            .dwattr $C$DW$319, DW_AT_name("ulRunTimeCounter")
    5322                            .dwattr $C$DW$319, DW_AT_TI_symbol_name("ulRunTimeCounter")
    5323                            .dwattr $C$DW$319, DW_AT_data_member_location[DW_OP_plus_uconst 0x18]
    5324                            .dwattr $C$DW$319, DW_AT_accessibility(DW_ACCESS_public)
    5325                            .dwattr $C$DW$319, DW_AT_decl_file("H:/class/690 Adv. Emb. Sys/FreeRTOS8_EECS_TM4C1294_SensorH
    5326                            .dwattr $C$DW$319, DW_AT_decl_line(0xa0)
    5327                            .dwattr $C$DW$319, DW_AT_decl_column(0x0b)
    5328                    $C$DW$320       .dwtag  DW_TAG_member
    5329                            .dwattr $C$DW$320, DW_AT_type(*$C$DW$T$47)
    5330                            .dwattr $C$DW$320, DW_AT_name("usStackHighWaterMark")
    5331                            .dwattr $C$DW$320, DW_AT_TI_symbol_name("usStackHighWaterMark")
    5332                            .dwattr $C$DW$320, DW_AT_data_member_location[DW_OP_plus_uconst 0x1c]
    5333                            .dwattr $C$DW$320, DW_AT_accessibility(DW_ACCESS_public)
    5334                            .dwattr $C$DW$320, DW_AT_decl_file("H:/class/690 Adv. Emb. Sys/FreeRTOS8_EECS_TM4C1294_SensorH
    5335                            .dwattr $C$DW$320, DW_AT_decl_line(0xa1)
    5336                            .dwattr $C$DW$320, DW_AT_decl_column(0x0b)
    5337                            .dwendtag $C$DW$T$54
    5338                    
    5339                            .dwattr $C$DW$T$54, DW_AT_decl_file("H:/class/690 Adv. Emb. Sys/FreeRTOS8_EECS_TM4C1294_Sensor
    5340                            .dwattr $C$DW$T$54, DW_AT_decl_line(0x98)
    5341                            .dwattr $C$DW$T$54, DW_AT_decl_column(0x10)
    5342                    $C$DW$T$200     .dwtag  DW_TAG_typedef, DW_AT_name("TaskStatus_t")
    5343                            .dwattr $C$DW$T$200, DW_AT_type(*$C$DW$T$54)
    5344                            .dwattr $C$DW$T$200, DW_AT_language(DW_LANG_C)
    5345                            .dwattr $C$DW$T$200, DW_AT_decl_file("H:/class/690 Adv. Emb. Sys/FreeRTOS8_EECS_TM4C1294_Senso
    5346                            .dwattr $C$DW$T$200, DW_AT_decl_line(0xa2)
    5347                            .dwattr $C$DW$T$200, DW_AT_decl_column(0x03)
    5348                    
    5349                    $C$DW$T$57      .dwtag  DW_TAG_structure_type
    5350                            .dwattr $C$DW$T$57, DW_AT_name("xTIME_OUT")
    5351                            .dwattr $C$DW$T$57, DW_AT_byte_size(0x08)
    5352                    $C$DW$321       .dwtag  DW_TAG_member
    5353                            .dwattr $C$DW$321, DW_AT_type(*$C$DW$T$56)
    5354                            .dwattr $C$DW$321, DW_AT_name("xOverflowCount")
    5355                            .dwattr $C$DW$321, DW_AT_TI_symbol_name("xOverflowCount")
    5356                            .dwattr $C$DW$321, DW_AT_data_member_location[DW_OP_plus_uconst 0x0]
    5357                            .dwattr $C$DW$321, DW_AT_accessibility(DW_ACCESS_public)
    5358                            .dwattr $C$DW$321, DW_AT_decl_file("H:/class/690 Adv. Emb. Sys/FreeRTOS8_EECS_TM4C1294_SensorH
    5359                            .dwattr $C$DW$321, DW_AT_decl_line(0x7a)
    5360                            .dwattr $C$DW$321, DW_AT_decl_column(0x0d)
    5361                    $C$DW$322       .dwtag  DW_TAG_member
    5362                            .dwattr $C$DW$322, DW_AT_type(*$C$DW$T$36)
    5363                            .dwattr $C$DW$322, DW_AT_name("xTimeOnEntering")
    5364                            .dwattr $C$DW$322, DW_AT_TI_symbol_name("xTimeOnEntering")
    5365                            .dwattr $C$DW$322, DW_AT_data_member_location[DW_OP_plus_uconst 0x4]
    5366                            .dwattr $C$DW$322, DW_AT_accessibility(DW_ACCESS_public)
    5367                            .dwattr $C$DW$322, DW_AT_decl_file("H:/class/690 Adv. Emb. Sys/FreeRTOS8_EECS_TM4C1294_SensorH
TI ARM Assembler PC v5.1.7 Tue Sep 16 08:38:42 2014

Tools Copyright (c) 1996-2014 Texas Instruments Incorporated
tasks.asm                                                            PAGE   99

    5368                            .dwattr $C$DW$322, DW_AT_decl_line(0x7b)
    5369                            .dwattr $C$DW$322, DW_AT_decl_column(0x0e)
    5370                            .dwendtag $C$DW$T$57
    5371                    
    5372                            .dwattr $C$DW$T$57, DW_AT_decl_file("H:/class/690 Adv. Emb. Sys/FreeRTOS8_EECS_TM4C1294_Sensor
    5373                            .dwattr $C$DW$T$57, DW_AT_decl_line(0x78)
    5374                            .dwattr $C$DW$T$57, DW_AT_decl_column(0x10)
    5375                    $C$DW$T$93      .dwtag  DW_TAG_typedef, DW_AT_name("TimeOut_t")
    5376                            .dwattr $C$DW$T$93, DW_AT_type(*$C$DW$T$57)
    5377                            .dwattr $C$DW$T$93, DW_AT_language(DW_LANG_C)
    5378                            .dwattr $C$DW$T$93, DW_AT_decl_file("H:/class/690 Adv. Emb. Sys/FreeRTOS8_EECS_TM4C1294_Sensor
    5379                            .dwattr $C$DW$T$93, DW_AT_decl_line(0x7c)
    5380                            .dwattr $C$DW$T$93, DW_AT_decl_column(0x03)
    5381                    $C$DW$T$94      .dwtag  DW_TAG_pointer_type
    5382                            .dwattr $C$DW$T$94, DW_AT_type(*$C$DW$T$93)
    5383                            .dwattr $C$DW$T$94, DW_AT_address_class(0x20)
    5384                    $C$DW$T$95      .dwtag  DW_TAG_const_type
    5385                            .dwattr $C$DW$T$95, DW_AT_type(*$C$DW$T$94)
    5386                            .dwattr $C$DW$CU, DW_AT_language(DW_LANG_C)
    5387                    
    5388                    ;***************************************************************
    5389                    ;* DWARF CIE ENTRIES                                           *
    5390                    ;***************************************************************
    5391                    
    5392                    $C$DW$CIE       .dwcie 14
    5393                            .dwcfi  cfa_register, 13
    5394                            .dwcfi  cfa_offset, 0
    5395                            .dwcfi  undefined, 0
    5396                            .dwcfi  undefined, 1
    5397                            .dwcfi  undefined, 2
    5398                            .dwcfi  undefined, 3
    5399                            .dwcfi  same_value, 4
    5400                            .dwcfi  same_value, 5
    5401                            .dwcfi  same_value, 6
    5402                            .dwcfi  same_value, 7
    5403                            .dwcfi  same_value, 8
    5404                            .dwcfi  same_value, 9
    5405                            .dwcfi  same_value, 10
    5406                            .dwcfi  same_value, 11
    5407                            .dwcfi  undefined, 12
    5408                            .dwcfi  undefined, 13
    5409                            .dwcfi  undefined, 14
    5410                            .dwcfi  undefined, 14
    5411                            .dwcfi  undefined, 7
    5412                            .dwcfi  undefined, 64
    5413                            .dwcfi  undefined, 65
    5414                            .dwcfi  undefined, 66
    5415                            .dwcfi  undefined, 67
    5416                            .dwcfi  undefined, 68
    5417                            .dwcfi  undefined, 69
    5418                            .dwcfi  undefined, 70
    5419                            .dwcfi  undefined, 71
    5420                            .dwcfi  undefined, 72
    5421                            .dwcfi  undefined, 73
    5422                            .dwcfi  undefined, 74
TI ARM Assembler PC v5.1.7 Tue Sep 16 08:38:42 2014

Tools Copyright (c) 1996-2014 Texas Instruments Incorporated
tasks.asm                                                            PAGE  100

    5423                            .dwcfi  undefined, 75
    5424                            .dwcfi  undefined, 76
    5425                            .dwcfi  undefined, 77
    5426                            .dwcfi  undefined, 78
    5427                            .dwcfi  undefined, 79
    5428                            .dwcfi  same_value, 80
    5429                            .dwcfi  same_value, 81
    5430                            .dwcfi  same_value, 82
    5431                            .dwcfi  same_value, 83
    5432                            .dwcfi  same_value, 84
    5433                            .dwcfi  same_value, 85
    5434                            .dwcfi  same_value, 86
    5435                            .dwcfi  same_value, 87
    5436                            .dwcfi  same_value, 88
    5437                            .dwcfi  same_value, 89
    5438                            .dwcfi  same_value, 90
    5439                            .dwcfi  same_value, 91
    5440                            .dwcfi  same_value, 92
    5441                            .dwcfi  same_value, 93
    5442                            .dwcfi  same_value, 94
    5443                            .dwcfi  same_value, 95
    5444                            .dwendentry
    5445                            .dwendtag $C$DW$CU
    5446                    

--------------------------
Thumb2 Statistics
--------------------------
Number of Thumb2 ins converted to Thumb = 0 (0%)
Number of Thumb ins in input = 876 (89%)
Number of Thumb2 ins encoded as Thumb2 = 102 (100%)
Number of Thumb2 ins converted to 2 OPND Thumb = 174


No Assembly Errors, No Assembly Warnings
