TI ARM Assembler PC v5.1.7 Tue Sep 16 08:38:33 2014

Tools Copyright (c) 1996-2014 Texas Instruments Incorporated
startup_ccs.asm                                                      PAGE    1

       1                    ;******************************************************************************
       2                    ;* TI ARM C/C++ Codegen                                             PC v5.1.7 *
       3                    ;* Date/Time created: Tue Sep 16 08:38:33 2014                                *
       4                    ;******************************************************************************
       5                            .compiler_opts --abi=eabi --arm_vmrs_si_workaround=off --code_state=16 --disable_dual_state --
       6 00000000                   .thumb
       7                    
       8                    $C$DW$CU        .dwtag  DW_TAG_compile_unit
       9                            .dwattr $C$DW$CU, DW_AT_name("../startup_ccs.c")
      10                            .dwattr $C$DW$CU, DW_AT_producer("TI TI ARM C/C++ Codegen PC v5.1.7 Copyright (c) 1996-2014 Te
      11                            .dwattr $C$DW$CU, DW_AT_TI_version(0x01)
      12                            .dwattr $C$DW$CU, DW_AT_comp_dir("H:\class\690 Adv. Emb. Sys\FreeRTOS8_EECS_TM4C1294_SensorHub
      13                    
      14                    $C$DW$1 .dwtag  DW_TAG_subprogram, DW_AT_name("xPortPendSVHandler")
      15                            .dwattr $C$DW$1, DW_AT_TI_symbol_name("xPortPendSVHandler")
      16                            .dwattr $C$DW$1, DW_AT_declaration
      17                            .dwattr $C$DW$1, DW_AT_external
      18                            .dwattr $C$DW$1, DW_AT_decl_file("../startup_ccs.c")
      19                            .dwattr $C$DW$1, DW_AT_decl_line(0x31)
      20                            .dwattr $C$DW$1, DW_AT_decl_column(0x0d)
      21                    
      22                    $C$DW$2 .dwtag  DW_TAG_subprogram, DW_AT_name("vPortSVCHandler")
      23                            .dwattr $C$DW$2, DW_AT_TI_symbol_name("vPortSVCHandler")
      24                            .dwattr $C$DW$2, DW_AT_declaration
      25                            .dwattr $C$DW$2, DW_AT_external
      26                            .dwattr $C$DW$2, DW_AT_decl_file("../startup_ccs.c")
      27                            .dwattr $C$DW$2, DW_AT_decl_line(0x32)
      28                            .dwattr $C$DW$2, DW_AT_decl_column(0x0d)
      29                    
      30                    $C$DW$3 .dwtag  DW_TAG_subprogram, DW_AT_name("xPortSysTickHandler")
      31                            .dwattr $C$DW$3, DW_AT_TI_symbol_name("xPortSysTickHandler")
      32                            .dwattr $C$DW$3, DW_AT_declaration
      33                            .dwattr $C$DW$3, DW_AT_external
      34                            .dwattr $C$DW$3, DW_AT_decl_file("../startup_ccs.c")
      35                            .dwattr $C$DW$3, DW_AT_decl_line(0x33)
      36                            .dwattr $C$DW$3, DW_AT_decl_column(0x0d)
      37                    
      38                    $C$DW$4 .dwtag  DW_TAG_subprogram, DW_AT_name("Timer_0_A_ISR")
      39                            .dwattr $C$DW$4, DW_AT_TI_symbol_name("Timer_0_A_ISR")
      40                            .dwattr $C$DW$4, DW_AT_declaration
      41                            .dwattr $C$DW$4, DW_AT_external
      42                            .dwattr $C$DW$4, DW_AT_decl_file("../startup_ccs.c")
      43                            .dwattr $C$DW$4, DW_AT_decl_line(0x36)
      44                            .dwattr $C$DW$4, DW_AT_decl_column(0x0d)
      45                    
      46                    $C$DW$5 .dwtag  DW_TAG_subprogram, DW_AT_name("I2C7_IntServiceRoutine")
      47                            .dwattr $C$DW$5, DW_AT_TI_symbol_name("I2C7_IntServiceRoutine")
      48                            .dwattr $C$DW$5, DW_AT_declaration
      49                            .dwattr $C$DW$5, DW_AT_external
      50                            .dwattr $C$DW$5, DW_AT_decl_file("../startup_ccs.c")
      51                            .dwattr $C$DW$5, DW_AT_decl_line(0x37)
      52                            .dwattr $C$DW$5, DW_AT_decl_column(0x0d)
      53 00000000           pulStack:       .usect  ".bss:pulStack",256,4
      54                    $C$DW$6 .dwtag  DW_TAG_variable, DW_AT_name("pulStack")
      55                            .dwattr $C$DW$6, DW_AT_TI_symbol_name("pulStack")
TI ARM Assembler PC v5.1.7 Tue Sep 16 08:38:33 2014

Tools Copyright (c) 1996-2014 Texas Instruments Incorporated
startup_ccs.asm                                                      PAGE    2

      56                            .dwattr $C$DW$6, DW_AT_type(*$C$DW$T$25)
      57                            .dwattr $C$DW$6, DW_AT_location[DW_OP_addr pulStack]
      58                            .dwattr $C$DW$6, DW_AT_decl_file("../startup_ccs.c")
      59                            .dwattr $C$DW$6, DW_AT_decl_line(0x41)
      60                            .dwattr $C$DW$6, DW_AT_decl_column(0x16)
      61                            .global g_pfnVectors
      62 00000000                   .sect   ".intvecs"
      63                            .align  4
      64                            .elfsym g_pfnVectors,SYM_SIZE(512)
      65 00000000           g_pfnVectors:
      66 00000000 00000100!         .bits   pulStack+256,32         ; g_pfnVectors[0] @ 0
      67 00000004 00000000!         .bits   ResetISR,32             ; g_pfnVectors[1] @ 32
      68 00000008 00000000!         .bits   NmiSR,32                ; g_pfnVectors[2] @ 64
      69 0000000c 00000000!         .bits   FaultISR,32             ; g_pfnVectors[3] @ 96
      70 00000010 00000000!         .bits   IntDefaultHandler,32            ; g_pfnVectors[4] @ 128
      71 00000014 00000000!         .bits   IntDefaultHandler,32            ; g_pfnVectors[5] @ 160
      72 00000018 00000000!         .bits   IntDefaultHandler,32            ; g_pfnVectors[6] @ 192
      73 0000001c 00000000          .bits   0,32                    ; g_pfnVectors[7] @ 224
      74 00000020 00000000          .bits   0,32                    ; g_pfnVectors[8] @ 256
      75 00000024 00000000          .bits   0,32                    ; g_pfnVectors[9] @ 288
      76 00000028 00000000          .bits   0,32                    ; g_pfnVectors[10] @ 320
      77 0000002c 00000000!         .bits   vPortSVCHandler,32              ; g_pfnVectors[11] @ 352
      78 00000030 00000000!         .bits   IntDefaultHandler,32            ; g_pfnVectors[12] @ 384
      79 00000034 00000000          .bits   0,32                    ; g_pfnVectors[13] @ 416
      80 00000038 00000000!         .bits   xPortPendSVHandler,32           ; g_pfnVectors[14] @ 448
      81 0000003c 00000000!         .bits   xPortSysTickHandler,32          ; g_pfnVectors[15] @ 480
      82 00000040 00000000!         .bits   IntDefaultHandler,32            ; g_pfnVectors[16] @ 512
      83 00000044 00000000!         .bits   IntDefaultHandler,32            ; g_pfnVectors[17] @ 544
      84 00000048 00000000!         .bits   IntDefaultHandler,32            ; g_pfnVectors[18] @ 576
      85 0000004c 00000000!         .bits   IntDefaultHandler,32            ; g_pfnVectors[19] @ 608
      86 00000050 00000000!         .bits   IntDefaultHandler,32            ; g_pfnVectors[20] @ 640
      87 00000054 00000000!         .bits   IntDefaultHandler,32            ; g_pfnVectors[21] @ 672
      88 00000058 00000000!         .bits   IntDefaultHandler,32            ; g_pfnVectors[22] @ 704
      89 0000005c 00000000!         .bits   IntDefaultHandler,32            ; g_pfnVectors[23] @ 736
      90 00000060 00000000!         .bits   IntDefaultHandler,32            ; g_pfnVectors[24] @ 768
      91 00000064 00000000!         .bits   IntDefaultHandler,32            ; g_pfnVectors[25] @ 800
      92 00000068 00000000!         .bits   IntDefaultHandler,32            ; g_pfnVectors[26] @ 832
      93 0000006c 00000000!         .bits   IntDefaultHandler,32            ; g_pfnVectors[27] @ 864
      94 00000070 00000000!         .bits   IntDefaultHandler,32            ; g_pfnVectors[28] @ 896
      95 00000074 00000000!         .bits   IntDefaultHandler,32            ; g_pfnVectors[29] @ 928
      96 00000078 00000000!         .bits   IntDefaultHandler,32            ; g_pfnVectors[30] @ 960
      97 0000007c 00000000!         .bits   IntDefaultHandler,32            ; g_pfnVectors[31] @ 992
      98 00000080 00000000!         .bits   IntDefaultHandler,32            ; g_pfnVectors[32] @ 1024
      99 00000084 00000000!         .bits   IntDefaultHandler,32            ; g_pfnVectors[33] @ 1056
     100 00000088 00000000!         .bits   IntDefaultHandler,32            ; g_pfnVectors[34] @ 1088
     101 0000008c 00000000!         .bits   Timer_0_A_ISR,32                ; g_pfnVectors[35] @ 1120
     102 00000090 00000000!         .bits   IntDefaultHandler,32            ; g_pfnVectors[36] @ 1152
     103 00000094 00000000!         .bits   IntDefaultHandler,32            ; g_pfnVectors[37] @ 1184
     104 00000098 00000000!         .bits   IntDefaultHandler,32            ; g_pfnVectors[38] @ 1216
     105 0000009c 00000000!         .bits   IntDefaultHandler,32            ; g_pfnVectors[39] @ 1248
     106 000000a0 00000000!         .bits   IntDefaultHandler,32            ; g_pfnVectors[40] @ 1280
     107 000000a4 00000000!         .bits   IntDefaultHandler,32            ; g_pfnVectors[41] @ 1312
     108 000000a8 00000000!         .bits   IntDefaultHandler,32            ; g_pfnVectors[42] @ 1344
     109 000000ac 00000000!         .bits   IntDefaultHandler,32            ; g_pfnVectors[43] @ 1376
     110 000000b0 00000000!         .bits   IntDefaultHandler,32            ; g_pfnVectors[44] @ 1408
TI ARM Assembler PC v5.1.7 Tue Sep 16 08:38:33 2014

Tools Copyright (c) 1996-2014 Texas Instruments Incorporated
startup_ccs.asm                                                      PAGE    3

     111 000000b4 00000000!         .bits   IntDefaultHandler,32            ; g_pfnVectors[45] @ 1440
     112 000000b8 00000000!         .bits   IntDefaultHandler,32            ; g_pfnVectors[46] @ 1472
     113 000000bc 00000000!         .bits   IntDefaultHandler,32            ; g_pfnVectors[47] @ 1504
     114 000000c0 00000000!         .bits   IntDefaultHandler,32            ; g_pfnVectors[48] @ 1536
     115 000000c4 00000000!         .bits   IntDefaultHandler,32            ; g_pfnVectors[49] @ 1568
     116 000000c8 00000000!         .bits   IntDefaultHandler,32            ; g_pfnVectors[50] @ 1600
     117 000000cc 00000000!         .bits   IntDefaultHandler,32            ; g_pfnVectors[51] @ 1632
     118 000000d0 00000000!         .bits   IntDefaultHandler,32            ; g_pfnVectors[52] @ 1664
     119 000000d4 00000000!         .bits   IntDefaultHandler,32            ; g_pfnVectors[53] @ 1696
     120 000000d8 00000000!         .bits   IntDefaultHandler,32            ; g_pfnVectors[54] @ 1728
     121 000000dc 00000000!         .bits   IntDefaultHandler,32            ; g_pfnVectors[55] @ 1760
     122 000000e0 00000000!         .bits   IntDefaultHandler,32            ; g_pfnVectors[56] @ 1792
     123 000000e4 00000000!         .bits   IntDefaultHandler,32            ; g_pfnVectors[57] @ 1824
     124 000000e8 00000000!         .bits   IntDefaultHandler,32            ; g_pfnVectors[58] @ 1856
     125 000000ec 00000000!         .bits   IntDefaultHandler,32            ; g_pfnVectors[59] @ 1888
     126 000000f0 00000000!         .bits   IntDefaultHandler,32            ; g_pfnVectors[60] @ 1920
     127 000000f4 00000000!         .bits   IntDefaultHandler,32            ; g_pfnVectors[61] @ 1952
     128 000000f8 00000000!         .bits   IntDefaultHandler,32            ; g_pfnVectors[62] @ 1984
     129 000000fc 00000000!         .bits   IntDefaultHandler,32            ; g_pfnVectors[63] @ 2016
     130 00000100 00000000!         .bits   IntDefaultHandler,32            ; g_pfnVectors[64] @ 2048
     131 00000104 00000000!         .bits   IntDefaultHandler,32            ; g_pfnVectors[65] @ 2080
     132 00000108 00000000!         .bits   IntDefaultHandler,32            ; g_pfnVectors[66] @ 2112
     133 0000010c 00000000!         .bits   IntDefaultHandler,32            ; g_pfnVectors[67] @ 2144
     134 00000110 00000000!         .bits   IntDefaultHandler,32            ; g_pfnVectors[68] @ 2176
     135 00000114 00000000!         .bits   IntDefaultHandler,32            ; g_pfnVectors[69] @ 2208
     136 00000118 00000000!         .bits   IntDefaultHandler,32            ; g_pfnVectors[70] @ 2240
     137 0000011c 00000000!         .bits   IntDefaultHandler,32            ; g_pfnVectors[71] @ 2272
     138 00000120 00000000!         .bits   IntDefaultHandler,32            ; g_pfnVectors[72] @ 2304
     139 00000124 00000000!         .bits   IntDefaultHandler,32            ; g_pfnVectors[73] @ 2336
     140 00000128 00000000!         .bits   IntDefaultHandler,32            ; g_pfnVectors[74] @ 2368
     141 0000012c 00000000!         .bits   IntDefaultHandler,32            ; g_pfnVectors[75] @ 2400
     142 00000130 00000000!         .bits   IntDefaultHandler,32            ; g_pfnVectors[76] @ 2432
     143 00000134 00000000!         .bits   IntDefaultHandler,32            ; g_pfnVectors[77] @ 2464
     144 00000138 00000000!         .bits   IntDefaultHandler,32            ; g_pfnVectors[78] @ 2496
     145 0000013c 00000000!         .bits   IntDefaultHandler,32            ; g_pfnVectors[79] @ 2528
     146 00000140 00000000!         .bits   IntDefaultHandler,32            ; g_pfnVectors[80] @ 2560
     147 00000144 00000000!         .bits   IntDefaultHandler,32            ; g_pfnVectors[81] @ 2592
     148 00000148 00000000!         .bits   IntDefaultHandler,32            ; g_pfnVectors[82] @ 2624
     149 0000014c 00000000!         .bits   IntDefaultHandler,32            ; g_pfnVectors[83] @ 2656
     150 00000150 00000000          .bits   0,32                    ; g_pfnVectors[84] @ 2688
     151 00000154 00000000          .bits   0,32                    ; g_pfnVectors[85] @ 2720
     152 00000158 00000000!         .bits   IntDefaultHandler,32            ; g_pfnVectors[86] @ 2752
     153 0000015c 00000000!         .bits   IntDefaultHandler,32            ; g_pfnVectors[87] @ 2784
     154 00000160 00000000!         .bits   IntDefaultHandler,32            ; g_pfnVectors[88] @ 2816
     155 00000164 00000000!         .bits   IntDefaultHandler,32            ; g_pfnVectors[89] @ 2848
     156 00000168 00000000          .bits   0,32                    ; g_pfnVectors[90] @ 2880
     157 0000016c 00000000!         .bits   IntDefaultHandler,32            ; g_pfnVectors[91] @ 2912
     158 00000170 00000000!         .bits   IntDefaultHandler,32            ; g_pfnVectors[92] @ 2944
     159 00000174 00000000!         .bits   IntDefaultHandler,32            ; g_pfnVectors[93] @ 2976
     160 00000178 00000000!         .bits   IntDefaultHandler,32            ; g_pfnVectors[94] @ 3008
     161 0000017c 00000000!         .bits   IntDefaultHandler,32            ; g_pfnVectors[95] @ 3040
     162 00000180 00000000!         .bits   IntDefaultHandler,32            ; g_pfnVectors[96] @ 3072
     163 00000184 00000000!         .bits   IntDefaultHandler,32            ; g_pfnVectors[97] @ 3104
     164 00000188 00000000!         .bits   IntDefaultHandler,32            ; g_pfnVectors[98] @ 3136
     165 0000018c 00000000!         .bits   IntDefaultHandler,32            ; g_pfnVectors[99] @ 3168
TI ARM Assembler PC v5.1.7 Tue Sep 16 08:38:33 2014

Tools Copyright (c) 1996-2014 Texas Instruments Incorporated
startup_ccs.asm                                                      PAGE    4

     166 00000190 00000000!         .bits   IntDefaultHandler,32            ; g_pfnVectors[100] @ 3200
     167 00000194 00000000!         .bits   IntDefaultHandler,32            ; g_pfnVectors[101] @ 3232
     168 00000198 00000000!         .bits   IntDefaultHandler,32            ; g_pfnVectors[102] @ 3264
     169 0000019c 00000000!         .bits   IntDefaultHandler,32            ; g_pfnVectors[103] @ 3296
     170 000001a0 00000000!         .bits   IntDefaultHandler,32            ; g_pfnVectors[104] @ 3328
     171 000001a4 00000000!         .bits   IntDefaultHandler,32            ; g_pfnVectors[105] @ 3360
     172 000001a8 00000000!         .bits   IntDefaultHandler,32            ; g_pfnVectors[106] @ 3392
     173 000001ac 00000000!         .bits   IntDefaultHandler,32            ; g_pfnVectors[107] @ 3424
     174 000001b0 00000000!         .bits   IntDefaultHandler,32            ; g_pfnVectors[108] @ 3456
     175 000001b4 00000000!         .bits   IntDefaultHandler,32            ; g_pfnVectors[109] @ 3488
     176 000001b8 00000000!         .bits   IntDefaultHandler,32            ; g_pfnVectors[110] @ 3520
     177 000001bc 00000000!         .bits   IntDefaultHandler,32            ; g_pfnVectors[111] @ 3552
     178 000001c0 00000000!         .bits   IntDefaultHandler,32            ; g_pfnVectors[112] @ 3584
     179 000001c4 00000000!         .bits   IntDefaultHandler,32            ; g_pfnVectors[113] @ 3616
     180 000001c8 00000000!         .bits   IntDefaultHandler,32            ; g_pfnVectors[114] @ 3648
     181 000001cc 00000000!         .bits   IntDefaultHandler,32            ; g_pfnVectors[115] @ 3680
     182 000001d0 00000000!         .bits   IntDefaultHandler,32            ; g_pfnVectors[116] @ 3712
     183 000001d4 00000000!         .bits   IntDefaultHandler,32            ; g_pfnVectors[117] @ 3744
     184 000001d8 00000000!         .bits   IntDefaultHandler,32            ; g_pfnVectors[118] @ 3776
     185 000001dc 00000000!         .bits   I2C7_IntServiceRoutine,32               ; g_pfnVectors[119] @ 3808
     186 000001e0 00000000!         .bits   IntDefaultHandler,32            ; g_pfnVectors[120] @ 3840
     187 000001e4 00000000!         .bits   IntDefaultHandler,32            ; g_pfnVectors[121] @ 3872
     188 000001e8 00000000!         .bits   IntDefaultHandler,32            ; g_pfnVectors[122] @ 3904
     189 000001ec 00000000!         .bits   IntDefaultHandler,32            ; g_pfnVectors[123] @ 3936
     190 000001f0 00000000!         .bits   IntDefaultHandler,32            ; g_pfnVectors[124] @ 3968
     191 000001f4 00000000!         .bits   IntDefaultHandler,32            ; g_pfnVectors[125] @ 4000
     192 000001f8 00000000!         .bits   IntDefaultHandler,32            ; g_pfnVectors[126] @ 4032
     193 000001fc 00000000!         .bits   IntDefaultHandler,32            ; g_pfnVectors[127] @ 4064
     194                    
     195                    $C$DW$7 .dwtag  DW_TAG_variable, DW_AT_name("g_pfnVectors")
     196                            .dwattr $C$DW$7, DW_AT_TI_symbol_name("g_pfnVectors")
     197                            .dwattr $C$DW$7, DW_AT_location[DW_OP_addr g_pfnVectors]
     198                            .dwattr $C$DW$7, DW_AT_type(*$C$DW$T$22)
     199                            .dwattr $C$DW$7, DW_AT_external
     200                            .dwattr $C$DW$7, DW_AT_decl_file("../startup_ccs.c")
     201                            .dwattr $C$DW$7, DW_AT_decl_line(0x59)
     202                            .dwattr $C$DW$7, DW_AT_decl_column(0x0f)
     203                    ;       C:\TI_CodeComposer\ccsv6\tools\compiler\arm_5.1.7\bin\armacpia.exe -@C:\\Users\\zflies\\AppDat
     204 00000000                   .sect   ".text"
     205                            .clink
     206                            .thumbfunc ResetISR
     207 00000000                   .thumb
     208                            .global ResetISR
     209                    
     210                    $C$DW$8 .dwtag  DW_TAG_subprogram, DW_AT_name("ResetISR")
     211                            .dwattr $C$DW$8, DW_AT_low_pc(ResetISR)
     212                            .dwattr $C$DW$8, DW_AT_high_pc(0x00)
     213                            .dwattr $C$DW$8, DW_AT_TI_symbol_name("ResetISR")
     214                            .dwattr $C$DW$8, DW_AT_external
     215                            .dwattr $C$DW$8, DW_AT_TI_begin_file("../startup_ccs.c")
     216                            .dwattr $C$DW$8, DW_AT_TI_begin_line(0xe9)
     217                            .dwattr $C$DW$8, DW_AT_TI_begin_column(0x01)
     218                            .dwattr $C$DW$8, DW_AT_decl_file("../startup_ccs.c")
     219                            .dwattr $C$DW$8, DW_AT_decl_line(0xe9)
     220                            .dwattr $C$DW$8, DW_AT_decl_column(0x01)
TI ARM Assembler PC v5.1.7 Tue Sep 16 08:38:33 2014

Tools Copyright (c) 1996-2014 Texas Instruments Incorporated
startup_ccs.asm                                                      PAGE    5

     221                            .dwattr $C$DW$8, DW_AT_TI_max_frame_size(0x00)
     222                            .dwpsn  file "../startup_ccs.c",line 234,column 1,is_stmt,address ResetISR,isa 1
     223                    
     224                            .dwfde $C$DW$CIE, ResetISR
     225                    
     226                    ;*****************************************************************************
     227                    ;* FUNCTION NAME: ResetISR                                                   *
     228                    ;*                                                                           *
     229                    ;*   Regs Modified     :                                                     *
     230                    ;*   Regs Used         : LR                                                  *
     231                    ;*   Local Frame Size  : 0 Args + 0 Auto + 0 Save = 0 byte                   *
     232                    ;*****************************************************************************
     233 00000000           ResetISR:
     234                    ;* --------------------------------------------------------------------------*
     235                            .dwcfi  cfa_offset, 0
     236                            .dwpsn  file "../startup_ccs.c",line 238,column 5,is_stmt,isa 1
     237                        .global _c_int00
     238 00000000 BFFEF7FF!     b.w     _c_int00 ; [KEEP 32-BIT INS]
     239                            .dwpsn  file "../startup_ccs.c",line 240,column 1,is_stmt,isa 1
     240                    $C$DW$9 .dwtag  DW_TAG_TI_branch
     241                            .dwattr $C$DW$9, DW_AT_low_pc(0x00)
     242                            .dwattr $C$DW$9, DW_AT_TI_return
     243 00000004 4770              BX        LR                    ; [DPU_3_PIPE]  ; [ORIG 16-BIT INS]
     244                            ; BRANCH OCCURS                  ; [] 
     245                            .dwattr $C$DW$8, DW_AT_TI_end_file("../startup_ccs.c")
     246                            .dwattr $C$DW$8, DW_AT_TI_end_line(0xf0)
     247                            .dwattr $C$DW$8, DW_AT_TI_end_column(0x01)
     248                            .dwendentry
     249                            .dwendtag $C$DW$8
     250                    
     251 00000006                   .sect   ".text"
     252                            .clink
     253                            .thumbfunc NmiSR
     254 00000006                   .thumb
     255                    
     256                    $C$DW$10        .dwtag  DW_TAG_subprogram, DW_AT_name("NmiSR")
     257                            .dwattr $C$DW$10, DW_AT_low_pc(NmiSR)
     258                            .dwattr $C$DW$10, DW_AT_high_pc(0x00)
     259                            .dwattr $C$DW$10, DW_AT_TI_symbol_name("NmiSR")
     260                            .dwattr $C$DW$10, DW_AT_TI_begin_file("../startup_ccs.c")
     261                            .dwattr $C$DW$10, DW_AT_TI_begin_line(0xfa)
     262                            .dwattr $C$DW$10, DW_AT_TI_begin_column(0x01)
     263                            .dwattr $C$DW$10, DW_AT_decl_file("../startup_ccs.c")
     264                            .dwattr $C$DW$10, DW_AT_decl_line(0xfa)
     265                            .dwattr $C$DW$10, DW_AT_decl_column(0x01)
     266                            .dwattr $C$DW$10, DW_AT_TI_max_frame_size(0x00)
     267                            .dwpsn  file "../startup_ccs.c",line 251,column 1,is_stmt,address NmiSR,isa 1
     268                    
     269                            .dwfde $C$DW$CIE, NmiSR
     270                    
     271                    ;*****************************************************************************
     272                    ;* FUNCTION NAME: NmiSR                                                      *
     273                    ;*                                                                           *
     274                    ;*   Regs Modified     :                                                     *
     275                    ;*   Regs Used         : LR                                                  *
TI ARM Assembler PC v5.1.7 Tue Sep 16 08:38:33 2014

Tools Copyright (c) 1996-2014 Texas Instruments Incorporated
startup_ccs.asm                                                      PAGE    6

     276                    ;*   Local Frame Size  : 0 Args + 0 Auto + 0 Save = 0 byte                   *
     277                    ;*****************************************************************************
     278 00000006           NmiSR:
     279                    ;* --------------------------------------------------------------------------*
     280                            .dwcfi  cfa_offset, 0
     281                            .dwpsn  file "../startup_ccs.c",line 255,column 11,is_stmt,isa 1
     282                    ;* --------------------------------------------------------------------------*
     283                    ;*   BEGIN LOOP ||$C$L1||
     284                    ;*
     285                    ;*   Loop source line                : 255
     286                    ;*   Loop closing brace source line  : 257
     287                    ;*   Known Minimum Trip Count        : 1
     288                    ;*   Known Maximum Trip Count        : 4294967295
     289                    ;*   Known Max Trip Count Factor     : 1
     290                    ;* --------------------------------------------------------------------------*
     291 00000006           ||$C$L1||:    
     292 00000006 E7FE              B         ||$C$L1||             ; [DPU_3_PIPE] |255|  ; [ORIG 16-BIT INS]
     293                            ; BRANCH OCCURS {||$C$L1||}      ; [] |255| 
     294                    ;* --------------------------------------------------------------------------*
     295                            .dwattr $C$DW$10, DW_AT_TI_end_file("../startup_ccs.c")
     296                            .dwattr $C$DW$10, DW_AT_TI_end_line(0x102)
     297                            .dwattr $C$DW$10, DW_AT_TI_end_column(0x01)
     298                            .dwendentry
     299                            .dwendtag $C$DW$10
     300                    
     301 00000008                   .sect   ".text"
     302                            .clink
     303                            .thumbfunc FaultISR
     304 00000008                   .thumb
     305                    
     306                    $C$DW$11        .dwtag  DW_TAG_subprogram, DW_AT_name("FaultISR")
     307                            .dwattr $C$DW$11, DW_AT_low_pc(FaultISR)
     308                            .dwattr $C$DW$11, DW_AT_high_pc(0x00)
     309                            .dwattr $C$DW$11, DW_AT_TI_symbol_name("FaultISR")
     310                            .dwattr $C$DW$11, DW_AT_TI_begin_file("../startup_ccs.c")
     311                            .dwattr $C$DW$11, DW_AT_TI_begin_line(0x10c)
     312                            .dwattr $C$DW$11, DW_AT_TI_begin_column(0x01)
     313                            .dwattr $C$DW$11, DW_AT_decl_file("../startup_ccs.c")
     314                            .dwattr $C$DW$11, DW_AT_decl_line(0x10c)
     315                            .dwattr $C$DW$11, DW_AT_decl_column(0x01)
     316                            .dwattr $C$DW$11, DW_AT_TI_max_frame_size(0x00)
     317                            .dwpsn  file "../startup_ccs.c",line 269,column 1,is_stmt,address FaultISR,isa 1
     318                    
     319                            .dwfde $C$DW$CIE, FaultISR
     320                    
     321                    ;*****************************************************************************
     322                    ;* FUNCTION NAME: FaultISR                                                   *
     323                    ;*                                                                           *
     324                    ;*   Regs Modified     :                                                     *
     325                    ;*   Regs Used         : LR                                                  *
     326                    ;*   Local Frame Size  : 0 Args + 0 Auto + 0 Save = 0 byte                   *
     327                    ;*****************************************************************************
     328 00000008           FaultISR:
     329                    ;* --------------------------------------------------------------------------*
     330                            .dwcfi  cfa_offset, 0
TI ARM Assembler PC v5.1.7 Tue Sep 16 08:38:33 2014

Tools Copyright (c) 1996-2014 Texas Instruments Incorporated
startup_ccs.asm                                                      PAGE    7

     331                            .dwpsn  file "../startup_ccs.c",line 273,column 11,is_stmt,isa 1
     332                    ;* --------------------------------------------------------------------------*
     333                    ;*   BEGIN LOOP ||$C$L2||
     334                    ;*
     335                    ;*   Loop source line                : 273
     336                    ;*   Loop closing brace source line  : 275
     337                    ;*   Known Minimum Trip Count        : 1
     338                    ;*   Known Maximum Trip Count        : 4294967295
     339                    ;*   Known Max Trip Count Factor     : 1
     340                    ;* --------------------------------------------------------------------------*
     341 00000008           ||$C$L2||:    
     342 00000008 E7FE              B         ||$C$L2||             ; [DPU_3_PIPE] |273|  ; [ORIG 16-BIT INS]
     343                            ; BRANCH OCCURS {||$C$L2||}      ; [] |273| 
     344                    ;* --------------------------------------------------------------------------*
     345                            .dwattr $C$DW$11, DW_AT_TI_end_file("../startup_ccs.c")
     346                            .dwattr $C$DW$11, DW_AT_TI_end_line(0x114)
     347                            .dwattr $C$DW$11, DW_AT_TI_end_column(0x01)
     348                            .dwendentry
     349                            .dwendtag $C$DW$11
     350                    
     351 0000000a                   .sect   ".text"
     352                            .clink
     353                            .thumbfunc IntDefaultHandler
     354 0000000a                   .thumb
     355                    
     356                    $C$DW$12        .dwtag  DW_TAG_subprogram, DW_AT_name("IntDefaultHandler")
     357                            .dwattr $C$DW$12, DW_AT_low_pc(IntDefaultHandler)
     358                            .dwattr $C$DW$12, DW_AT_high_pc(0x00)
     359                            .dwattr $C$DW$12, DW_AT_TI_symbol_name("IntDefaultHandler")
     360                            .dwattr $C$DW$12, DW_AT_TI_begin_file("../startup_ccs.c")
     361                            .dwattr $C$DW$12, DW_AT_TI_begin_line(0x11e)
     362                            .dwattr $C$DW$12, DW_AT_TI_begin_column(0x01)
     363                            .dwattr $C$DW$12, DW_AT_decl_file("../startup_ccs.c")
     364                            .dwattr $C$DW$12, DW_AT_decl_line(0x11e)
     365                            .dwattr $C$DW$12, DW_AT_decl_column(0x01)
     366                            .dwattr $C$DW$12, DW_AT_TI_max_frame_size(0x00)
     367                            .dwpsn  file "../startup_ccs.c",line 287,column 1,is_stmt,address IntDefaultHandler,isa 1
     368                    
     369                            .dwfde $C$DW$CIE, IntDefaultHandler
     370                    
     371                    ;*****************************************************************************
     372                    ;* FUNCTION NAME: IntDefaultHandler                                          *
     373                    ;*                                                                           *
     374                    ;*   Regs Modified     :                                                     *
     375                    ;*   Regs Used         : LR                                                  *
     376                    ;*   Local Frame Size  : 0 Args + 0 Auto + 0 Save = 0 byte                   *
     377                    ;*****************************************************************************
     378 0000000a           IntDefaultHandler:
     379                    ;* --------------------------------------------------------------------------*
     380                            .dwcfi  cfa_offset, 0
     381                            .dwpsn  file "../startup_ccs.c",line 291,column 11,is_stmt,isa 1
     382                    ;* --------------------------------------------------------------------------*
     383                    ;*   BEGIN LOOP ||$C$L3||
     384                    ;*
     385                    ;*   Loop source line                : 291
TI ARM Assembler PC v5.1.7 Tue Sep 16 08:38:33 2014

Tools Copyright (c) 1996-2014 Texas Instruments Incorporated
startup_ccs.asm                                                      PAGE    8

     386                    ;*   Loop closing brace source line  : 293
     387                    ;*   Known Minimum Trip Count        : 1
     388                    ;*   Known Maximum Trip Count        : 4294967295
     389                    ;*   Known Max Trip Count Factor     : 1
     390                    ;* --------------------------------------------------------------------------*
     391 0000000a           ||$C$L3||:    
     392 0000000a E7FE              B         ||$C$L3||             ; [DPU_3_PIPE] |291|  ; [ORIG 16-BIT INS]
     393                            ; BRANCH OCCURS {||$C$L3||}      ; [] |291| 
     394                    ;* --------------------------------------------------------------------------*
     395                            .dwattr $C$DW$12, DW_AT_TI_end_file("../startup_ccs.c")
     396                            .dwattr $C$DW$12, DW_AT_TI_end_line(0x126)
     397                            .dwattr $C$DW$12, DW_AT_TI_end_column(0x01)
     398                            .dwendentry
     399                            .dwendtag $C$DW$12
     400                    
     401                    ;*****************************************************************************
     402                    ;* UNDEFINED EXTERNAL REFERENCES                                             *
     403                    ;*****************************************************************************
     404                            .global xPortPendSVHandler
     405                            .global vPortSVCHandler
     406                            .global xPortSysTickHandler
     407                            .global Timer_0_A_ISR
     408                            .global I2C7_IntServiceRoutine
     409                    
     410                    ;******************************************************************************
     411                    ;* BUILD ATTRIBUTES                                                           *
     412                    ;******************************************************************************
     413                            .battr "aeabi", Tag_File, 1, Tag_ABI_PCS_wchar_t(2)
     414                            .battr "aeabi", Tag_File, 1, Tag_ABI_FP_rounding(0)
     415                            .battr "aeabi", Tag_File, 1, Tag_ABI_FP_denormal(0)
     416                            .battr "aeabi", Tag_File, 1, Tag_ABI_FP_exceptions(0)
     417                            .battr "aeabi", Tag_File, 1, Tag_ABI_FP_number_model(1)
     418                            .battr "aeabi", Tag_File, 1, Tag_ABI_enum_size(0)
     419                            .battr "aeabi", Tag_File, 1, Tag_ABI_optimization_goals(5)
     420                            .battr "aeabi", Tag_File, 1, Tag_ABI_FP_optimization_goals(0)
     421                            .battr "TI", Tag_File, 1, Tag_Bitfield_layout(2)
     422                            .battr "TI", Tag_File, 1, Tag_FP_interface(1)
     423                    
     424                    ;******************************************************************************
     425                    ;* TYPE INFORMATION                                                           *
     426                    ;******************************************************************************
     427                    $C$DW$T$2       .dwtag  DW_TAG_unspecified_type
     428                            .dwattr $C$DW$T$2, DW_AT_name("void")
     429                    
     430                    $C$DW$T$19      .dwtag  DW_TAG_subroutine_type
     431                            .dwattr $C$DW$T$19, DW_AT_language(DW_LANG_C)
     432                    $C$DW$T$20      .dwtag  DW_TAG_pointer_type
     433                            .dwattr $C$DW$T$20, DW_AT_type(*$C$DW$T$19)
     434                            .dwattr $C$DW$T$20, DW_AT_address_class(0x20)
     435                    $C$DW$T$21      .dwtag  DW_TAG_const_type
     436                            .dwattr $C$DW$T$21, DW_AT_type(*$C$DW$T$20)
     437                    
     438                    $C$DW$T$22      .dwtag  DW_TAG_array_type
     439                            .dwattr $C$DW$T$22, DW_AT_type(*$C$DW$T$21)
     440                            .dwattr $C$DW$T$22, DW_AT_language(DW_LANG_C)
TI ARM Assembler PC v5.1.7 Tue Sep 16 08:38:33 2014

Tools Copyright (c) 1996-2014 Texas Instruments Incorporated
startup_ccs.asm                                                      PAGE    9

     441                            .dwattr $C$DW$T$22, DW_AT_byte_size(0x200)
     442                    $C$DW$13        .dwtag  DW_TAG_subrange_type
     443                            .dwattr $C$DW$13, DW_AT_upper_bound(0x7f)
     444                            .dwendtag $C$DW$T$22
     445                    
     446                    $C$DW$T$4       .dwtag  DW_TAG_base_type
     447                            .dwattr $C$DW$T$4, DW_AT_encoding(DW_ATE_boolean)
     448                            .dwattr $C$DW$T$4, DW_AT_name("bool")
     449                            .dwattr $C$DW$T$4, DW_AT_byte_size(0x01)
     450                    $C$DW$T$5       .dwtag  DW_TAG_base_type
     451                            .dwattr $C$DW$T$5, DW_AT_encoding(DW_ATE_signed_char)
     452                            .dwattr $C$DW$T$5, DW_AT_name("signed char")
     453                            .dwattr $C$DW$T$5, DW_AT_byte_size(0x01)
     454                    $C$DW$T$6       .dwtag  DW_TAG_base_type
     455                            .dwattr $C$DW$T$6, DW_AT_encoding(DW_ATE_unsigned_char)
     456                            .dwattr $C$DW$T$6, DW_AT_name("unsigned char")
     457                            .dwattr $C$DW$T$6, DW_AT_byte_size(0x01)
     458                    $C$DW$T$7       .dwtag  DW_TAG_base_type
     459                            .dwattr $C$DW$T$7, DW_AT_encoding(DW_ATE_signed_char)
     460                            .dwattr $C$DW$T$7, DW_AT_name("wchar_t")
     461                            .dwattr $C$DW$T$7, DW_AT_byte_size(0x02)
     462                    $C$DW$T$8       .dwtag  DW_TAG_base_type
     463                            .dwattr $C$DW$T$8, DW_AT_encoding(DW_ATE_signed)
     464                            .dwattr $C$DW$T$8, DW_AT_name("short")
     465                            .dwattr $C$DW$T$8, DW_AT_byte_size(0x02)
     466                    $C$DW$T$9       .dwtag  DW_TAG_base_type
     467                            .dwattr $C$DW$T$9, DW_AT_encoding(DW_ATE_unsigned)
     468                            .dwattr $C$DW$T$9, DW_AT_name("unsigned short")
     469                            .dwattr $C$DW$T$9, DW_AT_byte_size(0x02)
     470                    $C$DW$T$10      .dwtag  DW_TAG_base_type
     471                            .dwattr $C$DW$T$10, DW_AT_encoding(DW_ATE_signed)
     472                            .dwattr $C$DW$T$10, DW_AT_name("int")
     473                            .dwattr $C$DW$T$10, DW_AT_byte_size(0x04)
     474                    $C$DW$T$11      .dwtag  DW_TAG_base_type
     475                            .dwattr $C$DW$T$11, DW_AT_encoding(DW_ATE_unsigned)
     476                            .dwattr $C$DW$T$11, DW_AT_name("unsigned int")
     477                            .dwattr $C$DW$T$11, DW_AT_byte_size(0x04)
     478                    $C$DW$T$12      .dwtag  DW_TAG_base_type
     479                            .dwattr $C$DW$T$12, DW_AT_encoding(DW_ATE_signed)
     480                            .dwattr $C$DW$T$12, DW_AT_name("long")
     481                            .dwattr $C$DW$T$12, DW_AT_byte_size(0x04)
     482                    $C$DW$T$13      .dwtag  DW_TAG_base_type
     483                            .dwattr $C$DW$T$13, DW_AT_encoding(DW_ATE_unsigned)
     484                            .dwattr $C$DW$T$13, DW_AT_name("unsigned long")
     485                            .dwattr $C$DW$T$13, DW_AT_byte_size(0x04)
     486                    
     487                    $C$DW$T$25      .dwtag  DW_TAG_array_type
     488                            .dwattr $C$DW$T$25, DW_AT_type(*$C$DW$T$13)
     489                            .dwattr $C$DW$T$25, DW_AT_language(DW_LANG_C)
     490                            .dwattr $C$DW$T$25, DW_AT_byte_size(0x100)
     491                    $C$DW$14        .dwtag  DW_TAG_subrange_type
     492                            .dwattr $C$DW$14, DW_AT_upper_bound(0x3f)
     493                            .dwendtag $C$DW$T$25
     494                    
     495                    $C$DW$T$14      .dwtag  DW_TAG_base_type
TI ARM Assembler PC v5.1.7 Tue Sep 16 08:38:33 2014

Tools Copyright (c) 1996-2014 Texas Instruments Incorporated
startup_ccs.asm                                                      PAGE   10

     496                            .dwattr $C$DW$T$14, DW_AT_encoding(DW_ATE_signed)
     497                            .dwattr $C$DW$T$14, DW_AT_name("long long")
     498                            .dwattr $C$DW$T$14, DW_AT_byte_size(0x08)
     499                    $C$DW$T$15      .dwtag  DW_TAG_base_type
     500                            .dwattr $C$DW$T$15, DW_AT_encoding(DW_ATE_unsigned)
     501                            .dwattr $C$DW$T$15, DW_AT_name("unsigned long long")
     502                            .dwattr $C$DW$T$15, DW_AT_byte_size(0x08)
     503                    $C$DW$T$16      .dwtag  DW_TAG_base_type
     504                            .dwattr $C$DW$T$16, DW_AT_encoding(DW_ATE_float)
     505                            .dwattr $C$DW$T$16, DW_AT_name("float")
     506                            .dwattr $C$DW$T$16, DW_AT_byte_size(0x04)
     507                    $C$DW$T$17      .dwtag  DW_TAG_base_type
     508                            .dwattr $C$DW$T$17, DW_AT_encoding(DW_ATE_float)
     509                            .dwattr $C$DW$T$17, DW_AT_name("double")
     510                            .dwattr $C$DW$T$17, DW_AT_byte_size(0x08)
     511                    $C$DW$T$18      .dwtag  DW_TAG_base_type
     512                            .dwattr $C$DW$T$18, DW_AT_encoding(DW_ATE_float)
     513                            .dwattr $C$DW$T$18, DW_AT_name("long double")
     514                            .dwattr $C$DW$T$18, DW_AT_byte_size(0x08)
     515                    $C$DW$T$28      .dwtag  DW_TAG_pointer_type
     516                            .dwattr $C$DW$T$28, DW_AT_type(*$C$DW$T$6)
     517                            .dwattr $C$DW$T$28, DW_AT_address_class(0x20)
     518                    $C$DW$T$29      .dwtag  DW_TAG_typedef, DW_AT_name("__builtin_va_list")
     519                            .dwattr $C$DW$T$29, DW_AT_type(*$C$DW$T$28)
     520                            .dwattr $C$DW$T$29, DW_AT_language(DW_LANG_C)
     521                            .dwattr $C$DW$T$29, DW_AT_decl_file("../startup_ccs.c")
     522                            .dwattr $C$DW$T$29, DW_AT_decl_line(0x126)
     523                            .dwattr $C$DW$T$29, DW_AT_decl_column(0x01)
     524                            .dwattr $C$DW$CU, DW_AT_language(DW_LANG_C)
     525                    
     526                    ;***************************************************************
     527                    ;* DWARF CIE ENTRIES                                           *
     528                    ;***************************************************************
     529                    
     530                    $C$DW$CIE       .dwcie 14
     531                            .dwcfi  cfa_register, 13
     532                            .dwcfi  cfa_offset, 0
     533                            .dwcfi  undefined, 0
     534                            .dwcfi  undefined, 1
     535                            .dwcfi  undefined, 2
     536                            .dwcfi  undefined, 3
     537                            .dwcfi  same_value, 4
     538                            .dwcfi  same_value, 5
     539                            .dwcfi  same_value, 6
     540                            .dwcfi  same_value, 7
     541                            .dwcfi  same_value, 8
     542                            .dwcfi  same_value, 9
     543                            .dwcfi  same_value, 10
     544                            .dwcfi  same_value, 11
     545                            .dwcfi  undefined, 12
     546                            .dwcfi  undefined, 13
     547                            .dwcfi  undefined, 14
     548                            .dwcfi  undefined, 14
     549                            .dwcfi  undefined, 7
     550                            .dwcfi  undefined, 64
TI ARM Assembler PC v5.1.7 Tue Sep 16 08:38:33 2014

Tools Copyright (c) 1996-2014 Texas Instruments Incorporated
startup_ccs.asm                                                      PAGE   11

     551                            .dwcfi  undefined, 65
     552                            .dwcfi  undefined, 66
     553                            .dwcfi  undefined, 67
     554                            .dwcfi  undefined, 68
     555                            .dwcfi  undefined, 69
     556                            .dwcfi  undefined, 70
     557                            .dwcfi  undefined, 71
     558                            .dwcfi  undefined, 72
     559                            .dwcfi  undefined, 73
     560                            .dwcfi  undefined, 74
     561                            .dwcfi  undefined, 75
     562                            .dwcfi  undefined, 76
     563                            .dwcfi  undefined, 77
     564                            .dwcfi  undefined, 78
     565                            .dwcfi  undefined, 79
     566                            .dwcfi  same_value, 80
     567                            .dwcfi  same_value, 81
     568                            .dwcfi  same_value, 82
     569                            .dwcfi  same_value, 83
     570                            .dwcfi  same_value, 84
     571                            .dwcfi  same_value, 85
     572                            .dwcfi  same_value, 86
     573                            .dwcfi  same_value, 87
     574                            .dwcfi  same_value, 88
     575                            .dwcfi  same_value, 89
     576                            .dwcfi  same_value, 90
     577                            .dwcfi  same_value, 91
     578                            .dwcfi  same_value, 92
     579                            .dwcfi  same_value, 93
     580                            .dwcfi  same_value, 94
     581                            .dwcfi  same_value, 95
     582                            .dwendentry
     583                            .dwendtag $C$DW$CU
     584                    

--------------------------
Thumb2 Statistics
--------------------------
Number of Thumb2 ins converted to Thumb = 0 (0%)
Number of Thumb ins in input = 4 (80%)
Number of Thumb2 ins encoded as Thumb2 = 1 (100%)
Number of Thumb2 ins converted to 2 OPND Thumb = 0


No Assembly Errors, No Assembly Warnings
